(lp0
(lp1
(I68
I379
tp2
a(I4
I465
tp3
a(I40
I589
tp4
a(I40
I664
tp5
a(I5
I789
tp6
a(I5
I210
tp7
a(I6
I729
tp8
a(I25
I388
tp9
a(I148
I717
tp10
a(I73
I650
tp11
aa(lp12
(I85
I320
tp13
a(I21
I591
tp14
a(I26
I249
tp15
a(I62
I556
tp16
a(I23
I682
tp17
a(I2
I286
tp18
a(I11
I769
tp19
a(I12
I931
tp20
a(I42
I492
tp21
a(I36
I506
tp22
aa(lp23
(I24
I424
tp24
a(I54
I512
tp25
a(I30
I612
tp26
a(I35
I760
tp27
a(I17
I770
tp28
a(I19
I305
tp29
a(I95
I609
tp30
a(I17
I458
tp31
a(I1
I123
tp32
a(I31
I155
tp33
aa(lp34
(I1
I620
tp35
a(I5
I231
tp36
a(I86
I867
tp37
a(I7
I106
tp38
a(I260
I987
tp39
a(I17
I163
tp40
a(I26
I885
tp41
a(I2
I235
tp42
a(I13
I516
tp43
a(I49
I454
tp44
aa(lp45
(I93
I815
tp46
a(I6
I693
tp47
a(I55
I728
tp48
a(I55
I668
tp49
a(I34
I656
tp50
a(I70
I328
tp51
a(I24
I749
tp52
a(I13
I725
tp53
a(I1
I120
tp54
a(I100
I682
tp55
aa(lp56
(I26
I413
tp57
a(I156
I635
tp58
a(I12
I441
tp59
a(I1
I119
tp60
a(I161
I916
tp61
a(I2
I644
tp62
a(I97
I871
tp63
a(I1
I475
tp64
a(I12
I778
tp65
a(I16
I171
tp66
aa(lp67
(I43
I708
tp68
a(I32
I667
tp69
a(I134
I644
tp70
a(I146
I982
tp71
a(I92
I989
tp72
a(I21
I299
tp73
a(I5
I593
tp74
a(I3
I107
tp75
a(I5
I128
tp76
a(I26
I697
tp77
aa(lp78
(I9
I198
tp79
a(I41
I458
tp80
a(I29
I141
tp81
a(I35
I362
tp82
a(I6
I231
tp83
a(I28
I854
tp84
a(I147
I681
tp85
a(I18
I991
tp86
a(I2
I737
tp87
a(I2
I312
tp88
aa(lp89
(I34
I559
tp90
a(I61
I861
tp91
a(I112
I782
tp92
a(I53
I992
tp93
a(I3
I370
tp94
a(I71
I845
tp95
a(I70
I595
tp96
a(I27
I652
tp97
a(I35
I504
tp98
a(I81
I847
tp99
aa(lp100
(I4
I174
tp101
a(I14
I361
tp102
a(I2
I231
tp103
a(I82
I260
tp104
a(I87
I357
tp105
a(I1
I113
tp106
a(I4
I857
tp107
a(I15
I366
tp108
a(I18
I796
tp109
a(I23
I757
tp110
aa(lp111
(I30
I602
tp112
a(I8
I116
tp113
a(I130
I880
tp114
a(I55
I651
tp115
a(I15
I924
tp116
a(I1
I553
tp117
a(I113
I933
tp118
a(I6
I182
tp119
a(I35
I548
tp120
a(I25
I165
tp121
aa(lp122
(I10
I182
tp123
a(I9
I393
tp124
a(I68
I685
tp125
a(I10
I167
tp126
a(I138
I906
tp127
a(I26
I536
tp128
a(I28
I515
tp129
a(I20
I695
tp130
a(I128
I614
tp131
a(I10
I933
tp132
aa(lp133
(I9
I556
tp134
a(I20
I187
tp135
a(I1
I116
tp136
a(I193
I726
tp137
a(I1
I155
tp138
a(I6
I465
tp139
a(I145
I626
tp140
a(I33
I884
tp141
a(I2
I754
tp142
a(I40
I770
tp143
aa(lp144
(I21
I327
tp145
a(I14
I577
tp146
a(I41
I623
tp147
a(I23
I326
tp148
a(I65
I622
tp149
a(I124
I618
tp150
a(I16
I499
tp151
a(I26
I202
tp152
a(I22
I560
tp153
a(I6
I545
tp154
aa(lp155
(I15
I536
tp156
a(I32
I678
tp157
a(I18
I415
tp158
a(I1
I165
tp159
a(I196
I923
tp160
a(I13
I218
tp161
a(I118
I454
tp162
a(I9
I175
tp163
a(I9
I517
tp164
a(I4
I272
tp165
aa(lp166
(I26
I986
tp167
a(I1
I127
tp168
a(I232
I652
tp169
a(I26
I636
tp170
a(I12
I365
tp171
a(I11
I620
tp172
a(I10
I537
tp173
a(I2
I458
tp174
a(I13
I573
tp175
a(I67
I319
tp176
aa(lp177
(I36
I225
tp178
a(I36
I917
tp179
a(I50
I471
tp180
a(I45
I669
tp181
a(I48
I763
tp182
a(I45
I570
tp183
a(I9
I311
tp184
a(I49
I760
tp185
a(I109
I961
tp186
a(I12
I623
tp187
aa(lp188
(I116
I435
tp189
a(I23
I703
tp190
a(I4
I727
tp191
a(I22
I274
tp192
a(I57
I459
tp193
a(I59
I604
tp194
a(I1
I207
tp195
a(I45
I865
tp196
a(I32
I508
tp197
a(I9
I934
tp198
aa(lp199
(I40
I805
tp200
a(I11
I865
tp201
a(I41
I939
tp202
a(I188
I996
tp203
a(I74
I354
tp204
a(I13
I312
tp205
a(I5
I540
tp206
a(I77
I525
tp207
a(I9
I507
tp208
a(I8
I427
tp209
aa(lp210
(I2
I726
tp211
a(I61
I574
tp212
a(I32
I580
tp213
a(I12
I442
tp214
a(I32
I460
tp215
a(I3
I498
tp216
a(I44
I768
tp217
a(I20
I125
tp218
a(I32
I368
tp219
a(I116
I688
tp220
aa(lp221
(I9
I826
tp222
a(I2
I952
tp223
a(I11
I939
tp224
a(I22
I321
tp225
a(I306
I919
tp226
a(I10
I811
tp227
a(I32
I353
tp228
a(I80
I950
tp229
a(I14
I567
tp230
a(I47
I458
tp231
aa(lp232
(I123
I562
tp233
a(I38
I804
tp234
a(I165
I744
tp235
a(I17
I874
tp236
a(I54
I550
tp237
a(I6
I302
tp238
a(I1
I102
tp239
a(I28
I567
tp240
a(I7
I925
tp241
a(I12
I273
tp242
aa(lp243
(I14
I308
tp244
a(I17
I368
tp245
a(I4
I167
tp246
a(I21
I129
tp247
a(I13
I773
tp248
a(I15
I291
tp249
a(I10
I384
tp250
a(I134
I876
tp251
a(I39
I194
tp252
a(I2
I831
tp253
aa(lp254
(I7
I873
tp255
a(I6
I304
tp256
a(I9
I397
tp257
a(I11
I255
tp258
a(I43
I950
tp259
a(I5
I807
tp260
a(I6
I769
tp261
a(I89
I682
tp262
a(I1
I211
tp263
a(I395
I865
tp264
aa(lp265
(I13
I758
tp266
a(I17
I547
tp267
a(I12
I557
tp268
a(I57
I919
tp269
a(I9
I257
tp270
a(I41
I898
tp271
a(I8
I244
tp272
a(I52
I452
tp273
a(I28
I827
tp274
a(I121
I346
tp275
aa(lp276
(I10
I100
tp277
a(I81
I760
tp278
a(I28
I324
tp279
a(I94
I698
tp280
a(I2
I146
tp281
a(I32
I386
tp282
a(I48
I701
tp283
a(I12
I611
tp284
a(I74
I693
tp285
a(I13
I915
tp286
aa(lp287
(I192
I956
tp288
a(I131
I812
tp289
a(I39
I864
tp290
a(I41
I988
tp291
a(I31
I931
tp292
a(I2
I471
tp293
a(I45
I224
tp294
a(I12
I996
tp295
a(I5
I957
tp296
a(I31
I867
tp297
aa(lp298
(I15
I281
tp299
a(I153
I923
tp300
a(I32
I548
tp301
a(I4
I129
tp302
a(I25
I728
tp303
a(I143
I806
tp304
a(I22
I545
tp305
a(I11
I782
tp306
a(I83
I516
tp307
a(I1
I145
tp308
aa(lp309
(I80
I1000
tp310
a(I118
I702
tp311
a(I17
I950
tp312
a(I44
I430
tp313
a(I31
I456
tp314
a(I63
I860
tp315
a(I14
I218
tp316
a(I19
I185
tp317
a(I8
I210
tp318
a(I4
I221
tp319
aa(lp320
(I123
I930
tp321
a(I67
I360
tp322
a(I36
I224
tp323
a(I3
I190
tp324
a(I5
I106
tp325
a(I8
I202
tp326
a(I5
I866
tp327
a(I10
I122
tp328
a(I43
I931
tp329
a(I10
I738
tp330
aa(lp331
(I7
I725
tp332
a(I10
I105
tp333
a(I86
I955
tp334
a(I67
I581
tp335
a(I3
I559
tp336
a(I26
I744
tp337
a(I26
I469
tp338
a(I234
I915
tp339
a(I40
I677
tp340
a(I7
I455
tp341
aa(lp342
(I3
I221
tp343
a(I115
I775
tp344
a(I119
I968
tp345
a(I6
I437
tp346
a(I51
I439
tp347
a(I15
I152
tp348
a(I43
I460
tp349
a(I27
I948
tp350
a(I1
I656
tp351
a(I61
I594
tp352
aa(lp353
(I8
I348
tp354
a(I58
I918
tp355
a(I60
I809
tp356
a(I149
I830
tp357
a(I8
I328
tp358
a(I32
I579
tp359
a(I87
I483
tp360
a(I10
I711
tp361
a(I40
I458
tp362
a(I9
I255
tp363
aa(lp364
(I33
I803
tp365
a(I25
I673
tp366
a(I151
I667
tp367
a(I12
I140
tp368
a(I71
I983
tp369
a(I102
I853
tp370
a(I38
I762
tp371
a(I2
I106
tp372
a(I10
I167
tp373
a(I16
I905
tp374
aa(lp375
(I5
I789
tp376
a(I16
I382
tp377
a(I69
I352
tp378
a(I13
I138
tp379
a(I17
I166
tp380
a(I68
I534
tp381
a(I2
I100
tp382
a(I13
I544
tp383
a(I13
I136
tp384
a(I13
I713
tp385
aa(lp386
(I11
I678
tp387
a(I156
I783
tp388
a(I1
I103
tp389
a(I13
I367
tp390
a(I78
I461
tp391
a(I3
I804
tp392
a(I43
I587
tp393
a(I18
I167
tp394
a(I23
I217
tp395
a(I1
I132
tp396
aa(lp397
(I33
I771
tp398
a(I60
I443
tp399
a(I60
I234
tp400
a(I23
I601
tp401
a(I21
I309
tp402
a(I20
I656
tp403
a(I25
I349
tp404
a(I60
I991
tp405
a(I11
I910
tp406
a(I6
I287
tp407
aa(lp408
(I110
I690
tp409
a(I23
I969
tp410
a(I14
I864
tp411
a(I17
I663
tp412
a(I18
I324
tp413
a(I18
I613
tp414
a(I95
I472
tp415
a(I16
I947
tp416
a(I24
I119
tp417
a(I2
I246
tp418
aa(lp419
(I58
I679
tp420
a(I16
I376
tp421
a(I3
I273
tp422
a(I7
I517
tp423
a(I193
I679
tp424
a(I4
I726
tp425
a(I72
I901
tp426
a(I44
I498
tp427
a(I21
I341
tp428
a(I57
I823
tp429
aa(lp430
(I22
I597
tp431
a(I12
I181
tp432
a(I8
I857
tp433
a(I7
I429
tp434
a(I25
I481
tp435
a(I37
I808
tp436
a(I14
I615
tp437
a(I98
I875
tp438
a(I25
I484
tp439
a(I83
I255
tp440
aa(lp441
(I2
I528
tp442
a(I152
I970
tp443
a(I38
I986
tp444
a(I17
I380
tp445
a(I67
I589
tp446
a(I6
I104
tp447
a(I14
I767
tp448
a(I150
I708
tp449
a(I7
I752
tp450
a(I29
I339
tp451
aa(lp452
(I4
I410
tp453
a(I111
I876
tp454
a(I5
I577
tp455
a(I35
I784
tp456
a(I1
I154
tp457
a(I86
I767
tp458
a(I32
I899
tp459
a(I33
I417
tp460
a(I27
I132
tp461
a(I16
I143
tp462
aa(lp463
(I28
I651
tp464
a(I4
I618
tp465
a(I136
I991
tp466
a(I1
I953
tp467
a(I80
I977
tp468
a(I31
I193
tp469
a(I31
I788
tp470
a(I16
I305
tp471
a(I43
I387
tp472
a(I80
I748
tp473
aa(lp474
(I44
I929
tp475
a(I46
I833
tp476
a(I64
I511
tp477
a(I145
I907
tp478
a(I66
I932
tp479
a(I14
I226
tp480
a(I73
I827
tp481
a(I27
I407
tp482
a(I15
I455
tp483
a(I24
I707
tp484
aa(lp485
(I29
I289
tp486
a(I44
I420
tp487
a(I54
I795
tp488
a(I61
I692
tp489
a(I10
I342
tp490
a(I11
I244
tp491
a(I11
I831
tp492
a(I56
I447
tp493
a(I48
I861
tp494
a(I35
I316
tp495
aa(lp496
(I35
I652
tp497
a(I13
I911
tp498
a(I111
I755
tp499
a(I2
I629
tp500
a(I65
I565
tp501
a(I23
I208
tp502
a(I14
I689
tp503
a(I132
I849
tp504
a(I7
I718
tp505
a(I60
I516
tp506
aa(lp507
(I39
I378
tp508
a(I8
I959
tp509
a(I24
I259
tp510
a(I51
I364
tp511
a(I16
I437
tp512
a(I7
I667
tp513
a(I233
I956
tp514
a(I24
I795
tp515
a(I22
I783
tp516
a(I32
I646
tp517
aa(lp518
(I8
I147
tp519
a(I18
I386
tp520
a(I2
I447
tp521
a(I10
I237
tp522
a(I21
I990
tp523
a(I94
I657
tp524
a(I45
I349
tp525
a(I4
I762
tp526
a(I287
I991
tp527
a(I1
I501
tp528
aa(lp529
(I44
I517
tp530
a(I4
I853
tp531
a(I61
I505
tp532
a(I97
I828
tp533
a(I49
I621
tp534
a(I1
I599
tp535
a(I2
I140
tp536
a(I26
I873
tp537
a(I77
I395
tp538
a(I81
I884
tp539
aa(lp540
(I12
I893
tp541
a(I18
I842
tp542
a(I21
I619
tp543
a(I13
I135
tp544
a(I1
I186
tp545
a(I52
I214
tp546
a(I30
I536
tp547
a(I13
I301
tp548
a(I4
I680
tp549
a(I49
I224
tp550
aa(lp551
(I23
I155
tp552
a(I124
I905
tp553
a(I10
I376
tp554
a(I56
I810
tp555
a(I69
I688
tp556
a(I15
I484
tp557
a(I18
I359
tp558
a(I42
I875
tp559
a(I31
I543
tp560
a(I50
I707
tp561
aa(lp562
(I35
I560
tp563
a(I52
I807
tp564
a(I16
I469
tp565
a(I59
I391
tp566
a(I3
I763
tp567
a(I20
I724
tp568
a(I10
I166
tp569
a(I36
I801
tp570
a(I1
I180
tp571
a(I160
I549
tp572
aa(lp573
(I125
I526
tp574
a(I20
I773
tp575
a(I15
I272
tp576
a(I3
I879
tp577
a(I18
I679
tp578
a(I26
I584
tp579
a(I199
I833
tp580
a(I24
I839
tp581
a(I45
I615
tp582
a(I6
I780
tp583
aa(lp584
(I52
I669
tp585
a(I14
I769
tp586
a(I48
I945
tp587
a(I30
I839
tp588
a(I14
I362
tp589
a(I1
I406
tp590
a(I9
I470
tp591
a(I118
I960
tp592
a(I25
I785
tp593
a(I236
I685
tp594
aa(lp595
(I129
I872
tp596
a(I9
I765
tp597
a(I46
I513
tp598
a(I8
I865
tp599
a(I57
I665
tp600
a(I22
I841
tp601
a(I49
I241
tp602
a(I26
I360
tp603
a(I6
I487
tp604
a(I36
I446
tp605
aa(lp606
(I5
I268
tp607
a(I102
I557
tp608
a(I12
I117
tp609
a(I113
I825
tp610
a(I48
I700
tp611
a(I2
I295
tp612
a(I52
I684
tp613
a(I112
I953
tp614
a(I12
I711
tp615
a(I3
I251
tp616
aa(lp617
(I56
I624
tp618
a(I28
I766
tp619
a(I24
I514
tp620
a(I1
I714
tp621
a(I141
I485
tp622
a(I39
I350
tp623
a(I14
I478
tp624
a(I53
I632
tp625
a(I1
I878
tp626
a(I43
I809
tp627
aa(lp628
(I26
I385
tp629
a(I19
I329
tp630
a(I128
I884
tp631
a(I11
I760
tp632
a(I7
I256
tp633
a(I6
I929
tp634
a(I26
I591
tp635
a(I14
I288
tp636
a(I46
I306
tp637
a(I61
I349
tp638
aa(lp639
(I63
I528
tp640
a(I12
I226
tp641
a(I43
I734
tp642
a(I13
I416
tp643
a(I19
I366
tp644
a(I39
I292
tp645
a(I10
I108
tp646
a(I22
I300
tp647
a(I88
I963
tp648
a(I15
I488
tp649
aa(lp650
(I34
I696
tp651
a(I22
I215
tp652
a(I35
I848
tp653
a(I76
I713
tp654
a(I16
I658
tp655
a(I38
I998
tp656
a(I66
I830
tp657
a(I49
I958
tp658
a(I128
I707
tp659
a(I40
I572
tp660
aa(lp661
(I123
I943
tp662
a(I83
I895
tp663
a(I25
I256
tp664
a(I81
I380
tp665
a(I2
I145
tp666
a(I1
I658
tp667
a(I33
I937
tp668
a(I1
I525
tp669
a(I30
I243
tp670
a(I11
I378
tp671
aa(lp672
(I4
I616
tp673
a(I119
I731
tp674
a(I18
I726
tp675
a(I39
I848
tp676
a(I11
I267
tp677
a(I1
I104
tp678
a(I102
I714
tp679
a(I127
I974
tp680
a(I27
I196
tp681
a(I7
I207
tp682
aa(lp683
(I53
I388
tp684
a(I16
I518
tp685
a(I34
I874
tp686
a(I32
I251
tp687
a(I13
I763
tp688
a(I39
I432
tp689
a(I14
I886
tp690
a(I3
I158
tp691
a(I62
I564
tp692
a(I34
I222
tp693
aa(lp694
(I46
I859
tp695
a(I4
I207
tp696
a(I7
I112
tp697
a(I98
I725
tp698
a(I8
I263
tp699
a(I38
I552
tp700
a(I42
I890
tp701
a(I26
I309
tp702
a(I28
I527
tp703
a(I93
I516
tp704
aa(lp705
(I45
I491
tp706
a(I54
I594
tp707
a(I38
I346
tp708
a(I29
I765
tp709
a(I51
I599
tp710
a(I7
I863
tp711
a(I59
I628
tp712
a(I110
I796
tp713
a(I32
I623
tp714
a(I10
I282
tp715
aa(lp716
(I130
I857
tp717
a(I47
I183
tp718
a(I71
I791
tp719
a(I20
I652
tp720
a(I5
I119
tp721
a(I14
I624
tp722
a(I58
I593
tp723
a(I25
I867
tp724
a(I12
I903
tp725
a(I7
I887
tp726
aa(lp727
(I3
I190
tp728
a(I56
I239
tp729
a(I41
I418
tp730
a(I28
I779
tp731
a(I20
I120
tp732
a(I47
I873
tp733
a(I12
I691
tp734
a(I5
I714
tp735
a(I4
I327
tp736
a(I41
I435
tp737
aa(lp738
(I1
I225
tp739
a(I2
I243
tp740
a(I30
I607
tp741
a(I12
I638
tp742
a(I191
I845
tp743
a(I7
I443
tp744
a(I298
I844
tp745
a(I10
I334
tp746
a(I1
I552
tp747
a(I17
I466
tp748
aa(lp749
(I6
I209
tp750
a(I11
I478
tp751
a(I27
I418
tp752
a(I97
I729
tp753
a(I13
I182
tp754
a(I4
I664
tp755
a(I97
I925
tp756
a(I1
I729
tp757
a(I1
I232
tp758
a(I261
I860
tp759
aa(lp760
(I113
I554
tp761
a(I19
I799
tp762
a(I17
I490
tp763
a(I10
I594
tp764
a(I1
I519
tp765
a(I23
I328
tp766
a(I14
I766
tp767
a(I139
I464
tp768
a(I34
I934
tp769
a(I4
I138
tp770
aa(lp771
(I9
I273
tp772
a(I38
I663
tp773
a(I7
I392
tp774
a(I2
I162
tp775
a(I62
I488
tp776
a(I11
I392
tp777
a(I18
I404
tp778
a(I105
I945
tp779
a(I25
I206
tp780
a(I70
I387
tp781
aa(lp782
(I74
I956
tp783
a(I58
I685
tp784
a(I24
I315
tp785
a(I50
I510
tp786
a(I57
I962
tp787
a(I18
I703
tp788
a(I8
I886
tp789
a(I1
I109
tp790
a(I17
I195
tp791
a(I35
I168
tp792
aa(lp793
(I1
I860
tp794
a(I12
I116
tp795
a(I35
I659
tp796
a(I50
I895
tp797
a(I22
I250
tp798
a(I86
I822
tp799
a(I52
I225
tp800
a(I15
I511
tp801
a(I20
I403
tp802
a(I15
I763
tp803
aa(lp804
(I10
I969
tp805
a(I13
I206
tp806
a(I64
I602
tp807
a(I1
I102
tp808
a(I2
I134
tp809
a(I157
I607
tp810
a(I29
I241
tp811
a(I9
I486
tp812
a(I3
I586
tp813
a(I102
I845
tp814
aa(lp815
(I105
I465
tp816
a(I9
I244
tp817
a(I63
I704
tp818
a(I6
I509
tp819
a(I31
I575
tp820
a(I10
I218
tp821
a(I8
I227
tp822
a(I4
I129
tp823
a(I41
I759
tp824
a(I141
I951
tp825
aa(lp826
(I86
I948
tp827
a(I44
I267
tp828
a(I91
I690
tp829
a(I10
I525
tp830
a(I46
I696
tp831
a(I66
I377
tp832
a(I10
I739
tp833
a(I1
I364
tp834
a(I11
I156
tp835
a(I2
I672
tp836
aa(lp837
(I4
I509
tp838
a(I63
I810
tp839
a(I6
I458
tp840
a(I64
I193
tp841
a(I32
I373
tp842
a(I1
I204
tp843
a(I72
I709
tp844
a(I6
I878
tp845
a(I2
I253
tp846
a(I99
I936
tp847
aa(lp848
(I44
I677
tp849
a(I15
I300
tp850
a(I35
I373
tp851
a(I4
I162
tp852
a(I37
I271
tp853
a(I7
I151
tp854
a(I27
I538
tp855
a(I12
I612
tp856
a(I72
I450
tp857
a(I74
I847
tp858
aa(lp859
(I17
I521
tp860
a(I1
I276
tp861
a(I4
I196
tp862
a(I50
I426
tp863
a(I8
I535
tp864
a(I54
I408
tp865
a(I90
I676
tp866
a(I16
I924
tp867
a(I72
I625
tp868
a(I106
I684
tp869
aa(lp870
(I18
I290
tp871
a(I12
I222
tp872
a(I25
I729
tp873
a(I28
I498
tp874
a(I17
I935
tp875
a(I41
I524
tp876
a(I27
I445
tp877
a(I279
I841
tp878
a(I6
I880
tp879
a(I9
I251
tp880
aa(lp881
(I34
I721
tp882
a(I29
I270
tp883
a(I20
I853
tp884
a(I1
I683
tp885
a(I39
I657
tp886
a(I26
I810
tp887
a(I163
I555
tp888
a(I28
I794
tp889
a(I26
I291
tp890
a(I27
I515
tp891
aa(lp892
(I36
I322
tp893
a(I20
I678
tp894
a(I3
I149
tp895
a(I37
I129
tp896
a(I19
I573
tp897
a(I45
I712
tp898
a(I55
I725
tp899
a(I34
I435
tp900
a(I1
I632
tp901
a(I38
I973
tp902
aa(lp903
(I182
I739
tp904
a(I42
I652
tp905
a(I4
I795
tp906
a(I19
I583
tp907
a(I32
I787
tp908
a(I2
I399
tp909
a(I44
I392
tp910
a(I93
I875
tp911
a(I1
I297
tp912
a(I38
I294
tp913
aa(lp914
(I90
I915
tp915
a(I114
I854
tp916
a(I1
I446
tp917
a(I20
I167
tp918
a(I49
I909
tp919
a(I3
I132
tp920
a(I13
I632
tp921
a(I7
I411
tp922
a(I102
I831
tp923
a(I92
I626
tp924
aa(lp925
(I52
I494
tp926
a(I20
I297
tp927
a(I4
I129
tp928
a(I3
I239
tp929
a(I25
I141
tp930
a(I37
I751
tp931
a(I44
I957
tp932
a(I84
I668
tp933
a(I3
I458
tp934
a(I14
I136
tp935
aa(lp936
(I142
I776
tp937
a(I3
I105
tp938
a(I33
I392
tp939
a(I18
I621
tp940
a(I3
I302
tp941
a(I110
I778
tp942
a(I7
I360
tp943
a(I155
I726
tp944
a(I6
I286
tp945
a(I3
I723
tp946
aa(lp947
(I59
I894
tp948
a(I4
I480
tp949
a(I7
I189
tp950
a(I37
I665
tp951
a(I6
I347
tp952
a(I20
I484
tp953
a(I10
I570
tp954
a(I68
I848
tp955
a(I13
I179
tp956
a(I94
I278
tp957
aa(lp958
(I3
I430
tp959
a(I12
I362
tp960
a(I33
I112
tp961
a(I14
I947
tp962
a(I62
I505
tp963
a(I53
I882
tp964
a(I34
I896
tp965
a(I17
I364
tp966
a(I78
I898
tp967
a(I5
I199
tp968
aa(lp969
(I2
I119
tp970
a(I180
I795
tp971
a(I29
I979
tp972
a(I18
I282
tp973
a(I31
I501
tp974
a(I108
I980
tp975
a(I59
I593
tp976
a(I23
I370
tp977
a(I36
I545
tp978
a(I1
I489
tp979
aa(lp980
(I7
I163
tp981
a(I100
I919
tp982
a(I47
I274
tp983
a(I2
I438
tp984
a(I50
I578
tp985
a(I22
I940
tp986
a(I133
I585
tp987
a(I3
I311
tp988
a(I34
I584
tp989
a(I1
I404
tp990
aa(lp991
(I8
I647
tp992
a(I67
I748
tp993
a(I3
I964
tp994
a(I35
I214
tp995
a(I51
I469
tp996
a(I14
I673
tp997
a(I67
I847
tp998
a(I35
I674
tp999
a(I14
I204
tp1000
a(I57
I400
tp1001
aa(lp1002
(I81
I707
tp1003
a(I88
I581
tp1004
a(I1
I906
tp1005
a(I8
I211
tp1006
a(I120
I600
tp1007
a(I105
I739
tp1008
a(I20
I674
tp1009
a(I1
I727
tp1010
a(I31
I989
tp1011
a(I15
I447
tp1012
aa(lp1013
(I62
I207
tp1014
a(I52
I781
tp1015
a(I10
I488
tp1016
a(I99
I988
tp1017
a(I71
I823
tp1018
a(I7
I287
tp1019
a(I4
I828
tp1020
a(I67
I965
tp1021
a(I29
I854
tp1022
a(I19
I614
tp1023
aa(lp1024
(I13
I526
tp1025
a(I21
I656
tp1026
a(I65
I642
tp1027
a(I62
I911
tp1028
a(I64
I939
tp1029
a(I22
I156
tp1030
a(I33
I480
tp1031
a(I58
I765
tp1032
a(I34
I546
tp1033
a(I12
I124
tp1034
aa(lp1035
(I22
I293
tp1036
a(I20
I558
tp1037
a(I147
I867
tp1038
a(I27
I646
tp1039
a(I7
I529
tp1040
a(I23
I494
tp1041
a(I3
I452
tp1042
a(I18
I131
tp1043
a(I62
I569
tp1044
a(I71
I683
tp1045
aa(lp1046
(I32
I282
tp1047
a(I11
I642
tp1048
a(I3
I183
tp1049
a(I10
I395
tp1050
a(I143
I919
tp1051
a(I22
I166
tp1052
a(I10
I921
tp1053
a(I149
I860
tp1054
a(I9
I584
tp1055
a(I42
I536
tp1056
aa(lp1057
(I32
I424
tp1058
a(I87
I913
tp1059
a(I17
I550
tp1060
a(I10
I219
tp1061
a(I169
I847
tp1062
a(I31
I809
tp1063
a(I86
I803
tp1064
a(I9
I161
tp1065
a(I1
I216
tp1066
a(I80
I840
tp1067
aa(lp1068
(I3
I101
tp1069
a(I38
I978
tp1070
a(I15
I146
tp1071
a(I16
I412
tp1072
a(I49
I736
tp1073
a(I14
I374
tp1074
a(I232
I966
tp1075
a(I41
I397
tp1076
a(I28
I396
tp1077
a(I6
I800
tp1078
aa(lp1079
(I25
I819
tp1080
a(I43
I139
tp1081
a(I1
I121
tp1082
a(I3
I114
tp1083
a(I19
I258
tp1084
a(I35
I802
tp1085
a(I18
I197
tp1086
a(I19
I410
tp1087
a(I75
I827
tp1088
a(I8
I578
tp1089
aa(lp1090
(I64
I700
tp1091
a(I25
I508
tp1092
a(I20
I255
tp1093
a(I14
I256
tp1094
a(I39
I649
tp1095
a(I2
I108
tp1096
a(I18
I707
tp1097
a(I19
I761
tp1098
a(I74
I668
tp1099
a(I99
I446
tp1100
aa(lp1101
(I68
I761
tp1102
a(I1
I963
tp1103
a(I45
I737
tp1104
a(I51
I226
tp1105
a(I26
I468
tp1106
a(I3
I232
tp1107
a(I33
I643
tp1108
a(I71
I794
tp1109
a(I51
I910
tp1110
a(I48
I489
tp1111
aa(lp1112
(I1
I355
tp1113
a(I10
I130
tp1114
a(I20
I228
tp1115
a(I52
I331
tp1116
a(I19
I778
tp1117
a(I77
I946
tp1118
a(I30
I508
tp1119
a(I26
I557
tp1120
a(I53
I755
tp1121
a(I137
I989
tp1122
aa(lp1123
(I1
I117
tp1124
a(I36
I317
tp1125
a(I3
I118
tp1126
a(I1
I212
tp1127
a(I28
I121
tp1128
a(I24
I272
tp1129
a(I8
I311
tp1130
a(I16
I430
tp1131
a(I7
I171
tp1132
a(I23
I142
tp1133
aa(lp1134
(I50
I371
tp1135
a(I40
I266
tp1136
a(I59
I568
tp1137
a(I16
I750
tp1138
a(I26
I213
tp1139
a(I46
I558
tp1140
a(I1
I259
tp1141
a(I18
I486
tp1142
a(I47
I951
tp1143
a(I29
I915
tp1144
aa(lp1145
(I1
I110
tp1146
a(I56
I737
tp1147
a(I39
I689
tp1148
a(I35
I367
tp1149
a(I28
I329
tp1150
a(I11
I132
tp1151
a(I44
I347
tp1152
a(I57
I709
tp1153
a(I47
I466
tp1154
a(I31
I927
tp1155
aa(lp1156
(I55
I978
tp1157
a(I8
I302
tp1158
a(I43
I847
tp1159
a(I85
I413
tp1160
a(I41
I807
tp1161
a(I8
I614
tp1162
a(I23
I951
tp1163
a(I69
I658
tp1164
a(I156
I860
tp1165
a(I19
I668
tp1166
aa(lp1167
(I8
I220
tp1168
a(I45
I559
tp1169
a(I11
I451
tp1170
a(I2
I245
tp1171
a(I12
I232
tp1172
a(I2
I577
tp1173
a(I92
I314
tp1174
a(I11
I571
tp1175
a(I109
I727
tp1176
a(I40
I578
tp1177
aa(lp1178
(I98
I682
tp1179
a(I46
I873
tp1180
a(I24
I280
tp1181
a(I15
I199
tp1182
a(I9
I357
tp1183
a(I62
I841
tp1184
a(I116
I865
tp1185
a(I24
I859
tp1186
a(I18
I900
tp1187
a(I94
I931
tp1188
aa(lp1189
(I30
I113
tp1190
a(I2
I196
tp1191
a(I31
I282
tp1192
a(I111
I732
tp1193
a(I7
I819
tp1194
a(I70
I741
tp1195
a(I6
I263
tp1196
a(I5
I486
tp1197
a(I14
I309
tp1198
a(I6
I622
tp1199
aa(lp1200
(I132
I660
tp1201
a(I35
I640
tp1202
a(I41
I854
tp1203
a(I38
I840
tp1204
a(I10
I917
tp1205
a(I7
I128
tp1206
a(I21
I848
tp1207
a(I141
I836
tp1208
a(I27
I907
tp1209
a(I55
I513
tp1210
aa(lp1211
(I4
I102
tp1212
a(I38
I853
tp1213
a(I91
I680
tp1214
a(I61
I885
tp1215
a(I39
I787
tp1216
a(I29
I477
tp1217
a(I28
I642
tp1218
a(I3
I122
tp1219
a(I126
I615
tp1220
a(I10
I160
tp1221
aa(lp1222
(I15
I455
tp1223
a(I37
I408
tp1224
a(I1
I401
tp1225
a(I12
I857
tp1226
a(I24
I712
tp1227
a(I22
I579
tp1228
a(I44
I557
tp1229
a(I44
I249
tp1230
a(I29
I961
tp1231
a(I116
I479
tp1232
aa(lp1233
(I1
I263
tp1234
a(I1
I223
tp1235
a(I279
I888
tp1236
a(I54
I961
tp1237
a(I50
I421
tp1238
a(I117
I658
tp1239
a(I20
I617
tp1240
a(I9
I797
tp1241
a(I2
I497
tp1242
a(I13
I650
tp1243
aa(lp1244
(I7
I645
tp1245
a(I16
I838
tp1246
a(I4
I648
tp1247
a(I16
I259
tp1248
a(I127
I974
tp1249
a(I35
I411
tp1250
a(I39
I264
tp1251
a(I54
I395
tp1252
a(I14
I361
tp1253
a(I17
I167
tp1254
aa(lp1255
(I17
I655
tp1256
a(I6
I904
tp1257
a(I66
I869
tp1258
a(I104
I466
tp1259
a(I24
I361
tp1260
a(I24
I275
tp1261
a(I28
I619
tp1262
a(I20
I365
tp1263
a(I7
I183
tp1264
a(I85
I739
tp1265
aa(lp1266
(I41
I756
tp1267
a(I3
I244
tp1268
a(I46
I822
tp1269
a(I53
I775
tp1270
a(I40
I285
tp1271
a(I16
I514
tp1272
a(I22
I166
tp1273
a(I135
I853
tp1274
a(I16
I203
tp1275
a(I1
I461
tp1276
aa(lp1277
(I29
I339
tp1278
a(I24
I649
tp1279
a(I41
I516
tp1280
a(I30
I732
tp1281
a(I66
I851
tp1282
a(I1
I141
tp1283
a(I117
I889
tp1284
a(I66
I395
tp1285
a(I52
I638
tp1286
a(I20
I552
tp1287
aa(lp1288
(I1
I157
tp1289
a(I212
I762
tp1290
a(I59
I706
tp1291
a(I41
I607
tp1292
a(I105
I911
tp1293
a(I3
I359
tp1294
a(I45
I649
tp1295
a(I7
I225
tp1296
a(I41
I962
tp1297
a(I12
I344
tp1298
aa(lp1299
(I8
I283
tp1300
a(I15
I378
tp1301
a(I12
I842
tp1302
a(I58
I478
tp1303
a(I5
I113
tp1304
a(I5
I520
tp1305
a(I110
I826
tp1306
a(I91
I662
tp1307
a(I45
I233
tp1308
a(I1
I205
tp1309
aa(lp1310
(I15
I180
tp1311
a(I19
I604
tp1312
a(I12
I410
tp1313
a(I14
I176
tp1314
a(I1
I254
tp1315
a(I32
I863
tp1316
a(I64
I579
tp1317
a(I114
I693
tp1318
a(I102
I902
tp1319
a(I84
I954
tp1320
aa(lp1321
(I3
I381
tp1322
a(I178
I719
tp1323
a(I13
I368
tp1324
a(I123
I967
tp1325
a(I8
I505
tp1326
a(I9
I696
tp1327
a(I35
I638
tp1328
a(I66
I433
tp1329
a(I5
I310
tp1330
a(I71
I990
tp1331
aa(lp1332
(I31
I225
tp1333
a(I46
I933
tp1334
a(I111
I851
tp1335
a(I66
I441
tp1336
a(I91
I763
tp1337
a(I13
I515
tp1338
a(I60
I548
tp1339
a(I3
I792
tp1340
a(I11
I953
tp1341
a(I2
I865
tp1342
aa(lp1343
(I15
I973
tp1344
a(I36
I997
tp1345
a(I10
I176
tp1346
a(I52
I287
tp1347
a(I31
I515
tp1348
a(I71
I790
tp1349
a(I102
I986
tp1350
a(I49
I986
tp1351
a(I79
I588
tp1352
a(I5
I341
tp1353
aa(lp1354
(I8
I118
tp1355
a(I7
I593
tp1356
a(I2
I150
tp1357
a(I16
I332
tp1358
a(I121
I927
tp1359
a(I39
I451
tp1360
a(I15
I373
tp1361
a(I23
I791
tp1362
a(I98
I397
tp1363
a(I40
I624
tp1364
aa(lp1365
(I58
I918
tp1366
a(I63
I478
tp1367
a(I46
I973
tp1368
a(I23
I364
tp1369
a(I221
I687
tp1370
a(I8
I199
tp1371
a(I15
I593
tp1372
a(I8
I742
tp1373
a(I4
I125
tp1374
a(I1
I258
tp1375
aa(lp1376
(I14
I859
tp1377
a(I41
I989
tp1378
a(I30
I824
tp1379
a(I103
I550
tp1380
a(I27
I824
tp1381
a(I14
I516
tp1382
a(I5
I488
tp1383
a(I19
I332
tp1384
a(I25
I367
tp1385
a(I78
I296
tp1386
aa(lp1387
(I66
I947
tp1388
a(I2
I256
tp1389
a(I1
I108
tp1390
a(I68
I873
tp1391
a(I61
I396
tp1392
a(I2
I896
tp1393
a(I32
I906
tp1394
a(I143
I524
tp1395
a(I27
I579
tp1396
a(I19
I273
tp1397
aa(lp1398
(I107
I397
tp1399
a(I3
I285
tp1400
a(I91
I472
tp1401
a(I27
I348
tp1402
a(I45
I607
tp1403
a(I5
I733
tp1404
a(I1
I331
tp1405
a(I1
I991
tp1406
a(I3
I190
tp1407
a(I50
I557
tp1408
aa(lp1409
(I44
I656
tp1410
a(I18
I348
tp1411
a(I2
I288
tp1412
a(I1
I475
tp1413
a(I2
I396
tp1414
a(I79
I476
tp1415
a(I55
I774
tp1416
a(I11
I484
tp1417
a(I67
I870
tp1418
a(I174
I645
tp1419
aa(lp1420
(I10
I523
tp1421
a(I31
I562
tp1422
a(I55
I659
tp1423
a(I69
I916
tp1424
a(I110
I688
tp1425
a(I111
I794
tp1426
a(I60
I738
tp1427
a(I35
I525
tp1428
a(I21
I393
tp1429
a(I7
I824
tp1430
aa(lp1431
(I16
I412
tp1432
a(I3
I443
tp1433
a(I13
I184
tp1434
a(I43
I484
tp1435
a(I73
I855
tp1436
a(I3
I259
tp1437
a(I72
I481
tp1438
a(I160
I629
tp1439
a(I1
I512
tp1440
a(I25
I848
tp1441
aa(lp1442
(I100
I920
tp1443
a(I227
I950
tp1444
a(I45
I611
tp1445
a(I109
I939
tp1446
a(I24
I225
tp1447
a(I9
I596
tp1448
a(I25
I625
tp1449
a(I2
I355
tp1450
a(I3
I110
tp1451
a(I6
I844
tp1452
aa(lp1453
(I146
I967
tp1454
a(I117
I963
tp1455
a(I10
I181
tp1456
a(I5
I411
tp1457
a(I2
I669
tp1458
a(I50
I918
tp1459
a(I13
I281
tp1460
a(I13
I432
tp1461
a(I10
I300
tp1462
a(I179
I767
tp1463
aa(lp1464
(I1
I415
tp1465
a(I231
I687
tp1466
a(I28
I528
tp1467
a(I17
I763
tp1468
a(I62
I857
tp1469
a(I15
I379
tp1470
a(I2
I401
tp1471
a(I21
I336
tp1472
a(I8
I164
tp1473
a(I50
I545
tp1474
aa(lp1475
(I16
I782
tp1476
a(I31
I627
tp1477
a(I23
I448
tp1478
a(I71
I551
tp1479
a(I1
I196
tp1480
a(I9
I710
tp1481
a(I1
I870
tp1482
a(I53
I655
tp1483
a(I126
I517
tp1484
a(I126
I827
tp1485
aa(lp1486
(I51
I699
tp1487
a(I21
I525
tp1488
a(I32
I844
tp1489
a(I28
I805
tp1490
a(I13
I201
tp1491
a(I128
I557
tp1492
a(I25
I505
tp1493
a(I4
I727
tp1494
a(I82
I655
tp1495
a(I54
I704
tp1496
aa(lp1497
(I53
I535
tp1498
a(I1
I364
tp1499
a(I38
I658
tp1500
a(I92
I225
tp1501
a(I28
I774
tp1502
a(I24
I673
tp1503
a(I12
I332
tp1504
a(I1
I276
tp1505
a(I11
I265
tp1506
a(I10
I485
tp1507
aa(lp1508
(I6
I521
tp1509
a(I70
I912
tp1510
a(I15
I139
tp1511
a(I72
I557
tp1512
a(I88
I575
tp1513
a(I19
I707
tp1514
a(I13
I473
tp1515
a(I65
I923
tp1516
a(I10
I146
tp1517
a(I9
I142
tp1518
aa(lp1519
(I16
I190
tp1520
a(I26
I992
tp1521
a(I8
I111
tp1522
a(I27
I448
tp1523
a(I3
I128
tp1524
a(I40
I606
tp1525
a(I71
I951
tp1526
a(I115
I914
tp1527
a(I10
I856
tp1528
a(I45
I242
tp1529
aa(lp1530
(I32
I448
tp1531
a(I19
I584
tp1532
a(I29
I601
tp1533
a(I44
I900
tp1534
a(I15
I480
tp1535
a(I73
I638
tp1536
a(I151
I775
tp1537
a(I14
I148
tp1538
a(I26
I271
tp1539
a(I1
I442
tp1540
aa(lp1541
(I19
I435
tp1542
a(I2
I416
tp1543
a(I94
I297
tp1544
a(I11
I883
tp1545
a(I11
I910
tp1546
a(I5
I646
tp1547
a(I58
I674
tp1548
a(I181
I996
tp1549
a(I1
I176
tp1550
a(I43
I561
tp1551
aa(lp1552
(I1
I772
tp1553
a(I91
I769
tp1554
a(I21
I523
tp1555
a(I26
I763
tp1556
a(I1
I870
tp1557
a(I90
I804
tp1558
a(I185
I883
tp1559
a(I13
I638
tp1560
a(I19
I738
tp1561
a(I126
I689
tp1562
aa(lp1563
(I173
I650
tp1564
a(I13
I287
tp1565
a(I18
I479
tp1566
a(I2
I230
tp1567
a(I3
I233
tp1568
a(I90
I653
tp1569
a(I35
I377
tp1570
a(I3
I725
tp1571
a(I6
I234
tp1572
a(I40
I391
tp1573
aa(lp1574
(I8
I854
tp1575
a(I15
I264
tp1576
a(I10
I332
tp1577
a(I273
I962
tp1578
a(I6
I344
tp1579
a(I34
I180
tp1580
a(I8
I390
tp1581
a(I15
I757
tp1582
a(I83
I794
tp1583
a(I1
I203
tp1584
aa(lp1585
(I30
I305
tp1586
a(I73
I643
tp1587
a(I207
I853
tp1588
a(I12
I523
tp1589
a(I1
I129
tp1590
a(I13
I155
tp1591
a(I8
I587
tp1592
a(I5
I247
tp1593
a(I19
I400
tp1594
a(I15
I182
tp1595
aa(lp1596
(I2
I694
tp1597
a(I18
I726
tp1598
a(I31
I228
tp1599
a(I54
I657
tp1600
a(I48
I634
tp1601
a(I9
I403
tp1602
a(I19
I977
tp1603
a(I30
I594
tp1604
a(I126
I914
tp1605
a(I50
I263
tp1606
aa(lp1607
(I3
I884
tp1608
a(I133
I559
tp1609
a(I6
I958
tp1610
a(I3
I167
tp1611
a(I7
I534
tp1612
a(I143
I761
tp1613
a(I12
I889
tp1614
a(I118
I984
tp1615
a(I73
I669
tp1616
a(I11
I351
tp1617
aa(lp1618
(I3
I411
tp1619
a(I4
I247
tp1620
a(I42
I654
tp1621
a(I14
I592
tp1622
a(I18
I371
tp1623
a(I171
I363
tp1624
a(I1
I699
tp1625
a(I44
I966
tp1626
a(I32
I732
tp1627
a(I5
I278
tp1628
aa(lp1629
(I10
I523
tp1630
a(I63
I426
tp1631
a(I132
I820
tp1632
a(I95
I743
tp1633
a(I28
I509
tp1634
a(I58
I733
tp1635
a(I6
I783
tp1636
a(I54
I722
tp1637
a(I15
I804
tp1638
a(I17
I310
tp1639
aa(lp1640
(I16
I281
tp1641
a(I31
I168
tp1642
a(I19
I404
tp1643
a(I18
I928
tp1644
a(I5
I245
tp1645
a(I68
I700
tp1646
a(I12
I106
tp1647
a(I106
I917
tp1648
a(I11
I200
tp1649
a(I11
I435
tp1650
aa(lp1651
(I5
I592
tp1652
a(I3
I541
tp1653
a(I137
I987
tp1654
a(I100
I869
tp1655
a(I48
I491
tp1656
a(I34
I987
tp1657
a(I1
I413
tp1658
a(I98
I799
tp1659
a(I33
I603
tp1660
a(I57
I350
tp1661
aa(lp1662
(I54
I430
tp1663
a(I6
I455
tp1664
a(I66
I943
tp1665
a(I90
I450
tp1666
a(I25
I124
tp1667
a(I16
I285
tp1668
a(I1
I407
tp1669
a(I14
I898
tp1670
a(I12
I430
tp1671
a(I9
I361
tp1672
aa(lp1673
(I22
I882
tp1674
a(I20
I813
tp1675
a(I15
I915
tp1676
a(I142
I464
tp1677
a(I9
I179
tp1678
a(I44
I350
tp1679
a(I28
I460
tp1680
a(I36
I669
tp1681
a(I19
I600
tp1682
a(I33
I728
tp1683
aa(lp1684
(I70
I715
tp1685
a(I8
I627
tp1686
a(I5
I226
tp1687
a(I34
I291
tp1688
a(I41
I501
tp1689
a(I83
I927
tp1690
a(I21
I637
tp1691
a(I115
I906
tp1692
a(I35
I361
tp1693
a(I55
I934
tp1694
aa(lp1695
(I21
I812
tp1696
a(I7
I304
tp1697
a(I16
I500
tp1698
a(I19
I489
tp1699
a(I26
I416
tp1700
a(I27
I365
tp1701
a(I16
I505
tp1702
a(I82
I704
tp1703
a(I205
I634
tp1704
a(I4
I353
tp1705
aa(lp1706
(I42
I795
tp1707
a(I21
I674
tp1708
a(I17
I395
tp1709
a(I42
I639
tp1710
a(I5
I134
tp1711
a(I71
I897
tp1712
a(I23
I938
tp1713
a(I13
I182
tp1714
a(I38
I329
tp1715
a(I45
I204
tp1716
aa(lp1717
(I16
I436
tp1718
a(I11
I140
tp1719
a(I11
I214
tp1720
a(I31
I558
tp1721
a(I35
I631
tp1722
a(I19
I289
tp1723
a(I7
I129
tp1724
a(I59
I566
tp1725
a(I41
I708
tp1726
a(I158
I927
tp1727
aa(lp1728
(I4
I357
tp1729
a(I39
I784
tp1730
a(I12
I320
tp1731
a(I1
I322
tp1732
a(I95
I597
tp1733
a(I1
I228
tp1734
a(I17
I135
tp1735
a(I173
I757
tp1736
a(I90
I989
tp1737
a(I26
I715
tp1738
aa(lp1739
(I7
I160
tp1740
a(I8
I117
tp1741
a(I132
I387
tp1742
a(I4
I402
tp1743
a(I28
I996
tp1744
a(I21
I669
tp1745
a(I75
I784
tp1746
a(I13
I253
tp1747
a(I22
I552
tp1748
a(I10
I429
tp1749
aa(lp1750
(I4
I244
tp1751
a(I20
I198
tp1752
a(I1
I777
tp1753
a(I14
I109
tp1754
a(I16
I237
tp1755
a(I62
I456
tp1756
a(I32
I239
tp1757
a(I3
I455
tp1758
a(I47
I782
tp1759
a(I44
I525
tp1760
aa(lp1761
(I1
I998
tp1762
a(I80
I515
tp1763
a(I12
I572
tp1764
a(I7
I753
tp1765
a(I181
I986
tp1766
a(I27
I592
tp1767
a(I17
I214
tp1768
a(I10
I518
tp1769
a(I21
I125
tp1770
a(I27
I461
tp1771
aa(lp1772
(I12
I128
tp1773
a(I63
I808
tp1774
a(I4
I672
tp1775
a(I25
I345
tp1776
a(I6
I609
tp1777
a(I40
I802
tp1778
a(I15
I419
tp1779
a(I122
I457
tp1780
a(I11
I505
tp1781
a(I61
I591
tp1782
aa(lp1783
(I43
I897
tp1784
a(I1
I867
tp1785
a(I39
I813
tp1786
a(I28
I404
tp1787
a(I21
I372
tp1788
a(I63
I244
tp1789
a(I54
I745
tp1790
a(I2
I286
tp1791
a(I61
I551
tp1792
a(I17
I247
tp1793
aa(lp1794
(I10
I108
tp1795
a(I110
I449
tp1796
a(I48
I472
tp1797
a(I92
I973
tp1798
a(I11
I538
tp1799
a(I3
I328
tp1800
a(I28
I986
tp1801
a(I78
I890
tp1802
a(I6
I992
tp1803
a(I50
I931
tp1804
aa(lp1805
(I9
I419
tp1806
a(I4
I717
tp1807
a(I15
I750
tp1808
a(I70
I510
tp1809
a(I3
I723
tp1810
a(I1
I133
tp1811
a(I117
I668
tp1812
a(I123
I728
tp1813
a(I9
I187
tp1814
a(I20
I125
tp1815
aa(lp1816
(I7
I124
tp1817
a(I10
I124
tp1818
a(I39
I696
tp1819
a(I29
I389
tp1820
a(I289
I946
tp1821
a(I1
I368
tp1822
a(I12
I406
tp1823
a(I27
I342
tp1824
a(I16
I817
tp1825
a(I25
I961
tp1826
aa(lp1827
(I73
I636
tp1828
a(I22
I595
tp1829
a(I5
I508
tp1830
a(I6
I838
tp1831
a(I8
I492
tp1832
a(I148
I815
tp1833
a(I6
I140
tp1834
a(I8
I767
tp1835
a(I12
I672
tp1836
a(I114
I379
tp1837
aa(lp1838
(I164
I830
tp1839
a(I14
I167
tp1840
a(I1
I200
tp1841
a(I29
I684
tp1842
a(I20
I886
tp1843
a(I24
I280
tp1844
a(I21
I651
tp1845
a(I18
I433
tp1846
a(I7
I101
tp1847
a(I133
I803
tp1848
aa(lp1849
(I54
I432
tp1850
a(I55
I524
tp1851
a(I21
I246
tp1852
a(I38
I630
tp1853
a(I14
I811
tp1854
a(I6
I301
tp1855
a(I41
I657
tp1856
a(I27
I736
tp1857
a(I40
I943
tp1858
a(I87
I473
tp1859
aa(lp1860
(I1
I270
tp1861
a(I87
I936
tp1862
a(I33
I924
tp1863
a(I58
I388
tp1864
a(I13
I566
tp1865
a(I2
I210
tp1866
a(I56
I354
tp1867
a(I8
I475
tp1868
a(I29
I164
tp1869
a(I27
I400
tp1870
aa(lp1871
(I20
I533
tp1872
a(I1
I527
tp1873
a(I100
I210
tp1874
a(I2
I249
tp1875
a(I6
I107
tp1876
a(I1
I462
tp1877
a(I29
I782
tp1878
a(I2
I137
tp1879
a(I18
I661
tp1880
a(I31
I428
tp1881
aa(lp1882
(I44
I754
tp1883
a(I12
I437
tp1884
a(I19
I664
tp1885
a(I1
I157
tp1886
a(I90
I447
tp1887
a(I28
I646
tp1888
a(I185
I975
tp1889
a(I31
I757
tp1890
a(I26
I583
tp1891
a(I10
I111
tp1892
aa(lp1893
(I114
I549
tp1894
a(I119
I351
tp1895
a(I8
I343
tp1896
a(I2
I356
tp1897
a(I42
I561
tp1898
a(I4
I457
tp1899
a(I2
I263
tp1900
a(I10
I938
tp1901
a(I32
I888
tp1902
a(I20
I788
tp1903
aa(lp1904
(I25
I352
tp1905
a(I52
I358
tp1906
a(I64
I701
tp1907
a(I5
I148
tp1908
a(I29
I959
tp1909
a(I26
I406
tp1910
a(I50
I197
tp1911
a(I5
I395
tp1912
a(I24
I684
tp1913
a(I2
I525
tp1914
aa(lp1915
(I3
I881
tp1916
a(I13
I478
tp1917
a(I63
I599
tp1918
a(I36
I712
tp1919
a(I1
I577
tp1920
a(I60
I644
tp1921
a(I80
I515
tp1922
a(I32
I407
tp1923
a(I43
I661
tp1924
a(I34
I214
tp1925
aa(lp1926
(I52
I602
tp1927
a(I8
I279
tp1928
a(I63
I727
tp1929
a(I55
I786
tp1930
a(I21
I403
tp1931
a(I75
I360
tp1932
a(I3
I294
tp1933
a(I36
I877
tp1934
a(I18
I363
tp1935
a(I53
I494
tp1936
aa(lp1937
(I103
I548
tp1938
a(I45
I463
tp1939
a(I1
I161
tp1940
a(I86
I902
tp1941
a(I57
I797
tp1942
a(I53
I775
tp1943
a(I7
I179
tp1944
a(I9
I634
tp1945
a(I79
I718
tp1946
a(I40
I773
tp1947
aa(lp1948
(I182
I931
tp1949
a(I21
I902
tp1950
a(I7
I109
tp1951
a(I53
I922
tp1952
a(I120
I915
tp1953
a(I9
I688
tp1954
a(I4
I759
tp1955
a(I26
I575
tp1956
a(I28
I419
tp1957
a(I119
I880
tp1958
aa(lp1959
(I1
I167
tp1960
a(I54
I850
tp1961
a(I9
I802
tp1962
a(I36
I404
tp1963
a(I49
I597
tp1964
a(I23
I371
tp1965
a(I134
I418
tp1966
a(I24
I405
tp1967
a(I28
I659
tp1968
a(I2
I548
tp1969
aa(lp1970
(I14
I587
tp1971
a(I5
I167
tp1972
a(I8
I359
tp1973
a(I29
I770
tp1974
a(I76
I711
tp1975
a(I4
I286
tp1976
a(I6
I660
tp1977
a(I15
I138
tp1978
a(I121
I831
tp1979
a(I188
I780
tp1980
aa(lp1981
(I144
I959
tp1982
a(I20
I883
tp1983
a(I72
I753
tp1984
a(I14
I861
tp1985
a(I15
I624
tp1986
a(I41
I958
tp1987
a(I17
I376
tp1988
a(I124
I505
tp1989
a(I41
I643
tp1990
a(I25
I663
tp1991
aa(lp1992
(I9
I154
tp1993
a(I33
I683
tp1994
a(I3
I926
tp1995
a(I4
I400
tp1996
a(I53
I536
tp1997
a(I205
I711
tp1998
a(I76
I432
tp1999
a(I6
I777
tp2000
a(I18
I412
tp2001
a(I3
I458
tp2002
aa(lp2003
(I2
I673
tp2004
a(I1
I153
tp2005
a(I64
I582
tp2006
a(I7
I832
tp2007
a(I22
I212
tp2008
a(I42
I315
tp2009
a(I28
I481
tp2010
a(I63
I758
tp2011
a(I154
I863
tp2012
a(I18
I352
tp2013
aa(lp2014
(I1
I868
tp2015
a(I11
I926
tp2016
a(I73
I388
tp2017
a(I2
I291
tp2018
a(I39
I230
tp2019
a(I24
I286
tp2020
a(I21
I749
tp2021
a(I69
I589
tp2022
a(I42
I724
tp2023
a(I67
I874
tp2024
aa(lp2025
(I46
I149
tp2026
a(I30
I816
tp2027
a(I111
I742
tp2028
a(I8
I743
tp2029
a(I29
I921
tp2030
a(I29
I355
tp2031
a(I4
I612
tp2032
a(I38
I964
tp2033
a(I4
I348
tp2034
a(I10
I167
tp2035
aa(lp2036
(I66
I711
tp2037
a(I8
I179
tp2038
a(I33
I617
tp2039
a(I9
I913
tp2040
a(I8
I261
tp2041
a(I11
I261
tp2042
a(I31
I147
tp2043
a(I21
I244
tp2044
a(I7
I537
tp2045
a(I61
I396
tp2046
aa(lp2047
(I28
I360
tp2048
a(I90
I361
tp2049
a(I32
I555
tp2050
a(I9
I149
tp2051
a(I58
I656
tp2052
a(I22
I260
tp2053
a(I11
I239
tp2054
a(I29
I984
tp2055
a(I19
I856
tp2056
a(I10
I550
tp2057
aa(lp2058
(I13
I445
tp2059
a(I5
I330
tp2060
a(I6
I665
tp2061
a(I11
I307
tp2062
a(I131
I590
tp2063
a(I8
I215
tp2064
a(I7
I276
tp2065
a(I15
I125
tp2066
a(I95
I411
tp2067
a(I3
I349
tp2068
aa(lp2069
(I60
I625
tp2070
a(I9
I171
tp2071
a(I44
I792
tp2072
a(I107
I515
tp2073
a(I66
I693
tp2074
a(I131
I713
tp2075
a(I8
I600
tp2076
a(I10
I650
tp2077
a(I3
I491
tp2078
a(I11
I673
tp2079
aa(lp2080
(I25
I516
tp2081
a(I9
I241
tp2082
a(I55
I556
tp2083
a(I16
I981
tp2084
a(I85
I670
tp2085
a(I2
I130
tp2086
a(I93
I616
tp2087
a(I75
I926
tp2088
a(I5
I150
tp2089
a(I59
I461
tp2090
aa(lp2091
(I79
I996
tp2092
a(I45
I900
tp2093
a(I11
I355
tp2094
a(I6
I341
tp2095
a(I1
I577
tp2096
a(I99
I516
tp2097
a(I2
I561
tp2098
a(I69
I823
tp2099
a(I170
I711
tp2100
a(I17
I408
tp2101
aa(lp2102
(I87
I602
tp2103
a(I65
I777
tp2104
a(I25
I567
tp2105
a(I41
I932
tp2106
a(I58
I613
tp2107
a(I6
I164
tp2108
a(I11
I992
tp2109
a(I86
I573
tp2110
a(I28
I844
tp2111
a(I45
I451
tp2112
aa(lp2113
(I38
I739
tp2114
a(I7
I163
tp2115
a(I193
I944
tp2116
a(I98
I817
tp2117
a(I18
I250
tp2118
a(I55
I899
tp2119
a(I34
I380
tp2120
a(I29
I718
tp2121
a(I3
I228
tp2122
a(I7
I189
tp2123
aa(lp2124
(I9
I128
tp2125
a(I4
I689
tp2126
a(I78
I558
tp2127
a(I31
I200
tp2128
a(I23
I735
tp2129
a(I10
I573
tp2130
a(I56
I752
tp2131
a(I10
I150
tp2132
a(I36
I290
tp2133
a(I7
I145
tp2134
aa(lp2135
(I85
I848
tp2136
a(I9
I301
tp2137
a(I2
I339
tp2138
a(I50
I983
tp2139
a(I18
I401
tp2140
a(I7
I374
tp2141
a(I18
I619
tp2142
a(I106
I874
tp2143
a(I172
I865
tp2144
a(I104
I729
tp2145
aa(lp2146
(I82
I632
tp2147
a(I1
I981
tp2148
a(I13
I995
tp2149
a(I10
I470
tp2150
a(I8
I818
tp2151
a(I30
I917
tp2152
a(I96
I240
tp2153
a(I3
I212
tp2154
a(I3
I326
tp2155
a(I51
I476
tp2156
aa(lp2157
(I41
I716
tp2158
a(I2
I218
tp2159
a(I51
I319
tp2160
a(I94
I588
tp2161
a(I86
I751
tp2162
a(I33
I227
tp2163
a(I1
I188
tp2164
a(I9
I352
tp2165
a(I25
I990
tp2166
a(I28
I653
tp2167
aa(lp2168
(I1
I407
tp2169
a(I1
I320
tp2170
a(I220
I660
tp2171
a(I1
I211
tp2172
a(I90
I528
tp2173
a(I9
I279
tp2174
a(I3
I753
tp2175
a(I16
I197
tp2176
a(I6
I181
tp2177
a(I41
I626
tp2178
aa(lp2179
(I114
I768
tp2180
a(I1
I385
tp2181
a(I6
I155
tp2182
a(I1
I926
tp2183
a(I49
I750
tp2184
a(I69
I686
tp2185
a(I21
I642
tp2186
a(I15
I167
tp2187
a(I50
I775
tp2188
a(I65
I328
tp2189
aa(lp2190
(I40
I895
tp2191
a(I23
I282
tp2192
a(I17
I267
tp2193
a(I264
I698
tp2194
a(I44
I906
tp2195
a(I3
I286
tp2196
a(I5
I849
tp2197
a(I23
I412
tp2198
a(I1
I191
tp2199
a(I20
I409
tp2200
aa(lp2201
(I13
I782
tp2202
a(I18
I289
tp2203
a(I41
I920
tp2204
a(I4
I242
tp2205
a(I16
I377
tp2206
a(I19
I256
tp2207
a(I3
I157
tp2208
a(I94
I450
tp2209
a(I1
I189
tp2210
a(I110
I444
tp2211
aa(lp2212
(I1
I215
tp2213
a(I23
I242
tp2214
a(I46
I214
tp2215
a(I119
I800
tp2216
a(I9
I243
tp2217
a(I28
I847
tp2218
a(I53
I460
tp2219
a(I3
I515
tp2220
a(I58
I725
tp2221
a(I3
I445
tp2222
aa(lp2223
(I74
I549
tp2224
a(I1
I732
tp2225
a(I13
I237
tp2226
a(I5
I194
tp2227
a(I32
I597
tp2228
a(I148
I710
tp2229
a(I37
I559
tp2230
a(I124
I965
tp2231
a(I23
I583
tp2232
a(I24
I906
tp2233
aa(lp2234
(I16
I377
tp2235
a(I2
I163
tp2236
a(I10
I259
tp2237
a(I114
I709
tp2238
a(I17
I323
tp2239
a(I30
I320
tp2240
a(I67
I754
tp2241
a(I1
I164
tp2242
a(I29
I383
tp2243
a(I126
I779
tp2244
aa(lp2245
(I8
I310
tp2246
a(I2
I859
tp2247
a(I14
I400
tp2248
a(I43
I735
tp2249
a(I11
I357
tp2250
a(I122
I761
tp2251
a(I36
I388
tp2252
a(I13
I180
tp2253
a(I16
I210
tp2254
a(I44
I248
tp2255
aa(lp2256
(I10
I276
tp2257
a(I54
I607
tp2258
a(I136
I665
tp2259
a(I22
I509
tp2260
a(I37
I391
tp2261
a(I14
I790
tp2262
a(I56
I941
tp2263
a(I52
I368
tp2264
a(I6
I751
tp2265
a(I31
I656
tp2266
aa(lp2267
(I80
I378
tp2268
a(I2
I140
tp2269
a(I29
I296
tp2270
a(I174
I974
tp2271
a(I63
I922
tp2272
a(I5
I177
tp2273
a(I14
I413
tp2274
a(I16
I346
tp2275
a(I4
I338
tp2276
a(I35
I775
tp2277
aa(lp2278
(I2
I347
tp2279
a(I72
I340
tp2280
a(I10
I194
tp2281
a(I33
I792
tp2282
a(I1
I574
tp2283
a(I24
I301
tp2284
a(I28
I768
tp2285
a(I5
I560
tp2286
a(I19
I232
tp2287
a(I182
I843
tp2288
aa(lp2289
(I131
I932
tp2290
a(I1
I172
tp2291
a(I22
I892
tp2292
a(I99
I649
tp2293
a(I29
I491
tp2294
a(I84
I679
tp2295
a(I3
I297
tp2296
a(I21
I539
tp2297
a(I114
I811
tp2298
a(I39
I871
tp2299
aa(lp2300
(I2
I608
tp2301
a(I61
I370
tp2302
a(I9
I406
tp2303
a(I11
I695
tp2304
a(I13
I248
tp2305
a(I10
I433
tp2306
a(I4
I213
tp2307
a(I12
I869
tp2308
a(I104
I809
tp2309
a(I266
I891
tp2310
aa(lp2311
(I12
I303
tp2312
a(I69
I304
tp2313
a(I8
I223
tp2314
a(I167
I874
tp2315
a(I23
I557
tp2316
a(I23
I684
tp2317
a(I35
I926
tp2318
a(I49
I865
tp2319
a(I9
I334
tp2320
a(I37
I755
tp2321
aa(lp2322
(I11
I494
tp2323
a(I23
I511
tp2324
a(I1
I663
tp2325
a(I17
I363
tp2326
a(I37
I528
tp2327
a(I25
I225
tp2328
a(I30
I996
tp2329
a(I258
I673
tp2330
a(I2
I548
tp2331
a(I4
I185
tp2332
aa(lp2333
(I44
I377
tp2334
a(I4
I984
tp2335
a(I1
I410
tp2336
a(I39
I468
tp2337
a(I70
I833
tp2338
a(I59
I640
tp2339
a(I41
I482
tp2340
a(I83
I861
tp2341
a(I29
I488
tp2342
a(I84
I715
tp2343
aa(lp2344
(I6
I270
tp2345
a(I33
I825
tp2346
a(I59
I226
tp2347
a(I46
I468
tp2348
a(I5
I288
tp2349
a(I57
I247
tp2350
a(I9
I355
tp2351
a(I2
I451
tp2352
a(I17
I955
tp2353
a(I17
I978
tp2354
aa(lp2355
(I38
I948
tp2356
a(I93
I823
tp2357
a(I98
I749
tp2358
a(I49
I572
tp2359
a(I83
I989
tp2360
a(I23
I769
tp2361
a(I25
I300
tp2362
a(I25
I382
tp2363
a(I3
I906
tp2364
a(I56
I545
tp2365
aa(lp2366
(I84
I952
tp2367
a(I13
I946
tp2368
a(I31
I664
tp2369
a(I22
I352
tp2370
a(I54
I337
tp2371
a(I124
I867
tp2372
a(I61
I362
tp2373
a(I10
I795
tp2374
a(I5
I493
tp2375
a(I31
I888
tp2376
aa(lp2377
(I8
I157
tp2378
a(I67
I958
tp2379
a(I3
I533
tp2380
a(I18
I244
tp2381
a(I3
I425
tp2382
a(I37
I370
tp2383
a(I78
I376
tp2384
a(I25
I888
tp2385
a(I66
I920
tp2386
a(I85
I706
tp2387
aa(lp2388
(I23
I595
tp2389
a(I17
I443
tp2390
a(I36
I788
tp2391
a(I40
I901
tp2392
a(I13
I875
tp2393
a(I54
I218
tp2394
a(I57
I786
tp2395
a(I36
I347
tp2396
a(I34
I910
tp2397
a(I57
I585
tp2398
aa(lp2399
(I11
I216
tp2400
a(I8
I665
tp2401
a(I10
I774
tp2402
a(I125
I977
tp2403
a(I14
I278
tp2404
a(I8
I260
tp2405
a(I22
I123
tp2406
a(I101
I586
tp2407
a(I3
I271
tp2408
a(I86
I928
tp2409
aa(lp2410
(I16
I496
tp2411
a(I36
I271
tp2412
a(I4
I346
tp2413
a(I3
I281
tp2414
a(I20
I238
tp2415
a(I117
I642
tp2416
a(I7
I113
tp2417
a(I103
I801
tp2418
a(I38
I424
tp2419
a(I1
I624
tp2420
aa(lp2421
(I88
I674
tp2422
a(I22
I229
tp2423
a(I145
I889
tp2424
a(I24
I444
tp2425
a(I19
I805
tp2426
a(I1
I190
tp2427
a(I35
I448
tp2428
a(I42
I867
tp2429
a(I51
I498
tp2430
a(I34
I817
tp2431
aa(lp2432
(I30
I740
tp2433
a(I5
I291
tp2434
a(I6
I963
tp2435
a(I70
I678
tp2436
a(I18
I264
tp2437
a(I4
I142
tp2438
a(I17
I115
tp2439
a(I2
I583
tp2440
a(I40
I876
tp2441
a(I77
I281
tp2442
aa(lp2443
(I1
I583
tp2444
a(I41
I449
tp2445
a(I35
I106
tp2446
a(I20
I470
tp2447
a(I4
I369
tp2448
a(I5
I571
tp2449
a(I53
I313
tp2450
a(I1
I236
tp2451
a(I15
I656
tp2452
a(I25
I524
tp2453
aa(lp2454
(I1
I153
tp2455
a(I60
I506
tp2456
a(I39
I519
tp2457
a(I101
I738
tp2458
a(I15
I548
tp2459
a(I18
I964
tp2460
a(I31
I770
tp2461
a(I3
I448
tp2462
a(I63
I577
tp2463
a(I174
I872
tp2464
aa(lp2465
(I2
I165
tp2466
a(I53
I706
tp2467
a(I57
I341
tp2468
a(I43
I711
tp2469
a(I79
I960
tp2470
a(I4
I789
tp2471
a(I45
I214
tp2472
a(I55
I841
tp2473
a(I5
I293
tp2474
a(I41
I981
tp2475
aa(lp2476
(I121
I511
tp2477
a(I4
I347
tp2478
a(I18
I280
tp2479
a(I5
I109
tp2480
a(I162
I819
tp2481
a(I7
I736
tp2482
a(I42
I779
tp2483
a(I4
I259
tp2484
a(I31
I335
tp2485
a(I2
I612
tp2486
aa(lp2487
(I25
I604
tp2488
a(I14
I836
tp2489
a(I21
I775
tp2490
a(I32
I133
tp2491
a(I36
I770
tp2492
a(I39
I468
tp2493
a(I56
I580
tp2494
a(I15
I735
tp2495
a(I14
I379
tp2496
a(I37
I286
tp2497
aa(lp2498
(I3
I568
tp2499
a(I82
I902
tp2500
a(I87
I425
tp2501
a(I49
I965
tp2502
a(I5
I372
tp2503
a(I1
I395
tp2504
a(I67
I794
tp2505
a(I43
I706
tp2506
a(I78
I428
tp2507
a(I29
I633
tp2508
aa(lp2509
(I115
I854
tp2510
a(I7
I286
tp2511
a(I20
I125
tp2512
a(I2
I405
tp2513
a(I58
I971
tp2514
a(I9
I955
tp2515
a(I19
I249
tp2516
a(I93
I768
tp2517
a(I8
I134
tp2518
a(I8
I108
tp2519
aa(lp2520
(I71
I549
tp2521
a(I30
I298
tp2522
a(I41
I945
tp2523
a(I70
I533
tp2524
a(I92
I956
tp2525
a(I62
I463
tp2526
a(I7
I298
tp2527
a(I18
I974
tp2528
a(I17
I849
tp2529
a(I21
I488
tp2530
aa(lp2531
(I2
I117
tp2532
a(I5
I842
tp2533
a(I31
I715
tp2534
a(I39
I349
tp2535
a(I10
I350
tp2536
a(I7
I191
tp2537
a(I33
I118
tp2538
a(I10
I242
tp2539
a(I13
I917
tp2540
a(I83
I547
tp2541
aa(lp2542
(I50
I196
tp2543
a(I47
I701
tp2544
a(I44
I468
tp2545
a(I53
I294
tp2546
a(I35
I881
tp2547
a(I3
I562
tp2548
a(I23
I460
tp2549
a(I1
I463
tp2550
a(I35
I818
tp2551
a(I1
I542
tp2552
aa(lp2553
(I31
I920
tp2554
a(I249
I978
tp2555
a(I99
I982
tp2556
a(I7
I344
tp2557
a(I20
I410
tp2558
a(I19
I981
tp2559
a(I3
I445
tp2560
a(I51
I893
tp2561
a(I176
I985
tp2562
a(I21
I919
tp2563
aa(lp2564
(I2
I208
tp2565
a(I57
I565
tp2566
a(I37
I449
tp2567
a(I1
I380
tp2568
a(I13
I561
tp2569
a(I65
I865
tp2570
a(I7
I139
tp2571
a(I8
I686
tp2572
a(I110
I394
tp2573
a(I90
I850
tp2574
aa(lp2575
(I16
I671
tp2576
a(I33
I796
tp2577
a(I202
I667
tp2578
a(I30
I406
tp2579
a(I36
I627
tp2580
a(I36
I739
tp2581
a(I53
I415
tp2582
a(I26
I665
tp2583
a(I2
I200
tp2584
a(I8
I482
tp2585
aa(lp2586
(I10
I653
tp2587
a(I26
I452
tp2588
a(I26
I877
tp2589
a(I14
I164
tp2590
a(I62
I475
tp2591
a(I37
I762
tp2592
a(I96
I415
tp2593
a(I8
I332
tp2594
a(I107
I945
tp2595
a(I1
I477
tp2596
aa(lp2597
(I119
I710
tp2598
a(I77
I799
tp2599
a(I6
I243
tp2600
a(I7
I611
tp2601
a(I43
I833
tp2602
a(I35
I600
tp2603
a(I14
I411
tp2604
a(I7
I106
tp2605
a(I100
I584
tp2606
a(I26
I449
tp2607
aa(lp2608
(I113
I882
tp2609
a(I20
I281
tp2610
a(I29
I357
tp2611
a(I32
I449
tp2612
a(I52
I862
tp2613
a(I111
I796
tp2614
a(I57
I674
tp2615
a(I15
I231
tp2616
a(I19
I635
tp2617
a(I1
I118
tp2618
aa(lp2619
(I25
I281
tp2620
a(I13
I102
tp2621
a(I50
I587
tp2622
a(I5
I189
tp2623
a(I30
I454
tp2624
a(I7
I279
tp2625
a(I106
I487
tp2626
a(I20
I606
tp2627
a(I25
I826
tp2628
a(I28
I864
tp2629
aa(lp2630
(I37
I861
tp2631
a(I53
I668
tp2632
a(I20
I139
tp2633
a(I3
I439
tp2634
a(I12
I641
tp2635
a(I74
I857
tp2636
a(I75
I405
tp2637
a(I6
I162
tp2638
a(I24
I593
tp2639
a(I59
I628
tp2640
aa(lp2641
(I43
I251
tp2642
a(I23
I490
tp2643
a(I21
I216
tp2644
a(I4
I176
tp2645
a(I2
I922
tp2646
a(I85
I715
tp2647
a(I20
I921
tp2648
a(I2
I791
tp2649
a(I17
I103
tp2650
a(I15
I189
tp2651
aa(lp2652
(I4
I186
tp2653
a(I78
I606
tp2654
a(I188
I722
tp2655
a(I31
I324
tp2656
a(I4
I674
tp2657
a(I9
I271
tp2658
a(I42
I516
tp2659
a(I7
I443
tp2660
a(I28
I404
tp2661
a(I22
I792
tp2662
aa(lp2663
(I10
I157
tp2664
a(I257
I881
tp2665
a(I14
I267
tp2666
a(I17
I751
tp2667
a(I25
I509
tp2668
a(I1
I237
tp2669
a(I72
I741
tp2670
a(I12
I236
tp2671
a(I81
I759
tp2672
a(I1
I226
tp2673
aa(lp2674
(I31
I524
tp2675
a(I102
I842
tp2676
a(I30
I715
tp2677
a(I40
I444
tp2678
a(I69
I842
tp2679
a(I2
I954
tp2680
a(I201
I935
tp2681
a(I28
I785
tp2682
a(I36
I406
tp2683
a(I1
I264
tp2684
aa(lp2685
(I2
I727
tp2686
a(I115
I549
tp2687
a(I45
I892
tp2688
a(I14
I351
tp2689
a(I33
I321
tp2690
a(I25
I296
tp2691
a(I28
I454
tp2692
a(I144
I979
tp2693
a(I4
I319
tp2694
a(I17
I698
tp2695
aa(lp2696
(I84
I947
tp2697
a(I25
I368
tp2698
a(I57
I912
tp2699
a(I7
I927
tp2700
a(I8
I148
tp2701
a(I122
I665
tp2702
a(I18
I205
tp2703
a(I16
I722
tp2704
a(I16
I112
tp2705
a(I11
I830
tp2706
aa(lp2707
(I48
I778
tp2708
a(I24
I395
tp2709
a(I70
I870
tp2710
a(I111
I346
tp2711
a(I5
I111
tp2712
a(I26
I883
tp2713
a(I21
I964
tp2714
a(I92
I918
tp2715
a(I2
I237
tp2716
a(I5
I933
tp2717
aa(lp2718
(I1
I973
tp2719
a(I40
I494
tp2720
a(I110
I888
tp2721
a(I14
I626
tp2722
a(I58
I223
tp2723
a(I25
I812
tp2724
a(I54
I746
tp2725
a(I7
I280
tp2726
a(I74
I703
tp2727
a(I6
I344
tp2728
aa(lp2729
(I5
I387
tp2730
a(I34
I300
tp2731
a(I21
I905
tp2732
a(I5
I344
tp2733
a(I35
I156
tp2734
a(I130
I988
tp2735
a(I59
I782
tp2736
a(I41
I438
tp2737
a(I15
I334
tp2738
a(I1
I197
tp2739
aa(lp2740
(I3
I491
tp2741
a(I138
I639
tp2742
a(I48
I598
tp2743
a(I26
I366
tp2744
a(I60
I780
tp2745
a(I1
I366
tp2746
a(I24
I174
tp2747
a(I53
I670
tp2748
a(I52
I894
tp2749
a(I5
I591
tp2750
aa(lp2751
(I22
I516
tp2752
a(I13
I190
tp2753
a(I4
I277
tp2754
a(I16
I302
tp2755
a(I3
I306
tp2756
a(I40
I793
tp2757
a(I62
I473
tp2758
a(I4
I425
tp2759
a(I35
I108
tp2760
a(I23
I860
tp2761
aa(lp2762
(I21
I703
tp2763
a(I37
I969
tp2764
a(I16
I814
tp2765
a(I123
I744
tp2766
a(I16
I722
tp2767
a(I5
I363
tp2768
a(I56
I947
tp2769
a(I44
I768
tp2770
a(I9
I106
tp2771
a(I249
I984
tp2772
aa(lp2773
(I60
I997
tp2774
a(I236
I775
tp2775
a(I8
I248
tp2776
a(I18
I368
tp2777
a(I16
I986
tp2778
a(I62
I908
tp2779
a(I43
I564
tp2780
a(I18
I601
tp2781
a(I26
I379
tp2782
a(I19
I506
tp2783
aa(lp2784
(I6
I376
tp2785
a(I35
I306
tp2786
a(I47
I412
tp2787
a(I45
I785
tp2788
a(I5
I809
tp2789
a(I8
I263
tp2790
a(I177
I841
tp2791
a(I18
I450
tp2792
a(I81
I917
tp2793
a(I62
I946
tp2794
aa(lp2795
(I1
I513
tp2796
a(I32
I532
tp2797
a(I1
I594
tp2798
a(I48
I445
tp2799
a(I125
I357
tp2800
a(I33
I763
tp2801
a(I68
I962
tp2802
a(I1
I415
tp2803
a(I43
I955
tp2804
a(I50
I801
tp2805
aa(lp2806
(I95
I838
tp2807
a(I30
I117
tp2808
a(I3
I692
tp2809
a(I5
I235
tp2810
a(I7
I243
tp2811
a(I16
I452
tp2812
a(I1
I740
tp2813
a(I21
I958
tp2814
a(I159
I680
tp2815
a(I16
I618
tp2816
aa(lp2817
(I60
I825
tp2818
a(I16
I765
tp2819
a(I3
I785
tp2820
a(I1
I140
tp2821
a(I44
I887
tp2822
a(I13
I249
tp2823
a(I18
I312
tp2824
a(I299
I803
tp2825
a(I92
I985
tp2826
a(I5
I325
tp2827
aa(lp2828
(I27
I244
tp2829
a(I105
I846
tp2830
a(I39
I768
tp2831
a(I15
I596
tp2832
a(I16
I293
tp2833
a(I72
I952
tp2834
a(I3
I287
tp2835
a(I18
I166
tp2836
a(I116
I749
tp2837
a(I26
I938
tp2838
aa(lp2839
(I174
I820
tp2840
a(I16
I128
tp2841
a(I3
I364
tp2842
a(I82
I662
tp2843
a(I3
I234
tp2844
a(I1
I377
tp2845
a(I46
I366
tp2846
a(I18
I307
tp2847
a(I9
I189
tp2848
a(I9
I388
tp2849
aa(lp2850
(I43
I833
tp2851
a(I36
I382
tp2852
a(I26
I453
tp2853
a(I57
I971
tp2854
a(I263
I927
tp2855
a(I52
I481
tp2856
a(I28
I874
tp2857
a(I21
I666
tp2858
a(I7
I606
tp2859
a(I12
I964
tp2860
aa(lp2861
(I19
I872
tp2862
a(I4
I338
tp2863
a(I25
I561
tp2864
a(I6
I252
tp2865
a(I5
I908
tp2866
a(I53
I361
tp2867
a(I6
I150
tp2868
a(I69
I702
tp2869
a(I51
I181
tp2870
a(I59
I980
tp2871
aa(lp2872
(I49
I631
tp2873
a(I25
I333
tp2874
a(I27
I710
tp2875
a(I221
I940
tp2876
a(I21
I226
tp2877
a(I19
I280
tp2878
a(I3
I297
tp2879
a(I7
I400
tp2880
a(I3
I387
tp2881
a(I55
I488
tp2882
aa(lp2883
(I25
I591
tp2884
a(I8
I130
tp2885
a(I37
I834
tp2886
a(I3
I746
tp2887
a(I119
I976
tp2888
a(I1
I547
tp2889
a(I3
I763
tp2890
a(I1
I488
tp2891
a(I159
I716
tp2892
a(I73
I312
tp2893
aa(lp2894
(I68
I240
tp2895
a(I100
I936
tp2896
a(I36
I850
tp2897
a(I35
I914
tp2898
a(I55
I351
tp2899
a(I10
I728
tp2900
a(I64
I868
tp2901
a(I4
I309
tp2902
a(I1
I973
tp2903
a(I14
I967
tp2904
aa(lp2905
(I10
I140
tp2906
a(I22
I593
tp2907
a(I8
I671
tp2908
a(I139
I934
tp2909
a(I110
I987
tp2910
a(I140
I825
tp2911
a(I53
I761
tp2912
a(I1
I129
tp2913
a(I29
I377
tp2914
a(I24
I852
tp2915
aa(lp2916
(I223
I830
tp2917
a(I16
I476
tp2918
a(I99
I942
tp2919
a(I14
I803
tp2920
a(I24
I618
tp2921
a(I5
I141
tp2922
a(I53
I992
tp2923
a(I58
I784
tp2924
a(I4
I196
tp2925
a(I35
I389
tp2926
aa(lp2927
(I35
I681
tp2928
a(I29
I322
tp2929
a(I18
I186
tp2930
a(I22
I682
tp2931
a(I31
I436
tp2932
a(I225
I863
tp2933
a(I1
I400
tp2934
a(I4
I812
tp2935
a(I34
I337
tp2936
a(I22
I840
tp2937
aa(lp2938
(I8
I402
tp2939
a(I64
I790
tp2940
a(I47
I664
tp2941
a(I51
I946
tp2942
a(I11
I812
tp2943
a(I5
I416
tp2944
a(I252
I676
tp2945
a(I16
I433
tp2946
a(I8
I149
tp2947
a(I20
I918
tp2948
aa(lp2949
(I64
I731
tp2950
a(I3
I354
tp2951
a(I54
I821
tp2952
a(I7
I496
tp2953
a(I10
I226
tp2954
a(I4
I178
tp2955
a(I4
I865
tp2956
a(I96
I565
tp2957
a(I57
I435
tp2958
a(I115
I610
tp2959
aa(lp2960
(I2
I119
tp2961
a(I36
I569
tp2962
a(I54
I646
tp2963
a(I7
I155
tp2964
a(I26
I342
tp2965
a(I3
I268
tp2966
a(I7
I325
tp2967
a(I1
I281
tp2968
a(I38
I441
tp2969
a(I68
I211
tp2970
aa(lp2971
(I4
I354
tp2972
a(I28
I655
tp2973
a(I53
I480
tp2974
a(I24
I396
tp2975
a(I17
I157
tp2976
a(I3
I761
tp2977
a(I2
I458
tp2978
a(I28
I528
tp2979
a(I28
I277
tp2980
a(I125
I508
tp2981
aa(lp2982
(I15
I146
tp2983
a(I51
I518
tp2984
a(I26
I577
tp2985
a(I19
I230
tp2986
a(I8
I832
tp2987
a(I1
I318
tp2988
a(I1
I150
tp2989
a(I157
I546
tp2990
a(I87
I1000
tp2991
a(I17
I853
tp2992
aa(lp2993
(I5
I305
tp2994
a(I48
I914
tp2995
a(I66
I339
tp2996
a(I39
I829
tp2997
a(I57
I974
tp2998
a(I58
I990
tp2999
a(I1
I326
tp3000
a(I62
I586
tp3001
a(I34
I514
tp3002
a(I19
I135
tp3003
aa(lp3004
(I23
I279
tp3005
a(I5
I133
tp3006
a(I2
I690
tp3007
a(I2
I379
tp3008
a(I38
I332
tp3009
a(I145
I675
tp3010
a(I52
I708
tp3011
a(I12
I112
tp3012
a(I17
I253
tp3013
a(I4
I133
tp3014
aa(lp3015
(I2
I950
tp3016
a(I8
I179
tp3017
a(I36
I734
tp3018
a(I10
I116
tp3019
a(I80
I938
tp3020
a(I11
I933
tp3021
a(I32
I544
tp3022
a(I1
I208
tp3023
a(I293
I773
tp3024
a(I14
I920
tp3025
aa(lp3026
(I14
I296
tp3027
a(I1
I850
tp3028
a(I53
I288
tp3029
a(I72
I558
tp3030
a(I10
I389
tp3031
a(I77
I923
tp3032
a(I13
I213
tp3033
a(I1
I360
tp3034
a(I130
I768
tp3035
a(I12
I368
tp3036
aa(lp3037
(I114
I761
tp3038
a(I9
I451
tp3039
a(I56
I784
tp3040
a(I34
I530
tp3041
a(I167
I774
tp3042
a(I29
I699
tp3043
a(I26
I217
tp3044
a(I22
I788
tp3045
a(I7
I751
tp3046
a(I6
I287
tp3047
aa(lp3048
(I13
I280
tp3049
a(I3
I292
tp3050
a(I104
I418
tp3051
a(I36
I993
tp3052
a(I1
I208
tp3053
a(I33
I540
tp3054
a(I11
I121
tp3055
a(I14
I255
tp3056
a(I133
I829
tp3057
a(I4
I199
tp3058
aa(lp3059
(I11
I587
tp3060
a(I15
I203
tp3061
a(I47
I490
tp3062
a(I22
I379
tp3063
a(I1
I137
tp3064
a(I3
I494
tp3065
a(I114
I961
tp3066
a(I152
I474
tp3067
a(I5
I986
tp3068
a(I44
I999
tp3069
aa(lp3070
(I10
I675
tp3071
a(I32
I462
tp3072
a(I2
I220
tp3073
a(I4
I367
tp3074
a(I262
I686
tp3075
a(I25
I983
tp3076
a(I16
I347
tp3077
a(I1
I695
tp3078
a(I10
I111
tp3079
a(I58
I704
tp3080
aa(lp3081
(I2
I965
tp3082
a(I1
I977
tp3083
a(I9
I674
tp3084
a(I174
I758
tp3085
a(I1
I429
tp3086
a(I17
I953
tp3087
a(I27
I123
tp3088
a(I55
I414
tp3089
a(I33
I908
tp3090
a(I30
I351
tp3091
aa(lp3092
(I23
I231
tp3093
a(I55
I509
tp3094
a(I27
I219
tp3095
a(I13
I438
tp3096
a(I34
I824
tp3097
a(I55
I853
tp3098
a(I18
I132
tp3099
a(I13
I961
tp3100
a(I20
I986
tp3101
a(I83
I830
tp3102
aa(lp3103
(I39
I227
tp3104
a(I26
I776
tp3105
a(I2
I972
tp3106
a(I2
I225
tp3107
a(I16
I404
tp3108
a(I9
I199
tp3109
a(I77
I850
tp3110
a(I48
I242
tp3111
a(I6
I111
tp3112
a(I60
I697
tp3113
aa(lp3114
(I43
I607
tp3115
a(I55
I863
tp3116
a(I8
I682
tp3117
a(I24
I703
tp3118
a(I113
I887
tp3119
a(I13
I608
tp3120
a(I9
I591
tp3121
a(I4
I633
tp3122
a(I161
I742
tp3123
a(I85
I485
tp3124
aa(lp3125
(I67
I659
tp3126
a(I26
I746
tp3127
a(I72
I513
tp3128
a(I39
I668
tp3129
a(I9
I302
tp3130
a(I168
I820
tp3131
a(I16
I409
tp3132
a(I38
I677
tp3133
a(I8
I341
tp3134
a(I47
I914
tp3135
aa(lp3136
(I18
I290
tp3137
a(I38
I370
tp3138
a(I92
I906
tp3139
a(I9
I466
tp3140
a(I90
I627
tp3141
a(I1
I267
tp3142
a(I120
I899
tp3143
a(I81
I755
tp3144
a(I1
I293
tp3145
a(I8
I129
tp3146
aa(lp3147
(I118
I436
tp3148
a(I7
I144
tp3149
a(I10
I134
tp3150
a(I119
I949
tp3151
a(I26
I784
tp3152
a(I20
I656
tp3153
a(I33
I900
tp3154
a(I4
I579
tp3155
a(I38
I774
tp3156
a(I52
I834
tp3157
aa(lp3158
(I20
I783
tp3159
a(I9
I164
tp3160
a(I71
I819
tp3161
a(I22
I609
tp3162
a(I1
I155
tp3163
a(I1
I289
tp3164
a(I44
I887
tp3165
a(I105
I1000
tp3166
a(I46
I498
tp3167
a(I166
I600
tp3168
aa(lp3169
(I2
I128
tp3170
a(I121
I971
tp3171
a(I13
I538
tp3172
a(I22
I735
tp3173
a(I58
I489
tp3174
a(I71
I486
tp3175
a(I16
I128
tp3176
a(I45
I924
tp3177
a(I21
I277
tp3178
a(I17
I723
tp3179
aa(lp3180
(I10
I311
tp3181
a(I111
I507
tp3182
a(I20
I640
tp3183
a(I38
I777
tp3184
a(I19
I521
tp3185
a(I30
I444
tp3186
a(I24
I714
tp3187
a(I63
I620
tp3188
a(I45
I683
tp3189
a(I103
I992
tp3190
aa(lp3191
(I60
I518
tp3192
a(I45
I782
tp3193
a(I6
I102
tp3194
a(I61
I622
tp3195
a(I30
I638
tp3196
a(I74
I956
tp3197
a(I146
I693
tp3198
a(I9
I365
tp3199
a(I33
I789
tp3200
a(I3
I917
tp3201
aa(lp3202
(I42
I298
tp3203
a(I70
I517
tp3204
a(I38
I627
tp3205
a(I8
I211
tp3206
a(I13
I543
tp3207
a(I28
I885
tp3208
a(I31
I174
tp3209
a(I41
I593
tp3210
a(I45
I788
tp3211
a(I1
I154
tp3212
aa(lp3213
(I5
I240
tp3214
a(I51
I258
tp3215
a(I29
I758
tp3216
a(I39
I859
tp3217
a(I13
I117
tp3218
a(I102
I802
tp3219
a(I22
I589
tp3220
a(I4
I204
tp3221
a(I46
I919
tp3222
a(I13
I159
tp3223
aa(lp3224
(I8
I507
tp3225
a(I199
I639
tp3226
a(I34
I639
tp3227
a(I7
I957
tp3228
a(I92
I718
tp3229
a(I13
I215
tp3230
a(I10
I469
tp3231
a(I28
I404
tp3232
a(I12
I178
tp3233
a(I1
I206
tp3234
aa(lp3235
(I31
I411
tp3236
a(I61
I880
tp3237
a(I28
I184
tp3238
a(I1
I132
tp3239
a(I7
I691
tp3240
a(I45
I903
tp3241
a(I111
I575
tp3242
a(I2
I410
tp3243
a(I37
I256
tp3244
a(I26
I643
tp3245
aa(lp3246
(I20
I153
tp3247
a(I40
I588
tp3248
a(I64
I666
tp3249
a(I43
I783
tp3250
a(I41
I526
tp3251
a(I59
I462
tp3252
a(I46
I561
tp3253
a(I13
I872
tp3254
a(I63
I784
tp3255
a(I1
I224
tp3256
aa(lp3257
(I55
I742
tp3258
a(I49
I812
tp3259
a(I12
I105
tp3260
a(I78
I840
tp3261
a(I38
I689
tp3262
a(I67
I738
tp3263
a(I51
I919
tp3264
a(I17
I574
tp3265
a(I51
I407
tp3266
a(I6
I140
tp3267
aa(lp3268
(I3
I401
tp3269
a(I64
I984
tp3270
a(I1
I270
tp3271
a(I4
I490
tp3272
a(I9
I994
tp3273
a(I40
I562
tp3274
a(I129
I497
tp3275
a(I55
I566
tp3276
a(I171
I997
tp3277
a(I21
I452
tp3278
aa(lp3279
(I1
I223
tp3280
a(I104
I965
tp3281
a(I42
I175
tp3282
a(I9
I621
tp3283
a(I13
I373
tp3284
a(I10
I326
tp3285
a(I18
I935
tp3286
a(I7
I466
tp3287
a(I88
I399
tp3288
a(I49
I993
tp3289
aa(lp3290
(I80
I758
tp3291
a(I6
I601
tp3292
a(I1
I450
tp3293
a(I7
I213
tp3294
a(I1
I843
tp3295
a(I174
I854
tp3296
a(I15
I341
tp3297
a(I63
I281
tp3298
a(I5
I137
tp3299
a(I65
I884
tp3300
aa(lp3301
(I50
I532
tp3302
a(I5
I843
tp3303
a(I18
I257
tp3304
a(I125
I743
tp3305
a(I19
I418
tp3306
a(I2
I210
tp3307
a(I60
I649
tp3308
a(I17
I593
tp3309
a(I75
I809
tp3310
a(I126
I967
tp3311
aa(lp3312
(I50
I273
tp3313
a(I20
I675
tp3314
a(I54
I834
tp3315
a(I55
I497
tp3316
a(I85
I806
tp3317
a(I16
I380
tp3318
a(I19
I990
tp3319
a(I7
I918
tp3320
a(I100
I914
tp3321
a(I24
I336
tp3322
aa(lp3323
(I65
I572
tp3324
a(I7
I820
tp3325
a(I16
I349
tp3326
a(I8
I191
tp3327
a(I26
I651
tp3328
a(I5
I121
tp3329
a(I15
I439
tp3330
a(I141
I666
tp3331
a(I1
I191
tp3332
a(I39
I196
tp3333
aa(lp3334
(I24
I237
tp3335
a(I10
I353
tp3336
a(I10
I923
tp3337
a(I38
I582
tp3338
a(I74
I950
tp3339
a(I37
I766
tp3340
a(I1
I349
tp3341
a(I21
I365
tp3342
a(I40
I224
tp3343
a(I127
I740
tp3344
aa(lp3345
(I11
I287
tp3346
a(I79
I848
tp3347
a(I106
I681
tp3348
a(I91
I770
tp3349
a(I28
I593
tp3350
a(I47
I389
tp3351
a(I16
I523
tp3352
a(I90
I967
tp3353
a(I13
I530
tp3354
a(I11
I571
tp3355
aa(lp3356
(I36
I421
tp3357
a(I4
I212
tp3358
a(I42
I563
tp3359
a(I24
I701
tp3360
a(I13
I219
tp3361
a(I3
I110
tp3362
a(I114
I894
tp3363
a(I78
I933
tp3364
a(I10
I128
tp3365
a(I102
I720
tp3366
aa(lp3367
(I2
I283
tp3368
a(I137
I749
tp3369
a(I4
I158
tp3370
a(I29
I661
tp3371
a(I54
I240
tp3372
a(I16
I842
tp3373
a(I40
I707
tp3374
a(I21
I783
tp3375
a(I77
I953
tp3376
a(I42
I632
tp3377
aa(lp3378
(I4
I109
tp3379
a(I7
I284
tp3380
a(I36
I785
tp3381
a(I66
I507
tp3382
a(I77
I564
tp3383
a(I6
I364
tp3384
a(I55
I321
tp3385
a(I42
I367
tp3386
a(I15
I565
tp3387
a(I15
I457
tp3388
aa(lp3389
(I101
I689
tp3390
a(I5
I584
tp3391
a(I8
I820
tp3392
a(I6
I449
tp3393
a(I3
I428
tp3394
a(I2
I950
tp3395
a(I4
I299
tp3396
a(I380
I915
tp3397
a(I3
I178
tp3398
a(I21
I195
tp3399
aa(lp3400
(I44
I793
tp3401
a(I30
I361
tp3402
a(I1
I143
tp3403
a(I24
I903
tp3404
a(I76
I789
tp3405
a(I179
I790
tp3406
a(I5
I135
tp3407
a(I178
I904
tp3408
a(I13
I873
tp3409
a(I3
I687
tp3410
aa(lp3411
(I8
I108
tp3412
a(I78
I897
tp3413
a(I7
I987
tp3414
a(I113
I585
tp3415
a(I85
I475
tp3416
a(I10
I178
tp3417
a(I6
I345
tp3418
a(I10
I243
tp3419
a(I59
I869
tp3420
a(I6
I717
tp3421
aa(lp3422
(I36
I522
tp3423
a(I6
I117
tp3424
a(I37
I825
tp3425
a(I17
I447
tp3426
a(I52
I463
tp3427
a(I8
I118
tp3428
a(I4
I138
tp3429
a(I64
I463
tp3430
a(I30
I522
tp3431
a(I53
I436
tp3432
aa(lp3433
(I1
I228
tp3434
a(I1
I105
tp3435
a(I24
I314
tp3436
a(I33
I123
tp3437
a(I61
I716
tp3438
a(I47
I379
tp3439
a(I9
I791
tp3440
a(I16
I480
tp3441
a(I5
I143
tp3442
a(I18
I196
tp3443
aa(lp3444
(I1
I302
tp3445
a(I136
I992
tp3446
a(I103
I761
tp3447
a(I14
I456
tp3448
a(I30
I302
tp3449
a(I3
I912
tp3450
a(I130
I992
tp3451
a(I1
I776
tp3452
a(I13
I300
tp3453
a(I28
I183
tp3454
aa(lp3455
(I4
I189
tp3456
a(I3
I275
tp3457
a(I18
I988
tp3458
a(I42
I275
tp3459
a(I87
I850
tp3460
a(I1
I165
tp3461
a(I69
I800
tp3462
a(I54
I577
tp3463
a(I167
I868
tp3464
a(I22
I445
tp3465
aa(lp3466
(I1
I716
tp3467
a(I5
I605
tp3468
a(I104
I776
tp3469
a(I193
I546
tp3470
a(I19
I585
tp3471
a(I21
I610
tp3472
a(I93
I936
tp3473
a(I20
I375
tp3474
a(I20
I997
tp3475
a(I4
I580
tp3476
aa(lp3477
(I28
I641
tp3478
a(I13
I566
tp3479
a(I3
I365
tp3480
a(I134
I777
tp3481
a(I24
I672
tp3482
a(I61
I631
tp3483
a(I37
I846
tp3484
a(I4
I149
tp3485
a(I188
I675
tp3486
a(I13
I957
tp3487
aa(lp3488
(I194
I835
tp3489
a(I50
I600
tp3490
a(I11
I365
tp3491
a(I15
I681
tp3492
a(I6
I202
tp3493
a(I4
I480
tp3494
a(I127
I540
tp3495
a(I9
I779
tp3496
a(I68
I889
tp3497
a(I5
I400
tp3498
aa(lp3499
(I65
I875
tp3500
a(I2
I892
tp3501
a(I5
I637
tp3502
a(I111
I964
tp3503
a(I6
I412
tp3504
a(I105
I357
tp3505
a(I10
I178
tp3506
a(I79
I699
tp3507
a(I14
I522
tp3508
a(I35
I987
tp3509
aa(lp3510
(I6
I674
tp3511
a(I56
I659
tp3512
a(I34
I683
tp3513
a(I1
I123
tp3514
a(I10
I143
tp3515
a(I3
I146
tp3516
a(I126
I463
tp3517
a(I13
I151
tp3518
a(I93
I925
tp3519
a(I22
I552
tp3520
aa(lp3521
(I23
I677
tp3522
a(I41
I795
tp3523
a(I25
I916
tp3524
a(I14
I853
tp3525
a(I166
I394
tp3526
a(I12
I530
tp3527
a(I49
I849
tp3528
a(I51
I779
tp3529
a(I2
I162
tp3530
a(I22
I658
tp3531
aa(lp3532
(I29
I676
tp3533
a(I46
I425
tp3534
a(I20
I376
tp3535
a(I60
I450
tp3536
a(I27
I500
tp3537
a(I2
I250
tp3538
a(I9
I226
tp3539
a(I20
I133
tp3540
a(I42
I362
tp3541
a(I5
I151
tp3542
aa(lp3543
(I41
I177
tp3544
a(I8
I786
tp3545
a(I80
I738
tp3546
a(I10
I612
tp3547
a(I58
I764
tp3548
a(I6
I149
tp3549
a(I9
I140
tp3550
a(I6
I392
tp3551
a(I49
I461
tp3552
a(I70
I990
tp3553
aa(lp3554
(I36
I548
tp3555
a(I1
I142
tp3556
a(I21
I227
tp3557
a(I10
I227
tp3558
a(I4
I386
tp3559
a(I30
I581
tp3560
a(I28
I278
tp3561
a(I60
I360
tp3562
a(I184
I948
tp3563
a(I1
I180
tp3564
aa(lp3565
(I17
I168
tp3566
a(I1
I844
tp3567
a(I27
I310
tp3568
a(I14
I283
tp3569
a(I39
I736
tp3570
a(I28
I866
tp3571
a(I87
I721
tp3572
a(I48
I282
tp3573
a(I25
I956
tp3574
a(I83
I846
tp3575
aa(lp3576
(I8
I292
tp3577
a(I1
I161
tp3578
a(I92
I884
tp3579
a(I32
I864
tp3580
a(I57
I821
tp3581
a(I26
I602
tp3582
a(I26
I781
tp3583
a(I109
I941
tp3584
a(I86
I529
tp3585
a(I104
I717
tp3586
aa(lp3587
(I75
I698
tp3588
a(I1
I911
tp3589
a(I31
I598
tp3590
a(I2
I465
tp3591
a(I20
I122
tp3592
a(I15
I794
tp3593
a(I44
I244
tp3594
a(I175
I958
tp3595
a(I1
I578
tp3596
a(I23
I776
tp3597
aa(lp3598
(I14
I687
tp3599
a(I1
I515
tp3600
a(I67
I703
tp3601
a(I9
I772
tp3602
a(I102
I971
tp3603
a(I128
I972
tp3604
a(I42
I472
tp3605
a(I51
I285
tp3606
a(I29
I370
tp3607
a(I19
I629
tp3608
aa(lp3609
(I26
I602
tp3610
a(I144
I832
tp3611
a(I19
I689
tp3612
a(I17
I261
tp3613
a(I6
I915
tp3614
a(I7
I138
tp3615
a(I44
I373
tp3616
a(I61
I563
tp3617
a(I48
I586
tp3618
a(I18
I316
tp3619
aa(lp3620
(I57
I653
tp3621
a(I22
I670
tp3622
a(I41
I279
tp3623
a(I1
I182
tp3624
a(I5
I254
tp3625
a(I37
I910
tp3626
a(I31
I900
tp3627
a(I226
I722
tp3628
a(I20
I492
tp3629
a(I12
I561
tp3630
aa(lp3631
(I48
I278
tp3632
a(I6
I115
tp3633
a(I4
I225
tp3634
a(I18
I727
tp3635
a(I7
I160
tp3636
a(I22
I291
tp3637
a(I1
I253
tp3638
a(I190
I600
tp3639
a(I14
I908
tp3640
a(I6
I552
tp3641
aa(lp3642
(I45
I356
tp3643
a(I4
I662
tp3644
a(I39
I424
tp3645
a(I2
I122
tp3646
a(I7
I664
tp3647
a(I108
I888
tp3648
a(I47
I727
tp3649
a(I22
I353
tp3650
a(I15
I268
tp3651
a(I143
I787
tp3652
aa(lp3653
(I2
I654
tp3654
a(I17
I189
tp3655
a(I5
I282
tp3656
a(I346
I978
tp3657
a(I10
I371
tp3658
a(I19
I460
tp3659
a(I2
I932
tp3660
a(I34
I833
tp3661
a(I20
I359
tp3662
a(I69
I648
tp3663
aa(lp3664
(I44
I922
tp3665
a(I9
I180
tp3666
a(I46
I673
tp3667
a(I10
I287
tp3668
a(I30
I524
tp3669
a(I24
I306
tp3670
a(I6
I178
tp3671
a(I21
I890
tp3672
a(I53
I561
tp3673
a(I121
I495
tp3674
aa(lp3675
(I15
I699
tp3676
a(I102
I959
tp3677
a(I17
I202
tp3678
a(I1
I323
tp3679
a(I90
I816
tp3680
a(I20
I658
tp3681
a(I50
I230
tp3682
a(I11
I438
tp3683
a(I73
I580
tp3684
a(I10
I667
tp3685
aa(lp3686
(I2
I370
tp3687
a(I49
I573
tp3688
a(I12
I362
tp3689
a(I483
I966
tp3690
a(I4
I410
tp3691
a(I1
I119
tp3692
a(I6
I252
tp3693
a(I10
I946
tp3694
a(I4
I917
tp3695
a(I34
I661
tp3696
aa(lp3697
(I158
I772
tp3698
a(I129
I930
tp3699
a(I47
I475
tp3700
a(I20
I472
tp3701
a(I58
I852
tp3702
a(I14
I640
tp3703
a(I5
I413
tp3704
a(I46
I400
tp3705
a(I3
I130
tp3706
a(I5
I512
tp3707
aa(lp3708
(I64
I921
tp3709
a(I210
I834
tp3710
a(I11
I261
tp3711
a(I7
I424
tp3712
a(I56
I509
tp3713
a(I39
I612
tp3714
a(I5
I218
tp3715
a(I58
I905
tp3716
a(I42
I683
tp3717
a(I25
I602
tp3718
aa(lp3719
(I65
I372
tp3720
a(I12
I328
tp3721
a(I6
I106
tp3722
a(I45
I744
tp3723
a(I7
I872
tp3724
a(I38
I381
tp3725
a(I62
I606
tp3726
a(I3
I361
tp3727
a(I68
I449
tp3728
a(I26
I766
tp3729
aa(lp3730
(I14
I221
tp3731
a(I3
I103
tp3732
a(I36
I394
tp3733
a(I10
I704
tp3734
a(I145
I899
tp3735
a(I74
I994
tp3736
a(I30
I496
tp3737
a(I45
I886
tp3738
a(I2
I131
tp3739
a(I59
I347
tp3740
aa(lp3741
(I34
I281
tp3742
a(I26
I832
tp3743
a(I16
I349
tp3744
a(I132
I998
tp3745
a(I4
I349
tp3746
a(I7
I158
tp3747
a(I28
I534
tp3748
a(I55
I796
tp3749
a(I143
I804
tp3750
a(I30
I596
tp3751
aa(lp3752
(I106
I637
tp3753
a(I19
I412
tp3754
a(I5
I376
tp3755
a(I87
I696
tp3756
a(I38
I555
tp3757
a(I1
I716
tp3758
a(I5
I230
tp3759
a(I70
I840
tp3760
a(I67
I353
tp3761
a(I5
I209
tp3762
aa(lp3763
(I56
I173
tp3764
a(I23
I532
tp3765
a(I6
I702
tp3766
a(I16
I483
tp3767
a(I2
I667
tp3768
a(I25
I219
tp3769
a(I20
I821
tp3770
a(I7
I158
tp3771
a(I46
I827
tp3772
a(I71
I805
tp3773
aa(lp3774
(I47
I684
tp3775
a(I27
I998
tp3776
a(I35
I883
tp3777
a(I49
I483
tp3778
a(I46
I820
tp3779
a(I93
I591
tp3780
a(I31
I628
tp3781
a(I25
I166
tp3782
a(I31
I745
tp3783
a(I44
I878
tp3784
aa(lp3785
(I81
I502
tp3786
a(I91
I932
tp3787
a(I15
I617
tp3788
a(I4
I317
tp3789
a(I74
I810
tp3790
a(I5
I230
tp3791
a(I4
I129
tp3792
a(I26
I452
tp3793
a(I108
I651
tp3794
a(I53
I736
tp3795
aa(lp3796
(I1
I109
tp3797
a(I28
I145
tp3798
a(I16
I631
tp3799
a(I108
I846
tp3800
a(I49
I560
tp3801
a(I6
I257
tp3802
a(I13
I684
tp3803
a(I55
I565
tp3804
a(I23
I943
tp3805
a(I45
I346
tp3806
aa(lp3807
(I224
I999
tp3808
a(I27
I424
tp3809
a(I9
I543
tp3810
a(I88
I876
tp3811
a(I17
I148
tp3812
a(I2
I133
tp3813
a(I3
I107
tp3814
a(I79
I699
tp3815
a(I12
I687
tp3816
a(I31
I685
tp3817
aa(lp3818
(I77
I295
tp3819
a(I11
I886
tp3820
a(I8
I360
tp3821
a(I104
I678
tp3822
a(I10
I338
tp3823
a(I5
I650
tp3824
a(I15
I505
tp3825
a(I59
I600
tp3826
a(I38
I551
tp3827
a(I23
I409
tp3828
aa(lp3829
(I1
I496
tp3830
a(I38
I136
tp3831
a(I36
I923
tp3832
a(I65
I650
tp3833
a(I26
I328
tp3834
a(I32
I495
tp3835
a(I7
I606
tp3836
a(I30
I684
tp3837
a(I1
I321
tp3838
a(I109
I949
tp3839
aa(lp3840
(I64
I364
tp3841
a(I7
I479
tp3842
a(I1
I175
tp3843
a(I84
I896
tp3844
a(I20
I399
tp3845
a(I3
I107
tp3846
a(I17
I576
tp3847
a(I140
I976
tp3848
a(I37
I262
tp3849
a(I45
I895
tp3850
aa(lp3851
(I76
I672
tp3852
a(I7
I103
tp3853
a(I3
I114
tp3854
a(I1
I353
tp3855
a(I1
I310
tp3856
a(I21
I588
tp3857
a(I25
I124
tp3858
a(I123
I565
tp3859
a(I38
I928
tp3860
a(I3
I184
tp3861
aa(lp3862
(I98
I793
tp3863
a(I99
I347
tp3864
a(I2
I684
tp3865
a(I35
I836
tp3866
a(I20
I996
tp3867
a(I1
I247
tp3868
a(I61
I681
tp3869
a(I23
I175
tp3870
a(I5
I216
tp3871
a(I13
I792
tp3872
aa(lp3873
(I53
I376
tp3874
a(I8
I569
tp3875
a(I8
I741
tp3876
a(I27
I177
tp3877
a(I85
I840
tp3878
a(I11
I181
tp3879
a(I5
I653
tp3880
a(I51
I264
tp3881
a(I14
I349
tp3882
a(I10
I667
tp3883
aa(lp3884
(I86
I877
tp3885
a(I42
I240
tp3886
a(I7
I170
tp3887
a(I12
I585
tp3888
a(I28
I543
tp3889
a(I30
I856
tp3890
a(I27
I135
tp3891
a(I20
I664
tp3892
a(I47
I730
tp3893
a(I3
I158
tp3894
aa(lp3895
(I84
I649
tp3896
a(I105
I569
tp3897
a(I7
I892
tp3898
a(I107
I993
tp3899
a(I6
I144
tp3900
a(I1
I742
tp3901
a(I19
I438
tp3902
a(I46
I322
tp3903
a(I19
I626
tp3904
a(I20
I401
tp3905
aa(lp3906
(I14
I424
tp3907
a(I60
I434
tp3908
a(I13
I403
tp3909
a(I3
I197
tp3910
a(I28
I183
tp3911
a(I2
I173
tp3912
a(I4
I754
tp3913
a(I6
I634
tp3914
a(I93
I329
tp3915
a(I6
I122
tp3916
aa(lp3917
(I19
I258
tp3918
a(I19
I451
tp3919
a(I71
I496
tp3920
a(I11
I329
tp3921
a(I19
I722
tp3922
a(I9
I225
tp3923
a(I27
I711
tp3924
a(I9
I580
tp3925
a(I172
I874
tp3926
a(I75
I579
tp3927
aa(lp3928
(I2
I314
tp3929
a(I99
I561
tp3930
a(I26
I437
tp3931
a(I12
I156
tp3932
a(I21
I754
tp3933
a(I46
I736
tp3934
a(I1
I428
tp3935
a(I13
I142
tp3936
a(I36
I197
tp3937
a(I37
I719
tp3938
aa(lp3939
(I3
I972
tp3940
a(I227
I593
tp3941
a(I6
I120
tp3942
a(I10
I662
tp3943
a(I9
I319
tp3944
a(I4
I158
tp3945
a(I2
I185
tp3946
a(I7
I499
tp3947
a(I72
I974
tp3948
a(I98
I784
tp3949
aa(lp3950
(I13
I241
tp3951
a(I66
I625
tp3952
a(I6
I269
tp3953
a(I3
I658
tp3954
a(I18
I687
tp3955
a(I95
I779
tp3956
a(I1
I191
tp3957
a(I40
I574
tp3958
a(I163
I599
tp3959
a(I25
I444
tp3960
aa(lp3961
(I9
I409
tp3962
a(I11
I402
tp3963
a(I43
I872
tp3964
a(I6
I900
tp3965
a(I14
I317
tp3966
a(I5
I287
tp3967
a(I22
I131
tp3968
a(I19
I115
tp3969
a(I41
I341
tp3970
a(I67
I633
tp3971
aa(lp3972
(I56
I810
tp3973
a(I93
I400
tp3974
a(I46
I934
tp3975
a(I41
I849
tp3976
a(I4
I346
tp3977
a(I51
I701
tp3978
a(I16
I579
tp3979
a(I6
I280
tp3980
a(I82
I417
tp3981
a(I6
I651
tp3982
aa(lp3983
(I8
I388
tp3984
a(I30
I129
tp3985
a(I27
I682
tp3986
a(I39
I796
tp3987
a(I29
I595
tp3988
a(I39
I323
tp3989
a(I8
I135
tp3990
a(I32
I667
tp3991
a(I65
I940
tp3992
a(I50
I996
tp3993
aa(lp3994
(I114
I972
tp3995
a(I55
I494
tp3996
a(I18
I273
tp3997
a(I6
I375
tp3998
a(I5
I184
tp3999
a(I21
I888
tp4000
a(I36
I592
tp4001
a(I7
I111
tp4002
a(I84
I499
tp4003
a(I42
I531
tp4004
aa(lp4005
(I26
I508
tp4006
a(I340
I955
tp4007
a(I23
I408
tp4008
a(I55
I911
tp4009
a(I53
I984
tp4010
a(I45
I918
tp4011
a(I3
I149
tp4012
a(I2
I412
tp4013
a(I14
I893
tp4014
a(I38
I536
tp4015
aa(lp4016
(I11
I222
tp4017
a(I45
I458
tp4018
a(I19
I672
tp4019
a(I58
I668
tp4020
a(I26
I684
tp4021
a(I31
I312
tp4022
a(I8
I737
tp4023
a(I25
I257
tp4024
a(I171
I994
tp4025
a(I7
I141
tp4026
aa(lp4027
(I62
I591
tp4028
a(I32
I706
tp4029
a(I4
I959
tp4030
a(I84
I943
tp4031
a(I107
I838
tp4032
a(I44
I978
tp4033
a(I16
I795
tp4034
a(I35
I895
tp4035
a(I18
I601
tp4036
a(I70
I293
tp4037
aa(lp4038
(I3
I932
tp4039
a(I3
I472
tp4040
a(I38
I505
tp4041
a(I70
I455
tp4042
a(I67
I207
tp4043
a(I2
I327
tp4044
a(I60
I592
tp4045
a(I25
I828
tp4046
a(I3
I553
tp4047
a(I23
I662
tp4048
aa(lp4049
(I18
I192
tp4050
a(I44
I683
tp4051
a(I7
I276
tp4052
a(I58
I606
tp4053
a(I112
I913
tp4054
a(I77
I758
tp4055
a(I24
I864
tp4056
a(I115
I916
tp4057
a(I25
I608
tp4058
a(I21
I512
tp4059
aa(lp4060
(I5
I218
tp4061
a(I32
I379
tp4062
a(I57
I904
tp4063
a(I24
I478
tp4064
a(I81
I738
tp4065
a(I19
I360
tp4066
a(I6
I314
tp4067
a(I71
I672
tp4068
a(I147
I763
tp4069
a(I3
I108
tp4070
aa(lp4071
(I12
I642
tp4072
a(I66
I821
tp4073
a(I29
I931
tp4074
a(I6
I114
tp4075
a(I92
I841
tp4076
a(I75
I646
tp4077
a(I37
I252
tp4078
a(I6
I169
tp4079
a(I19
I189
tp4080
a(I25
I600
tp4081
aa(lp4082
(I42
I764
tp4083
a(I61
I834
tp4084
a(I27
I490
tp4085
a(I4
I188
tp4086
a(I20
I448
tp4087
a(I74
I281
tp4088
a(I123
I733
tp4089
a(I9
I925
tp4090
a(I3
I735
tp4091
a(I27
I588
tp4092
aa(lp4093
(I25
I463
tp4094
a(I106
I400
tp4095
a(I47
I499
tp4096
a(I19
I268
tp4097
a(I17
I121
tp4098
a(I3
I200
tp4099
a(I32
I955
tp4100
a(I22
I673
tp4101
a(I1
I256
tp4102
a(I14
I608
tp4103
aa(lp4104
(I11
I734
tp4105
a(I31
I469
tp4106
a(I102
I895
tp4107
a(I85
I724
tp4108
a(I10
I572
tp4109
a(I20
I721
tp4110
a(I4
I366
tp4111
a(I162
I520
tp4112
a(I2
I217
tp4113
a(I50
I995
tp4114
aa(lp4115
(I122
I961
tp4116
a(I49
I883
tp4117
a(I6
I601
tp4118
a(I2
I546
tp4119
a(I58
I466
tp4120
a(I58
I853
tp4121
a(I14
I366
tp4122
a(I22
I289
tp4123
a(I4
I176
tp4124
a(I97
I454
tp4125
aa(lp4126
(I2
I668
tp4127
a(I77
I903
tp4128
a(I53
I191
tp4129
a(I7
I460
tp4130
a(I9
I532
tp4131
a(I51
I742
tp4132
a(I15
I371
tp4133
a(I93
I796
tp4134
a(I55
I959
tp4135
a(I31
I499
tp4136
aa(lp4137
(I3
I192
tp4138
a(I39
I757
tp4139
a(I56
I778
tp4140
a(I99
I715
tp4141
a(I155
I746
tp4142
a(I48
I466
tp4143
a(I13
I313
tp4144
a(I1
I363
tp4145
a(I24
I666
tp4146
a(I8
I113
tp4147
aa(lp4148
(I25
I453
tp4149
a(I11
I618
tp4150
a(I93
I676
tp4151
a(I2
I663
tp4152
a(I33
I413
tp4153
a(I128
I783
tp4154
a(I21
I161
tp4155
a(I16
I272
tp4156
a(I1
I199
tp4157
a(I29
I337
tp4158
aa(lp4159
(I36
I382
tp4160
a(I7
I293
tp4161
a(I79
I585
tp4162
a(I15
I386
tp4163
a(I27
I272
tp4164
a(I110
I985
tp4165
a(I16
I297
tp4166
a(I17
I247
tp4167
a(I47
I868
tp4168
a(I39
I712
tp4169
aa(lp4170
(I39
I473
tp4171
a(I198
I965
tp4172
a(I1
I131
tp4173
a(I41
I725
tp4174
a(I14
I496
tp4175
a(I49
I351
tp4176
a(I32
I778
tp4177
a(I95
I942
tp4178
a(I46
I821
tp4179
a(I22
I876
tp4180
aa(lp4181
(I5
I558
tp4182
a(I17
I172
tp4183
a(I6
I236
tp4184
a(I1
I272
tp4185
a(I40
I241
tp4186
a(I3
I833
tp4187
a(I61
I655
tp4188
a(I15
I361
tp4189
a(I175
I803
tp4190
a(I35
I435
tp4191
aa(lp4192
(I8
I346
tp4193
a(I42
I803
tp4194
a(I12
I316
tp4195
a(I180
I944
tp4196
a(I1
I402
tp4197
a(I114
I354
tp4198
a(I8
I256
tp4199
a(I10
I206
tp4200
a(I15
I581
tp4201
a(I8
I946
tp4202
aa(lp4203
(I11
I388
tp4204
a(I69
I519
tp4205
a(I42
I273
tp4206
a(I1
I615
tp4207
a(I116
I854
tp4208
a(I16
I427
tp4209
a(I17
I174
tp4210
a(I9
I982
tp4211
a(I6
I105
tp4212
a(I63
I820
tp4213
aa(lp4214
(I14
I462
tp4215
a(I93
I533
tp4216
a(I139
I776
tp4217
a(I38
I873
tp4218
a(I73
I582
tp4219
a(I1
I357
tp4220
a(I19
I529
tp4221
a(I1
I702
tp4222
a(I5
I632
tp4223
a(I58
I412
tp4224
aa(lp4225
(I32
I672
tp4226
a(I35
I170
tp4227
a(I57
I612
tp4228
a(I10
I576
tp4229
a(I22
I242
tp4230
a(I17
I205
tp4231
a(I7
I464
tp4232
a(I66
I797
tp4233
a(I36
I415
tp4234
a(I7
I585
tp4235
aa(lp4236
(I26
I914
tp4237
a(I74
I529
tp4238
a(I60
I722
tp4239
a(I9
I121
tp4240
a(I4
I905
tp4241
a(I20
I772
tp4242
a(I13
I902
tp4243
a(I91
I472
tp4244
a(I40
I334
tp4245
a(I46
I948
tp4246
aa(lp4247
(I57
I696
tp4248
a(I98
I423
tp4249
a(I8
I314
tp4250
a(I77
I397
tp4251
a(I14
I315
tp4252
a(I14
I401
tp4253
a(I13
I688
tp4254
a(I45
I702
tp4255
a(I3
I273
tp4256
a(I22
I735
tp4257
aa(lp4258
(I8
I131
tp4259
a(I50
I881
tp4260
a(I38
I990
tp4261
a(I15
I957
tp4262
a(I19
I225
tp4263
a(I121
I918
tp4264
a(I12
I714
tp4265
a(I47
I247
tp4266
a(I21
I908
tp4267
a(I105
I894
tp4268
aa(lp4269
(I30
I743
tp4270
a(I11
I684
tp4271
a(I12
I943
tp4272
a(I1
I181
tp4273
a(I73
I876
tp4274
a(I12
I441
tp4275
a(I5
I374
tp4276
a(I52
I452
tp4277
a(I9
I567
tp4278
a(I141
I345
tp4279
aa(lp4280
(I9
I309
tp4281
a(I3
I706
tp4282
a(I4
I647
tp4283
a(I84
I704
tp4284
a(I10
I518
tp4285
a(I230
I895
tp4286
a(I109
I553
tp4287
a(I56
I700
tp4288
a(I1
I396
tp4289
a(I15
I497
tp4290
aa(lp4291
(I16
I472
tp4292
a(I33
I222
tp4293
a(I110
I316
tp4294
a(I6
I301
tp4295
a(I1
I292
tp4296
a(I9
I542
tp4297
a(I4
I280
tp4298
a(I120
I981
tp4299
a(I11
I670
tp4300
a(I5
I629
tp4301
aa(lp4302
(I11
I185
tp4303
a(I30
I778
tp4304
a(I43
I517
tp4305
a(I45
I500
tp4306
a(I1
I132
tp4307
a(I16
I729
tp4308
a(I6
I515
tp4309
a(I29
I505
tp4310
a(I234
I803
tp4311
a(I53
I610
tp4312
aa(lp4313
(I2
I488
tp4314
a(I23
I418
tp4315
a(I13
I501
tp4316
a(I52
I407
tp4317
a(I1
I795
tp4318
a(I79
I750
tp4319
a(I19
I769
tp4320
a(I14
I205
tp4321
a(I75
I330
tp4322
a(I39
I386
tp4323
aa(lp4324
(I18
I664
tp4325
a(I16
I342
tp4326
a(I264
I845
tp4327
a(I2
I594
tp4328
a(I27
I164
tp4329
a(I52
I714
tp4330
a(I52
I788
tp4331
a(I5
I236
tp4332
a(I7
I565
tp4333
a(I7
I649
tp4334
aa(lp4335
(I43
I617
tp4336
a(I55
I511
tp4337
a(I20
I100
tp4338
a(I5
I250
tp4339
a(I28
I520
tp4340
a(I11
I943
tp4341
a(I27
I608
tp4342
a(I34
I537
tp4343
a(I32
I220
tp4344
a(I20
I966
tp4345
aa(lp4346
(I4
I313
tp4347
a(I33
I809
tp4348
a(I188
I665
tp4349
a(I34
I475
tp4350
a(I2
I142
tp4351
a(I6
I752
tp4352
a(I37
I217
tp4353
a(I43
I844
tp4354
a(I34
I677
tp4355
a(I35
I909
tp4356
aa(lp4357
(I28
I227
tp4358
a(I2
I977
tp4359
a(I6
I946
tp4360
a(I286
I926
tp4361
a(I3
I444
tp4362
a(I5
I201
tp4363
a(I17
I513
tp4364
a(I1
I115
tp4365
a(I43
I980
tp4366
a(I98
I556
tp4367
aa(lp4368
(I83
I637
tp4369
a(I48
I692
tp4370
a(I20
I851
tp4371
a(I128
I761
tp4372
a(I78
I553
tp4373
a(I21
I699
tp4374
a(I9
I182
tp4375
a(I7
I206
tp4376
a(I17
I677
tp4377
a(I19
I278
tp4378
aa(lp4379
(I81
I400
tp4380
a(I170
I997
tp4381
a(I42
I970
tp4382
a(I6
I906
tp4383
a(I40
I932
tp4384
a(I6
I646
tp4385
a(I6
I396
tp4386
a(I108
I952
tp4387
a(I40
I945
tp4388
a(I31
I317
tp4389
aa(lp4390
(I1
I955
tp4391
a(I1
I198
tp4392
a(I12
I628
tp4393
a(I254
I763
tp4394
a(I84
I798
tp4395
a(I1
I662
tp4396
a(I53
I465
tp4397
a(I47
I611
tp4398
a(I49
I899
tp4399
a(I6
I197
tp4400
aa(lp4401
(I6
I528
tp4402
a(I53
I743
tp4403
a(I76
I922
tp4404
a(I5
I383
tp4405
a(I17
I833
tp4406
a(I101
I781
tp4407
a(I35
I185
tp4408
a(I103
I737
tp4409
a(I22
I630
tp4410
a(I28
I577
tp4411
aa(lp4412
(I19
I787
tp4413
a(I19
I449
tp4414
a(I2
I313
tp4415
a(I23
I756
tp4416
a(I30
I306
tp4417
a(I53
I646
tp4418
a(I263
I683
tp4419
a(I14
I558
tp4420
a(I33
I857
tp4421
a(I4
I525
tp4422
aa(lp4423
(I4
I420
tp4424
a(I33
I132
tp4425
a(I36
I343
tp4426
a(I68
I951
tp4427
a(I9
I191
tp4428
a(I13
I461
tp4429
a(I14
I436
tp4430
a(I16
I459
tp4431
a(I106
I798
tp4432
a(I12
I587
tp4433
aa(lp4434
(I16
I980
tp4435
a(I25
I554
tp4436
a(I21
I121
tp4437
a(I2
I372
tp4438
a(I1
I179
tp4439
a(I64
I619
tp4440
a(I54
I393
tp4441
a(I14
I871
tp4442
a(I54
I627
tp4443
a(I43
I280
tp4444
aa(lp4445
(I2
I164
tp4446
a(I21
I199
tp4447
a(I82
I706
tp4448
a(I5
I156
tp4449
a(I3
I701
tp4450
a(I28
I997
tp4451
a(I54
I610
tp4452
a(I17
I127
tp4453
a(I3
I132
tp4454
a(I146
I752
tp4455
aa(lp4456
(I39
I880
tp4457
a(I10
I265
tp4458
a(I13
I373
tp4459
a(I25
I189
tp4460
a(I38
I185
tp4461
a(I48
I988
tp4462
a(I77
I713
tp4463
a(I79
I993
tp4464
a(I10
I269
tp4465
a(I7
I668
tp4466
aa(lp4467
(I56
I221
tp4468
a(I21
I398
tp4469
a(I18
I803
tp4470
a(I4
I171
tp4471
a(I12
I261
tp4472
a(I8
I831
tp4473
a(I30
I405
tp4474
a(I22
I293
tp4475
a(I20
I943
tp4476
a(I147
I935
tp4477
aa(lp4478
(I14
I136
tp4479
a(I55
I947
tp4480
a(I26
I608
tp4481
a(I115
I975
tp4482
a(I17
I189
tp4483
a(I15
I784
tp4484
a(I3
I804
tp4485
a(I8
I925
tp4486
a(I77
I973
tp4487
a(I80
I368
tp4488
aa(lp4489
(I120
I637
tp4490
a(I35
I661
tp4491
a(I65
I366
tp4492
a(I46
I868
tp4493
a(I38
I751
tp4494
a(I5
I180
tp4495
a(I1
I340
tp4496
a(I38
I359
tp4497
a(I19
I505
tp4498
a(I31
I666
tp4499
aa(lp4500
(I68
I744
tp4501
a(I52
I885
tp4502
a(I3
I159
tp4503
a(I37
I968
tp4504
a(I19
I718
tp4505
a(I268
I917
tp4506
a(I23
I436
tp4507
a(I35
I417
tp4508
a(I53
I986
tp4509
a(I6
I288
tp4510
aa(lp4511
(I63
I686
tp4512
a(I6
I210
tp4513
a(I14
I362
tp4514
a(I31
I174
tp4515
a(I49
I672
tp4516
a(I16
I622
tp4517
a(I15
I424
tp4518
a(I56
I830
tp4519
a(I64
I623
tp4520
a(I40
I408
tp4521
aa(lp4522
(I54
I938
tp4523
a(I157
I777
tp4524
a(I22
I122
tp4525
a(I1
I135
tp4526
a(I1
I196
tp4527
a(I44
I396
tp4528
a(I7
I217
tp4529
a(I15
I749
tp4530
a(I24
I672
tp4531
a(I81
I849
tp4532
aa(lp4533
(I54
I644
tp4534
a(I106
I860
tp4535
a(I18
I526
tp4536
a(I20
I214
tp4537
a(I13
I269
tp4538
a(I99
I695
tp4539
a(I101
I598
tp4540
a(I4
I359
tp4541
a(I9
I595
tp4542
a(I11
I628
tp4543
aa(lp4544
(I5
I128
tp4545
a(I4
I347
tp4546
a(I137
I493
tp4547
a(I14
I567
tp4548
a(I49
I730
tp4549
a(I10
I582
tp4550
a(I5
I580
tp4551
a(I1
I890
tp4552
a(I64
I230
tp4553
a(I1
I166
tp4554
aa(lp4555
(I2
I126
tp4556
a(I4
I385
tp4557
a(I49
I552
tp4558
a(I156
I895
tp4559
a(I68
I482
tp4560
a(I23
I168
tp4561
a(I73
I764
tp4562
a(I25
I660
tp4563
a(I9
I629
tp4564
a(I15
I670
tp4565
aa(lp4566
(I37
I446
tp4567
a(I52
I710
tp4568
a(I28
I759
tp4569
a(I16
I607
tp4570
a(I5
I173
tp4571
a(I91
I655
tp4572
a(I24
I213
tp4573
a(I63
I920
tp4574
a(I6
I206
tp4575
a(I70
I511
tp4576
aa(lp4577
(I38
I610
tp4578
a(I16
I383
tp4579
a(I5
I148
tp4580
a(I57
I720
tp4581
a(I56
I313
tp4582
a(I33
I436
tp4583
a(I18
I368
tp4584
a(I31
I749
tp4585
a(I102
I967
tp4586
a(I54
I820
tp4587
aa(lp4588
(I43
I398
tp4589
a(I44
I532
tp4590
a(I10
I789
tp4591
a(I72
I945
tp4592
a(I95
I847
tp4593
a(I1
I450
tp4594
a(I16
I931
tp4595
a(I123
I898
tp4596
a(I80
I788
tp4597
a(I64
I691
tp4598
aa(lp4599
(I64
I664
tp4600
a(I1
I124
tp4601
a(I10
I314
tp4602
a(I35
I472
tp4603
a(I25
I226
tp4604
a(I48
I410
tp4605
a(I33
I512
tp4606
a(I2
I288
tp4607
a(I8
I162
tp4608
a(I107
I592
tp4609
aa(lp4610
(I12
I206
tp4611
a(I33
I420
tp4612
a(I112
I891
tp4613
a(I4
I857
tp4614
a(I33
I273
tp4615
a(I1
I610
tp4616
a(I40
I796
tp4617
a(I13
I720
tp4618
a(I98
I580
tp4619
a(I44
I390
tp4620
aa(lp4621
(I23
I418
tp4622
a(I1
I949
tp4623
a(I51
I685
tp4624
a(I29
I718
tp4625
a(I63
I908
tp4626
a(I20
I173
tp4627
a(I180
I810
tp4628
a(I14
I202
tp4629
a(I8
I181
tp4630
a(I31
I670
tp4631
aa(lp4632
(I56
I709
tp4633
a(I2
I172
tp4634
a(I144
I608
tp4635
a(I121
I892
tp4636
a(I16
I545
tp4637
a(I7
I207
tp4638
a(I131
I760
tp4639
a(I6
I678
tp4640
a(I2
I231
tp4641
a(I17
I844
tp4642
aa(lp4643
(I30
I586
tp4644
a(I51
I386
tp4645
a(I29
I168
tp4646
a(I62
I806
tp4647
a(I6
I959
tp4648
a(I33
I866
tp4649
a(I6
I351
tp4650
a(I33
I706
tp4651
a(I103
I843
tp4652
a(I26
I344
tp4653
aa(lp4654
(I43
I340
tp4655
a(I5
I863
tp4656
a(I108
I785
tp4657
a(I85
I419
tp4658
a(I26
I768
tp4659
a(I1
I265
tp4660
a(I34
I449
tp4661
a(I5
I864
tp4662
a(I30
I862
tp4663
a(I19
I167
tp4664
aa(lp4665
(I3
I385
tp4666
a(I14
I142
tp4667
a(I41
I974
tp4668
a(I3
I349
tp4669
a(I6
I985
tp4670
a(I68
I684
tp4671
a(I29
I552
tp4672
a(I110
I977
tp4673
a(I114
I475
tp4674
a(I41
I556
tp4675
aa(lp4676
(I35
I177
tp4677
a(I6
I870
tp4678
a(I40
I623
tp4679
a(I1
I320
tp4680
a(I3
I593
tp4681
a(I3
I111
tp4682
a(I5
I329
tp4683
a(I104
I581
tp4684
a(I37
I567
tp4685
a(I49
I276
tp4686
aa(lp4687
(I47
I960
tp4688
a(I37
I412
tp4689
a(I85
I493
tp4690
a(I26
I599
tp4691
a(I6
I306
tp4692
a(I29
I909
tp4693
a(I18
I402
tp4694
a(I26
I204
tp4695
a(I11
I129
tp4696
a(I26
I366
tp4697
aa(lp4698
(I24
I355
tp4699
a(I16
I905
tp4700
a(I83
I838
tp4701
a(I71
I723
tp4702
a(I18
I356
tp4703
a(I1
I177
tp4704
a(I17
I751
tp4705
a(I24
I297
tp4706
a(I17
I145
tp4707
a(I95
I529
tp4708
aa(lp4709
(I82
I883
tp4710
a(I47
I500
tp4711
a(I7
I142
tp4712
a(I57
I942
tp4713
a(I21
I150
tp4714
a(I71
I844
tp4715
a(I42
I865
tp4716
a(I104
I972
tp4717
a(I16
I327
tp4718
a(I1
I168
tp4719
aa(lp4720
(I106
I873
tp4721
a(I124
I838
tp4722
a(I14
I429
tp4723
a(I4
I209
tp4724
a(I6
I847
tp4725
a(I133
I906
tp4726
a(I13
I482
tp4727
a(I58
I815
tp4728
a(I15
I167
tp4729
a(I68
I933
tp4730
aa(lp4731
(I15
I466
tp4732
a(I114
I696
tp4733
a(I21
I395
tp4734
a(I15
I427
tp4735
a(I25
I600
tp4736
a(I19
I734
tp4737
a(I20
I292
tp4738
a(I53
I629
tp4739
a(I72
I612
tp4740
a(I80
I670
tp4741
aa(lp4742
(I46
I835
tp4743
a(I200
I747
tp4744
a(I6
I902
tp4745
a(I7
I919
tp4746
a(I52
I944
tp4747
a(I33
I411
tp4748
a(I44
I305
tp4749
a(I8
I713
tp4750
a(I15
I712
tp4751
a(I16
I178
tp4752
aa(lp4753
(I7
I515
tp4754
a(I73
I853
tp4755
a(I89
I946
tp4756
a(I67
I501
tp4757
a(I59
I976
tp4758
a(I5
I759
tp4759
a(I10
I233
tp4760
a(I5
I459
tp4761
a(I218
I978
tp4762
a(I14
I206
tp4763
aa(lp4764
(I65
I498
tp4765
a(I6
I150
tp4766
a(I12
I588
tp4767
a(I68
I553
tp4768
a(I2
I196
tp4769
a(I2
I151
tp4770
a(I77
I833
tp4771
a(I53
I541
tp4772
a(I28
I710
tp4773
a(I101
I604
tp4774
aa(lp4775
(I40
I754
tp4776
a(I42
I430
tp4777
a(I6
I102
tp4778
a(I19
I259
tp4779
a(I39
I743
tp4780
a(I28
I284
tp4781
a(I32
I600
tp4782
a(I14
I262
tp4783
a(I1
I572
tp4784
a(I21
I108
tp4785
aa(lp4786
(I33
I384
tp4787
a(I187
I827
tp4788
a(I1
I245
tp4789
a(I35
I912
tp4790
a(I85
I613
tp4791
a(I54
I592
tp4792
a(I19
I440
tp4793
a(I23
I969
tp4794
a(I19
I431
tp4795
a(I42
I862
tp4796
aa(lp4797
(I29
I361
tp4798
a(I16
I419
tp4799
a(I1
I116
tp4800
a(I37
I278
tp4801
a(I54
I630
tp4802
a(I34
I342
tp4803
a(I11
I423
tp4804
a(I41
I410
tp4805
a(I33
I281
tp4806
a(I27
I500
tp4807
aa(lp4808
(I46
I567
tp4809
a(I2
I297
tp4810
a(I103
I270
tp4811
a(I13
I680
tp4812
a(I9
I566
tp4813
a(I49
I348
tp4814
a(I14
I528
tp4815
a(I8
I485
tp4816
a(I13
I448
tp4817
a(I16
I753
tp4818
aa(lp4819
(I9
I226
tp4820
a(I21
I713
tp4821
a(I1
I479
tp4822
a(I5
I786
tp4823
a(I72
I690
tp4824
a(I66
I560
tp4825
a(I149
I594
tp4826
a(I53
I797
tp4827
a(I4
I753
tp4828
a(I31
I260
tp4829
aa(lp4830
(I156
I984
tp4831
a(I22
I323
tp4832
a(I32
I743
tp4833
a(I44
I146
tp4834
a(I10
I151
tp4835
a(I1
I606
tp4836
a(I9
I537
tp4837
a(I3
I275
tp4838
a(I5
I114
tp4839
a(I22
I912
tp4840
aa(lp4841
(I65
I990
tp4842
a(I46
I670
tp4843
a(I45
I573
tp4844
a(I9
I263
tp4845
a(I5
I171
tp4846
a(I17
I802
tp4847
a(I85
I572
tp4848
a(I21
I675
tp4849
a(I39
I928
tp4850
a(I219
I992
tp4851
aa(lp4852
(I1
I699
tp4853
a(I113
I906
tp4854
a(I23
I690
tp4855
a(I36
I821
tp4856
a(I19
I245
tp4857
a(I3
I792
tp4858
a(I55
I917
tp4859
a(I164
I954
tp4860
a(I19
I669
tp4861
a(I189
I966
tp4862
aa(lp4863
(I70
I911
tp4864
a(I66
I330
tp4865
a(I22
I683
tp4866
a(I58
I846
tp4867
a(I98
I805
tp4868
a(I15
I673
tp4869
a(I12
I161
tp4870
a(I69
I956
tp4871
a(I1
I286
tp4872
a(I44
I639
tp4873
aa(lp4874
(I89
I845
tp4875
a(I22
I383
tp4876
a(I42
I372
tp4877
a(I10
I233
tp4878
a(I13
I108
tp4879
a(I12
I250
tp4880
a(I16
I660
tp4881
a(I73
I466
tp4882
a(I11
I633
tp4883
a(I35
I769
tp4884
aa(lp4885
(I3
I215
tp4886
a(I3
I357
tp4887
a(I85
I579
tp4888
a(I33
I994
tp4889
a(I57
I985
tp4890
a(I40
I270
tp4891
a(I100
I557
tp4892
a(I14
I942
tp4893
a(I51
I764
tp4894
a(I38
I540
tp4895
aa(lp4896
(I1
I538
tp4897
a(I5
I995
tp4898
a(I33
I334
tp4899
a(I27
I595
tp4900
a(I19
I364
tp4901
a(I14
I121
tp4902
a(I127
I452
tp4903
a(I6
I235
tp4904
a(I32
I612
tp4905
a(I21
I393
tp4906
aa(lp4907
(I5
I407
tp4908
a(I101
I458
tp4909
a(I27
I689
tp4910
a(I30
I784
tp4911
a(I44
I222
tp4912
a(I23
I719
tp4913
a(I6
I608
tp4914
a(I51
I884
tp4915
a(I72
I918
tp4916
a(I41
I775
tp4917
aa(lp4918
(I9
I633
tp4919
a(I4
I546
tp4920
a(I4
I532
tp4921
a(I1
I471
tp4922
a(I47
I301
tp4923
a(I78
I633
tp4924
a(I28
I198
tp4925
a(I23
I235
tp4926
a(I16
I938
tp4927
a(I91
I522
tp4928
aa(lp4929
(I67
I471
tp4930
a(I130
I910
tp4931
a(I18
I704
tp4932
a(I4
I429
tp4933
a(I19
I163
tp4934
a(I42
I557
tp4935
a(I16
I416
tp4936
a(I73
I708
tp4937
a(I17
I708
tp4938
a(I25
I411
tp4939
aa(lp4940
(I128
I765
tp4941
a(I77
I776
tp4942
a(I1
I148
tp4943
a(I261
I967
tp4944
a(I6
I539
tp4945
a(I106
I946
tp4946
a(I3
I305
tp4947
a(I4
I198
tp4948
a(I18
I537
tp4949
a(I8
I517
tp4950
aa(lp4951
(I5
I156
tp4952
a(I63
I511
tp4953
a(I145
I963
tp4954
a(I46
I529
tp4955
a(I46
I722
tp4956
a(I60
I751
tp4957
a(I4
I353
tp4958
a(I11
I105
tp4959
a(I7
I153
tp4960
a(I7
I223
tp4961
aa(lp4962
(I117
I588
tp4963
a(I10
I444
tp4964
a(I21
I607
tp4965
a(I13
I597
tp4966
a(I29
I800
tp4967
a(I1
I119
tp4968
a(I11
I310
tp4969
a(I85
I386
tp4970
a(I83
I936
tp4971
a(I53
I704
tp4972
aa(lp4973
(I149
I725
tp4974
a(I1
I122
tp4975
a(I90
I499
tp4976
a(I12
I694
tp4977
a(I2
I377
tp4978
a(I29
I680
tp4979
a(I27
I240
tp4980
a(I25
I550
tp4981
a(I24
I324
tp4982
a(I7
I142
tp4983
aa(lp4984
(I3
I889
tp4985
a(I31
I425
tp4986
a(I78
I586
tp4987
a(I1
I417
tp4988
a(I39
I947
tp4989
a(I54
I487
tp4990
a(I65
I980
tp4991
a(I95
I586
tp4992
a(I67
I487
tp4993
a(I16
I906
tp4994
aa(lp4995
(I111
I907
tp4996
a(I13
I522
tp4997
a(I98
I741
tp4998
a(I13
I574
tp4999
a(I23
I780
tp5000
a(I22
I341
tp5001
a(I12
I895
tp5002
a(I47
I549
tp5003
a(I78
I476
tp5004
a(I77
I898
tp5005
aa(lp5006
(I16
I196
tp5007
a(I2
I445
tp5008
a(I16
I308
tp5009
a(I1
I892
tp5010
a(I5
I293
tp5011
a(I8
I730
tp5012
a(I48
I676
tp5013
a(I52
I409
tp5014
a(I113
I415
tp5015
a(I63
I645
tp5016
aa(lp5017
(I22
I121
tp5018
a(I5
I128
tp5019
a(I45
I807
tp5020
a(I13
I446
tp5021
a(I20
I570
tp5022
a(I20
I272
tp5023
a(I84
I951
tp5024
a(I1
I215
tp5025
a(I101
I665
tp5026
a(I27
I319
tp5027
aa(lp5028
(I75
I981
tp5029
a(I3
I169
tp5030
a(I25
I763
tp5031
a(I25
I153
tp5032
a(I23
I353
tp5033
a(I12
I147
tp5034
a(I52
I645
tp5035
a(I19
I931
tp5036
a(I18
I435
tp5037
a(I139
I914
tp5038
aa(lp5039
(I150
I631
tp5040
a(I13
I426
tp5041
a(I11
I383
tp5042
a(I2
I284
tp5043
a(I4
I457
tp5044
a(I53
I971
tp5045
a(I108
I670
tp5046
a(I30
I257
tp5047
a(I11
I173
tp5048
a(I5
I189
tp5049
aa(lp5050
(I30
I627
tp5051
a(I52
I610
tp5052
a(I12
I323
tp5053
a(I1
I127
tp5054
a(I10
I356
tp5055
a(I21
I188
tp5056
a(I38
I202
tp5057
a(I1
I846
tp5058
a(I86
I495
tp5059
a(I43
I723
tp5060
aa(lp5061
(I1
I346
tp5062
a(I14
I353
tp5063
a(I53
I842
tp5064
a(I11
I551
tp5065
a(I69
I332
tp5066
a(I6
I374
tp5067
a(I8
I932
tp5068
a(I28
I208
tp5069
a(I22
I506
tp5070
a(I55
I273
tp5071
aa(lp5072
(I1
I554
tp5073
a(I106
I564
tp5074
a(I48
I736
tp5075
a(I17
I668
tp5076
a(I3
I207
tp5077
a(I85
I365
tp5078
a(I9
I278
tp5079
a(I8
I446
tp5080
a(I15
I626
tp5081
a(I52
I375
tp5082
aa(lp5083
(I46
I477
tp5084
a(I84
I969
tp5085
a(I10
I383
tp5086
a(I4
I685
tp5087
a(I7
I974
tp5088
a(I95
I524
tp5089
a(I13
I370
tp5090
a(I10
I320
tp5091
a(I46
I416
tp5092
a(I81
I513
tp5093
aa(lp5094
(I29
I200
tp5095
a(I65
I476
tp5096
a(I13
I720
tp5097
a(I5
I527
tp5098
a(I7
I188
tp5099
a(I8
I375
tp5100
a(I16
I395
tp5101
a(I27
I894
tp5102
a(I186
I670
tp5103
a(I12
I469
tp5104
aa(lp5105
(I43
I399
tp5106
a(I10
I240
tp5107
a(I29
I834
tp5108
a(I141
I552
tp5109
a(I11
I309
tp5110
a(I199
I927
tp5111
a(I1
I125
tp5112
a(I1
I339
tp5113
a(I5
I727
tp5114
a(I22
I613
tp5115
aa(lp5116
(I50
I359
tp5117
a(I4
I657
tp5118
a(I67
I488
tp5119
a(I48
I590
tp5120
a(I7
I242
tp5121
a(I14
I103
tp5122
a(I12
I552
tp5123
a(I37
I850
tp5124
a(I3
I448
tp5125
a(I98
I741
tp5126
aa(lp5127
(I52
I982
tp5128
a(I3
I960
tp5129
a(I1
I229
tp5130
a(I56
I502
tp5131
a(I180
I968
tp5132
a(I68
I608
tp5133
a(I22
I602
tp5134
a(I64
I349
tp5135
a(I5
I362
tp5136
a(I34
I833
tp5137
aa(lp5138
(I21
I238
tp5139
a(I162
I915
tp5140
a(I30
I358
tp5141
a(I1
I129
tp5142
a(I129
I704
tp5143
a(I2
I199
tp5144
a(I27
I525
tp5145
a(I12
I212
tp5146
a(I4
I214
tp5147
a(I6
I131
tp5148
aa(lp5149
(I64
I774
tp5150
a(I42
I173
tp5151
a(I43
I388
tp5152
a(I21
I899
tp5153
a(I22
I976
tp5154
a(I29
I682
tp5155
a(I16
I454
tp5156
a(I71
I586
tp5157
a(I3
I871
tp5158
a(I55
I973
tp5159
aa(lp5160
(I14
I328
tp5161
a(I46
I465
tp5162
a(I21
I444
tp5163
a(I25
I342
tp5164
a(I19
I374
tp5165
a(I1
I806
tp5166
a(I113
I786
tp5167
a(I3
I440
tp5168
a(I65
I320
tp5169
a(I65
I892
tp5170
aa(lp5171
(I25
I726
tp5172
a(I59
I736
tp5173
a(I5
I362
tp5174
a(I5
I774
tp5175
a(I44
I332
tp5176
a(I15
I107
tp5177
a(I141
I992
tp5178
a(I21
I403
tp5179
a(I15
I300
tp5180
a(I53
I645
tp5181
aa(lp5182
(I5
I869
tp5183
a(I11
I198
tp5184
a(I63
I930
tp5185
a(I30
I658
tp5186
a(I13
I302
tp5187
a(I30
I122
tp5188
a(I78
I772
tp5189
a(I2
I209
tp5190
a(I23
I985
tp5191
a(I47
I343
tp5192
aa(lp5193
(I8
I380
tp5194
a(I16
I526
tp5195
a(I15
I285
tp5196
a(I32
I134
tp5197
a(I31
I503
tp5198
a(I6
I715
tp5199
a(I1
I430
tp5200
a(I70
I676
tp5201
a(I29
I780
tp5202
a(I72
I394
tp5203
aa(lp5204
(I9
I422
tp5205
a(I16
I734
tp5206
a(I79
I581
tp5207
a(I117
I718
tp5208
a(I22
I391
tp5209
a(I3
I752
tp5210
a(I31
I249
tp5211
a(I31
I210
tp5212
a(I3
I295
tp5213
a(I13
I249
tp5214
aa(lp5215
(I77
I941
tp5216
a(I41
I202
tp5217
a(I52
I906
tp5218
a(I4
I985
tp5219
a(I48
I840
tp5220
a(I11
I282
tp5221
a(I69
I664
tp5222
a(I20
I927
tp5223
a(I45
I994
tp5224
a(I23
I182
tp5225
aa(lp5226
(I115
I467
tp5227
a(I74
I969
tp5228
a(I3
I656
tp5229
a(I70
I552
tp5230
a(I6
I341
tp5231
a(I8
I408
tp5232
a(I9
I198
tp5233
a(I7
I750
tp5234
a(I37
I265
tp5235
a(I36
I714
tp5236
aa(lp5237
(I81
I368
tp5238
a(I38
I964
tp5239
a(I23
I518
tp5240
a(I21
I390
tp5241
a(I26
I987
tp5242
a(I201
I936
tp5243
a(I8
I190
tp5244
a(I34
I404
tp5245
a(I7
I519
tp5246
a(I1
I780
tp5247
aa(lp5248
(I54
I523
tp5249
a(I37
I874
tp5250
a(I31
I834
tp5251
a(I23
I730
tp5252
a(I47
I973
tp5253
a(I207
I865
tp5254
a(I18
I205
tp5255
a(I43
I455
tp5256
a(I19
I391
tp5257
a(I7
I770
tp5258
aa(lp5259
(I18
I485
tp5260
a(I50
I531
tp5261
a(I15
I317
tp5262
a(I1
I126
tp5263
a(I15
I280
tp5264
a(I98
I450
tp5265
a(I92
I824
tp5266
a(I93
I886
tp5267
a(I7
I768
tp5268
a(I8
I140
tp5269
aa(lp5270
(I15
I490
tp5271
a(I18
I150
tp5272
a(I9
I739
tp5273
a(I94
I916
tp5274
a(I26
I144
tp5275
a(I78
I982
tp5276
a(I39
I366
tp5277
a(I8
I854
tp5278
a(I2
I798
tp5279
a(I31
I341
tp5280
aa(lp5281
(I5
I299
tp5282
a(I29
I919
tp5283
a(I60
I326
tp5284
a(I43
I310
tp5285
a(I12
I106
tp5286
a(I18
I439
tp5287
a(I38
I473
tp5288
a(I71
I813
tp5289
a(I10
I438
tp5290
a(I4
I232
tp5291
aa(lp5292
(I4
I818
tp5293
a(I15
I516
tp5294
a(I23
I533
tp5295
a(I267
I965
tp5296
a(I30
I681
tp5297
a(I47
I367
tp5298
a(I8
I685
tp5299
a(I34
I849
tp5300
a(I33
I243
tp5301
a(I7
I255
tp5302
aa(lp5303
(I1
I441
tp5304
a(I23
I550
tp5305
a(I1
I675
tp5306
a(I41
I549
tp5307
a(I66
I547
tp5308
a(I189
I439
tp5309
a(I1
I229
tp5310
a(I1
I721
tp5311
a(I1
I201
tp5312
a(I22
I397
tp5313
aa(lp5314
(I20
I222
tp5315
a(I1
I392
tp5316
a(I3
I160
tp5317
a(I77
I490
tp5318
a(I62
I762
tp5319
a(I71
I986
tp5320
a(I31
I452
tp5321
a(I3
I479
tp5322
a(I111
I860
tp5323
a(I28
I251
tp5324
aa(lp5325
(I44
I696
tp5326
a(I25
I250
tp5327
a(I90
I899
tp5328
a(I15
I305
tp5329
a(I9
I649
tp5330
a(I166
I782
tp5331
a(I8
I122
tp5332
a(I59
I873
tp5333
a(I8
I372
tp5334
a(I35
I811
tp5335
aa(lp5336
(I55
I375
tp5337
a(I98
I696
tp5338
a(I1
I158
tp5339
a(I8
I596
tp5340
a(I38
I721
tp5341
a(I13
I788
tp5342
a(I54
I465
tp5343
a(I56
I849
tp5344
a(I90
I973
tp5345
a(I59
I646
tp5346
aa(lp5347
(I31
I374
tp5348
a(I93
I864
tp5349
a(I107
I980
tp5350
a(I14
I591
tp5351
a(I13
I889
tp5352
a(I9
I465
tp5353
a(I11
I200
tp5354
a(I75
I759
tp5355
a(I1
I244
tp5356
a(I154
I672
tp5357
aa(lp5358
(I93
I470
tp5359
a(I69
I852
tp5360
a(I64
I523
tp5361
a(I7
I941
tp5362
a(I9
I744
tp5363
a(I77
I923
tp5364
a(I1
I110
tp5365
a(I50
I844
tp5366
a(I19
I311
tp5367
a(I72
I693
tp5368
aa(lp5369
(I83
I427
tp5370
a(I161
I808
tp5371
a(I19
I174
tp5372
a(I28
I477
tp5373
a(I15
I404
tp5374
a(I1
I254
tp5375
a(I34
I590
tp5376
a(I1
I120
tp5377
a(I30
I862
tp5378
a(I7
I248
tp5379
aa(lp5380
(I7
I128
tp5381
a(I16
I442
tp5382
a(I17
I568
tp5383
a(I71
I988
tp5384
a(I251
I958
tp5385
a(I19
I858
tp5386
a(I27
I194
tp5387
a(I4
I136
tp5388
a(I24
I846
tp5389
a(I24
I406
tp5390
aa(lp5391
(I6
I373
tp5392
a(I23
I395
tp5393
a(I140
I616
tp5394
a(I52
I830
tp5395
a(I11
I846
tp5396
a(I91
I403
tp5397
a(I24
I455
tp5398
a(I8
I215
tp5399
a(I23
I883
tp5400
a(I2
I109
tp5401
aa(lp5402
(I31
I309
tp5403
a(I12
I385
tp5404
a(I21
I766
tp5405
a(I11
I164
tp5406
a(I29
I300
tp5407
a(I74
I905
tp5408
a(I60
I567
tp5409
a(I37
I531
tp5410
a(I10
I500
tp5411
a(I128
I901
tp5412
aa(lp5413
(I21
I400
tp5414
a(I21
I652
tp5415
a(I171
I634
tp5416
a(I4
I129
tp5417
a(I20
I135
tp5418
a(I9
I437
tp5419
a(I118
I890
tp5420
a(I1
I294
tp5421
a(I13
I294
tp5422
a(I1
I323
tp5423
aa(lp5424
(I10
I171
tp5425
a(I146
I955
tp5426
a(I1
I201
tp5427
a(I6
I409
tp5428
a(I11
I136
tp5429
a(I24
I302
tp5430
a(I131
I506
tp5431
a(I1
I193
tp5432
a(I8
I255
tp5433
a(I26
I590
tp5434
aa(lp5435
(I5
I411
tp5436
a(I18
I160
tp5437
a(I14
I570
tp5438
a(I11
I191
tp5439
a(I29
I886
tp5440
a(I4
I760
tp5441
a(I55
I590
tp5442
a(I46
I347
tp5443
a(I80
I413
tp5444
a(I52
I713
tp5445
aa(lp5446
(I10
I113
tp5447
a(I13
I756
tp5448
a(I224
I865
tp5449
a(I47
I423
tp5450
a(I9
I798
tp5451
a(I39
I423
tp5452
a(I7
I327
tp5453
a(I27
I347
tp5454
a(I34
I709
tp5455
a(I3
I385
tp5456
aa(lp5457
(I83
I487
tp5458
a(I3
I160
tp5459
a(I48
I595
tp5460
a(I16
I416
tp5461
a(I43
I590
tp5462
a(I2
I213
tp5463
a(I22
I586
tp5464
a(I102
I769
tp5465
a(I125
I887
tp5466
a(I26
I713
tp5467
aa(lp5468
(I59
I545
tp5469
a(I30
I706
tp5470
a(I25
I230
tp5471
a(I5
I687
tp5472
a(I44
I668
tp5473
a(I11
I233
tp5474
a(I5
I239
tp5475
a(I23
I284
tp5476
a(I89
I922
tp5477
a(I90
I565
tp5478
aa(lp5479
(I64
I870
tp5480
a(I36
I460
tp5481
a(I88
I380
tp5482
a(I107
I632
tp5483
a(I2
I441
tp5484
a(I12
I856
tp5485
a(I7
I202
tp5486
a(I89
I704
tp5487
a(I3
I771
tp5488
a(I3
I664
tp5489
aa(lp5490
(I94
I763
tp5491
a(I47
I674
tp5492
a(I1
I167
tp5493
a(I28
I686
tp5494
a(I16
I956
tp5495
a(I61
I891
tp5496
a(I46
I395
tp5497
a(I23
I100
tp5498
a(I1
I200
tp5499
a(I62
I957
tp5500
aa(lp5501
(I44
I631
tp5502
a(I1
I226
tp5503
a(I51
I685
tp5504
a(I27
I400
tp5505
a(I49
I520
tp5506
a(I6
I243
tp5507
a(I29
I571
tp5508
a(I16
I119
tp5509
a(I17
I278
tp5510
a(I115
I781
tp5511
aa(lp5512
(I10
I688
tp5513
a(I42
I383
tp5514
a(I6
I603
tp5515
a(I273
I963
tp5516
a(I32
I246
tp5517
a(I30
I919
tp5518
a(I12
I588
tp5519
a(I9
I148
tp5520
a(I28
I649
tp5521
a(I3
I100
tp5522
aa(lp5523
(I168
I659
tp5524
a(I4
I868
tp5525
a(I54
I755
tp5526
a(I24
I353
tp5527
a(I80
I912
tp5528
a(I8
I253
tp5529
a(I68
I865
tp5530
a(I23
I322
tp5531
a(I1
I469
tp5532
a(I58
I838
tp5533
aa(lp5534
(I14
I105
tp5535
a(I143
I700
tp5536
a(I8
I318
tp5537
a(I3
I651
tp5538
a(I72
I951
tp5539
a(I46
I932
tp5540
a(I60
I830
tp5541
a(I23
I658
tp5542
a(I35
I329
tp5543
a(I18
I582
tp5544
aa(lp5545
(I3
I120
tp5546
a(I6
I127
tp5547
a(I75
I686
tp5548
a(I17
I955
tp5549
a(I13
I983
tp5550
a(I153
I600
tp5551
a(I20
I558
tp5552
a(I88
I700
tp5553
a(I52
I730
tp5554
a(I37
I973
tp5555
aa(lp5556
(I86
I596
tp5557
a(I14
I922
tp5558
a(I14
I179
tp5559
a(I3
I829
tp5560
a(I46
I449
tp5561
a(I32
I853
tp5562
a(I1
I119
tp5563
a(I98
I488
tp5564
a(I16
I194
tp5565
a(I23
I404
tp5566
aa(lp5567
(I116
I956
tp5568
a(I10
I272
tp5569
a(I3
I121
tp5570
a(I57
I878
tp5571
a(I86
I898
tp5572
a(I108
I804
tp5573
a(I6
I536
tp5574
a(I51
I648
tp5575
a(I7
I222
tp5576
a(I103
I749
tp5577
aa(lp5578
(I61
I421
tp5579
a(I93
I709
tp5580
a(I15
I805
tp5581
a(I34
I955
tp5582
a(I22
I164
tp5583
a(I1
I228
tp5584
a(I4
I826
tp5585
a(I64
I707
tp5586
a(I135
I955
tp5587
a(I21
I594
tp5588
aa(lp5589
(I35
I617
tp5590
a(I27
I735
tp5591
a(I38
I826
tp5592
a(I48
I975
tp5593
a(I218
I831
tp5594
a(I20
I222
tp5595
a(I34
I622
tp5596
a(I3
I996
tp5597
a(I47
I590
tp5598
a(I52
I848
tp5599
aa(lp5600
(I5
I241
tp5601
a(I3
I306
tp5602
a(I68
I919
tp5603
a(I46
I515
tp5604
a(I18
I510
tp5605
a(I36
I463
tp5606
a(I313
I892
tp5607
a(I17
I539
tp5608
a(I11
I808
tp5609
a(I27
I746
tp5610
aa(lp5611
(I14
I670
tp5612
a(I158
I836
tp5613
a(I9
I634
tp5614
a(I31
I849
tp5615
a(I16
I439
tp5616
a(I1
I410
tp5617
a(I111
I575
tp5618
a(I9
I188
tp5619
a(I34
I223
tp5620
a(I27
I611
tp5621
aa(lp5622
(I29
I870
tp5623
a(I207
I911
tp5624
a(I2
I195
tp5625
a(I5
I721
tp5626
a(I106
I732
tp5627
a(I46
I867
tp5628
a(I51
I640
tp5629
a(I52
I571
tp5630
a(I15
I173
tp5631
a(I5
I589
tp5632
aa(lp5633
(I132
I922
tp5634
a(I11
I664
tp5635
a(I7
I347
tp5636
a(I4
I712
tp5637
a(I126
I973
tp5638
a(I1
I108
tp5639
a(I69
I688
tp5640
a(I1
I143
tp5641
a(I13
I711
tp5642
a(I90
I307
tp5643
aa(lp5644
(I48
I629
tp5645
a(I48
I492
tp5646
a(I17
I589
tp5647
a(I110
I796
tp5648
a(I15
I636
tp5649
a(I11
I316
tp5650
a(I7
I320
tp5651
a(I35
I383
tp5652
a(I24
I778
tp5653
a(I73
I373
tp5654
aa(lp5655
(I6
I450
tp5656
a(I69
I876
tp5657
a(I6
I980
tp5658
a(I106
I804
tp5659
a(I14
I176
tp5660
a(I63
I958
tp5661
a(I3
I367
tp5662
a(I116
I852
tp5663
a(I178
I891
tp5664
a(I7
I400
tp5665
aa(lp5666
(I14
I371
tp5667
a(I113
I951
tp5668
a(I47
I926
tp5669
a(I8
I458
tp5670
a(I30
I746
tp5671
a(I191
I583
tp5672
a(I19
I548
tp5673
a(I65
I818
tp5674
a(I8
I453
tp5675
a(I12
I756
tp5676
aa(lp5677
(I54
I897
tp5678
a(I24
I967
tp5679
a(I26
I258
tp5680
a(I4
I445
tp5681
a(I77
I957
tp5682
a(I138
I742
tp5683
a(I113
I696
tp5684
a(I2
I272
tp5685
a(I38
I799
tp5686
a(I59
I919
tp5687
aa(lp5688
(I14
I894
tp5689
a(I28
I148
tp5690
a(I54
I934
tp5691
a(I2
I293
tp5692
a(I31
I470
tp5693
a(I30
I459
tp5694
a(I28
I129
tp5695
a(I17
I325
tp5696
a(I18
I346
tp5697
a(I7
I685
tp5698
aa(lp5699
(I109
I749
tp5700
a(I95
I851
tp5701
a(I66
I792
tp5702
a(I130
I902
tp5703
a(I3
I436
tp5704
a(I121
I902
tp5705
a(I24
I919
tp5706
a(I24
I364
tp5707
a(I3
I406
tp5708
a(I15
I820
tp5709
aa(lp5710
(I52
I618
tp5711
a(I149
I990
tp5712
a(I43
I619
tp5713
a(I23
I869
tp5714
a(I3
I506
tp5715
a(I11
I422
tp5716
a(I16
I275
tp5717
a(I29
I553
tp5718
a(I2
I964
tp5719
a(I168
I624
tp5720
aa(lp5721
(I13
I156
tp5722
a(I10
I142
tp5723
a(I29
I657
tp5724
a(I8
I383
tp5725
a(I14
I337
tp5726
a(I116
I757
tp5727
a(I74
I797
tp5728
a(I137
I780
tp5729
a(I8
I263
tp5730
a(I16
I821
tp5731
aa(lp5732
(I48
I997
tp5733
a(I17
I734
tp5734
a(I204
I895
tp5735
a(I17
I512
tp5736
a(I48
I473
tp5737
a(I16
I519
tp5738
a(I61
I260
tp5739
a(I6
I205
tp5740
a(I1
I116
tp5741
a(I6
I743
tp5742
aa(lp5743
(I71
I912
tp5744
a(I1
I101
tp5745
a(I18
I445
tp5746
a(I43
I388
tp5747
a(I19
I398
tp5748
a(I8
I758
tp5749
a(I202
I891
tp5750
a(I77
I385
tp5751
a(I3
I628
tp5752
a(I8
I517
tp5753
aa(lp5754
(I5
I164
tp5755
a(I9
I279
tp5756
a(I35
I682
tp5757
a(I5
I149
tp5758
a(I5
I263
tp5759
a(I51
I572
tp5760
a(I57
I483
tp5761
a(I229
I965
tp5762
a(I52
I457
tp5763
a(I5
I825
tp5764
aa(lp5765
(I8
I246
tp5766
a(I57
I759
tp5767
a(I82
I818
tp5768
a(I13
I628
tp5769
a(I10
I445
tp5770
a(I6
I756
tp5771
a(I52
I468
tp5772
a(I29
I286
tp5773
a(I150
I936
tp5774
a(I86
I784
tp5775
aa(lp5776
(I69
I782
tp5777
a(I9
I482
tp5778
a(I13
I916
tp5779
a(I43
I359
tp5780
a(I80
I673
tp5781
a(I9
I255
tp5782
a(I100
I407
tp5783
a(I1
I102
tp5784
a(I30
I957
tp5785
a(I15
I272
tp5786
aa(lp5787
(I22
I341
tp5788
a(I1
I332
tp5789
a(I10
I797
tp5790
a(I79
I794
tp5791
a(I35
I911
tp5792
a(I120
I583
tp5793
a(I1
I131
tp5794
a(I24
I377
tp5795
a(I102
I660
tp5796
a(I79
I865
tp5797
aa(lp5798
(I54
I967
tp5799
a(I30
I999
tp5800
a(I73
I489
tp5801
a(I57
I627
tp5802
a(I193
I926
tp5803
a(I7
I417
tp5804
a(I1
I316
tp5805
a(I104
I759
tp5806
a(I37
I846
tp5807
a(I1
I271
tp5808
aa(lp5809
(I17
I198
tp5810
a(I23
I698
tp5811
a(I106
I778
tp5812
a(I21
I968
tp5813
a(I90
I553
tp5814
a(I23
I378
tp5815
a(I75
I926
tp5816
a(I23
I664
tp5817
a(I3
I561
tp5818
a(I16
I135
tp5819
aa(lp5820
(I15
I289
tp5821
a(I24
I134
tp5822
a(I9
I646
tp5823
a(I44
I914
tp5824
a(I13
I959
tp5825
a(I75
I981
tp5826
a(I21
I335
tp5827
a(I245
I969
tp5828
a(I5
I189
tp5829
a(I1
I137
tp5830
aa(lp5831
(I17
I157
tp5832
a(I5
I800
tp5833
a(I19
I934
tp5834
a(I19
I867
tp5835
a(I96
I843
tp5836
a(I33
I210
tp5837
a(I141
I763
tp5838
a(I9
I555
tp5839
a(I21
I973
tp5840
a(I14
I150
tp5841
aa(lp5842
(I59
I775
tp5843
a(I26
I730
tp5844
a(I29
I176
tp5845
a(I3
I158
tp5846
a(I77
I718
tp5847
a(I43
I473
tp5848
a(I161
I988
tp5849
a(I7
I507
tp5850
a(I25
I604
tp5851
a(I22
I965
tp5852
aa(lp5853
(I6
I531
tp5854
a(I68
I786
tp5855
a(I7
I196
tp5856
a(I7
I129
tp5857
a(I12
I172
tp5858
a(I1
I450
tp5859
a(I5
I331
tp5860
a(I42
I761
tp5861
a(I254
I947
tp5862
a(I36
I267
tp5863
aa(lp5864
(I13
I898
tp5865
a(I68
I780
tp5866
a(I26
I535
tp5867
a(I30
I950
tp5868
a(I19
I153
tp5869
a(I46
I821
tp5870
a(I9
I179
tp5871
a(I116
I694
tp5872
a(I28
I531
tp5873
a(I79
I748
tp5874
aa(lp5875
(I47
I373
tp5876
a(I54
I509
tp5877
a(I13
I624
tp5878
a(I39
I628
tp5879
a(I15
I897
tp5880
a(I78
I815
tp5881
a(I66
I862
tp5882
a(I66
I982
tp5883
a(I16
I535
tp5884
a(I68
I478
tp5885
aa(lp5886
(I6
I226
tp5887
a(I128
I529
tp5888
a(I5
I634
tp5889
a(I166
I829
tp5890
a(I6
I405
tp5891
a(I17
I558
tp5892
a(I1
I896
tp5893
a(I5
I471
tp5894
a(I72
I686
tp5895
a(I20
I208
tp5896
aa(lp5897
(I123
I741
tp5898
a(I10
I158
tp5899
a(I9
I212
tp5900
a(I4
I526
tp5901
a(I6
I137
tp5902
a(I3
I497
tp5903
a(I7
I545
tp5904
a(I20
I134
tp5905
a(I6
I872
tp5906
a(I215
I923
tp5907
aa(lp5908
(I189
I613
tp5909
a(I15
I155
tp5910
a(I37
I740
tp5911
a(I35
I887
tp5912
a(I25
I991
tp5913
a(I1
I142
tp5914
a(I6
I228
tp5915
a(I12
I717
tp5916
a(I50
I594
tp5917
a(I30
I358
tp5918
aa(lp5919
(I39
I477
tp5920
a(I1
I844
tp5921
a(I12
I206
tp5922
a(I126
I697
tp5923
a(I3
I451
tp5924
a(I23
I415
tp5925
a(I94
I354
tp5926
a(I44
I765
tp5927
a(I23
I922
tp5928
a(I7
I971
tp5929
aa(lp5930
(I1
I140
tp5931
a(I75
I421
tp5932
a(I21
I938
tp5933
a(I25
I550
tp5934
a(I33
I359
tp5935
a(I56
I869
tp5936
a(I29
I553
tp5937
a(I37
I308
tp5938
a(I19
I243
tp5939
a(I51
I634
tp5940
aa(lp5941
(I1
I103
tp5942
a(I14
I676
tp5943
a(I22
I558
tp5944
a(I47
I827
tp5945
a(I106
I949
tp5946
a(I24
I434
tp5947
a(I121
I481
tp5948
a(I27
I643
tp5949
a(I100
I677
tp5950
a(I14
I880
tp5951
aa(lp5952
(I23
I202
tp5953
a(I14
I197
tp5954
a(I1
I293
tp5955
a(I35
I883
tp5956
a(I59
I211
tp5957
a(I1
I182
tp5958
a(I89
I645
tp5959
a(I7
I325
tp5960
a(I5
I451
tp5961
a(I9
I167
tp5962
aa(lp5963
(I32
I736
tp5964
a(I20
I822
tp5965
a(I5
I286
tp5966
a(I16
I199
tp5967
a(I2
I345
tp5968
a(I105
I997
tp5969
a(I47
I294
tp5970
a(I37
I616
tp5971
a(I65
I514
tp5972
a(I71
I625
tp5973
aa(lp5974
(I1
I187
tp5975
a(I5
I755
tp5976
a(I209
I850
tp5977
a(I36
I297
tp5978
a(I9
I583
tp5979
a(I100
I719
tp5980
a(I4
I121
tp5981
a(I131
I998
tp5982
a(I2
I245
tp5983
a(I24
I766
tp5984
aa(lp5985
(I12
I185
tp5986
a(I25
I782
tp5987
a(I16
I241
tp5988
a(I204
I605
tp5989
a(I73
I918
tp5990
a(I5
I305
tp5991
a(I11
I207
tp5992
a(I13
I740
tp5993
a(I23
I658
tp5994
a(I18
I567
tp5995
aa(lp5996
(I12
I589
tp5997
a(I15
I331
tp5998
a(I7
I129
tp5999
a(I10
I581
tp6000
a(I69
I389
tp6001
a(I45
I670
tp6002
a(I41
I514
tp6003
a(I56
I307
tp6004
a(I19
I331
tp6005
a(I34
I903
tp6006
aa(lp6007
(I54
I882
tp6008
a(I23
I194
tp6009
a(I10
I106
tp6010
a(I6
I492
tp6011
a(I30
I825
tp6012
a(I18
I199
tp6013
a(I80
I431
tp6014
a(I45
I601
tp6015
a(I26
I756
tp6016
a(I10
I442
tp6017
aa(lp6018
(I4
I993
tp6019
a(I14
I746
tp6020
a(I18
I246
tp6021
a(I38
I153
tp6022
a(I21
I803
tp6023
a(I27
I539
tp6024
a(I22
I656
tp6025
a(I92
I564
tp6026
a(I56
I713
tp6027
a(I30
I712
tp6028
aa(lp6029
(I17
I772
tp6030
a(I1
I325
tp6031
a(I78
I670
tp6032
a(I152
I587
tp6033
a(I96
I893
tp6034
a(I1
I399
tp6035
a(I16
I250
tp6036
a(I43
I988
tp6037
a(I51
I542
tp6038
a(I18
I534
tp6039
aa(lp6040
(I87
I667
tp6041
a(I1
I180
tp6042
a(I12
I509
tp6043
a(I37
I259
tp6044
a(I7
I721
tp6045
a(I16
I101
tp6046
a(I5
I259
tp6047
a(I38
I676
tp6048
a(I77
I631
tp6049
a(I47
I736
tp6050
aa(lp6051
(I3
I196
tp6052
a(I30
I337
tp6053
a(I8
I478
tp6054
a(I13
I186
tp6055
a(I9
I523
tp6056
a(I7
I337
tp6057
a(I278
I977
tp6058
a(I171
I986
tp6059
a(I30
I716
tp6060
a(I5
I532
tp6061
aa(lp6062
(I3
I945
tp6063
a(I6
I193
tp6064
a(I17
I759
tp6065
a(I4
I670
tp6066
a(I102
I652
tp6067
a(I18
I367
tp6068
a(I77
I886
tp6069
a(I27
I173
tp6070
a(I15
I836
tp6071
a(I153
I734
tp6072
aa(lp6073
(I19
I622
tp6074
a(I28
I243
tp6075
a(I56
I501
tp6076
a(I35
I525
tp6077
a(I73
I816
tp6078
a(I44
I548
tp6079
a(I72
I903
tp6080
a(I10
I717
tp6081
a(I120
I795
tp6082
a(I1
I533
tp6083
aa(lp6084
(I122
I589
tp6085
a(I80
I773
tp6086
a(I5
I649
tp6087
a(I80
I862
tp6088
a(I2
I979
tp6089
a(I42
I307
tp6090
a(I12
I305
tp6091
a(I38
I441
tp6092
a(I19
I544
tp6093
a(I23
I745
tp6094
aa(lp6095
(I3
I237
tp6096
a(I95
I907
tp6097
a(I183
I998
tp6098
a(I42
I940
tp6099
a(I5
I385
tp6100
a(I31
I311
tp6101
a(I78
I972
tp6102
a(I10
I131
tp6103
a(I2
I918
tp6104
a(I109
I868
tp6105
aa(lp6106
(I126
I933
tp6107
a(I1
I447
tp6108
a(I114
I875
tp6109
a(I30
I324
tp6110
a(I38
I535
tp6111
a(I36
I865
tp6112
a(I5
I902
tp6113
a(I83
I963
tp6114
a(I45
I325
tp6115
a(I29
I716
tp6116
aa(lp6117
(I60
I434
tp6118
a(I13
I170
tp6119
a(I7
I198
tp6120
a(I16
I644
tp6121
a(I43
I307
tp6122
a(I124
I536
tp6123
a(I7
I341
tp6124
a(I9
I513
tp6125
a(I5
I853
tp6126
a(I18
I396
tp6127
aa(lp6128
(I22
I233
tp6129
a(I40
I725
tp6130
a(I133
I716
tp6131
a(I17
I759
tp6132
a(I7
I569
tp6133
a(I2
I527
tp6134
a(I182
I622
tp6135
a(I22
I569
tp6136
a(I1
I105
tp6137
a(I6
I259
tp6138
aa(lp6139
(I10
I259
tp6140
a(I17
I590
tp6141
a(I30
I263
tp6142
a(I98
I696
tp6143
a(I8
I298
tp6144
a(I29
I787
tp6145
a(I51
I872
tp6146
a(I166
I921
tp6147
a(I67
I687
tp6148
a(I6
I439
tp6149
aa(lp6150
(I4
I546
tp6151
a(I26
I154
tp6152
a(I2
I307
tp6153
a(I48
I379
tp6154
a(I15
I429
tp6155
a(I57
I381
tp6156
a(I60
I879
tp6157
a(I97
I997
tp6158
a(I2
I237
tp6159
a(I10
I154
tp6160
aa(lp6161
(I301
I872
tp6162
a(I34
I272
tp6163
a(I11
I251
tp6164
a(I5
I659
tp6165
a(I25
I706
tp6166
a(I37
I376
tp6167
a(I1
I376
tp6168
a(I53
I897
tp6169
a(I16
I893
tp6170
a(I1
I148
tp6171
aa(lp6172
(I19
I705
tp6173
a(I25
I885
tp6174
a(I20
I482
tp6175
a(I5
I627
tp6176
a(I27
I389
tp6177
a(I6
I941
tp6178
a(I253
I622
tp6179
a(I6
I466
tp6180
a(I24
I909
tp6181
a(I28
I249
tp6182
aa(lp6183
(I9
I868
tp6184
a(I33
I652
tp6185
a(I1
I325
tp6186
a(I30
I150
tp6187
a(I30
I621
tp6188
a(I5
I919
tp6189
a(I39
I135
tp6190
a(I17
I707
tp6191
a(I18
I573
tp6192
a(I55
I761
tp6193
aa(lp6194
(I29
I703
tp6195
a(I4
I494
tp6196
a(I99
I696
tp6197
a(I1
I171
tp6198
a(I31
I125
tp6199
a(I59
I912
tp6200
a(I9
I504
tp6201
a(I52
I976
tp6202
a(I71
I478
tp6203
a(I8
I606
tp6204
aa(lp6205
(I3
I246
tp6206
a(I56
I945
tp6207
a(I6
I315
tp6208
a(I22
I530
tp6209
a(I309
I950
tp6210
a(I31
I676
tp6211
a(I37
I310
tp6212
a(I13
I263
tp6213
a(I2
I138
tp6214
a(I38
I814
tp6215
aa(lp6216
(I11
I340
tp6217
a(I48
I394
tp6218
a(I7
I658
tp6219
a(I1
I516
tp6220
a(I94
I817
tp6221
a(I10
I756
tp6222
a(I83
I427
tp6223
a(I25
I343
tp6224
a(I11
I230
tp6225
a(I43
I334
tp6226
aa(lp6227
(I58
I566
tp6228
a(I109
I516
tp6229
a(I12
I741
tp6230
a(I33
I900
tp6231
a(I3
I125
tp6232
a(I3
I205
tp6233
a(I14
I126
tp6234
a(I42
I409
tp6235
a(I20
I254
tp6236
a(I7
I223
tp6237
aa(lp6238
(I9
I535
tp6239
a(I48
I888
tp6240
a(I30
I154
tp6241
a(I21
I718
tp6242
a(I44
I273
tp6243
a(I2
I106
tp6244
a(I70
I737
tp6245
a(I78
I664
tp6246
a(I34
I760
tp6247
a(I1
I239
tp6248
aa(lp6249
(I221
I791
tp6250
a(I60
I612
tp6251
a(I93
I972
tp6252
a(I31
I352
tp6253
a(I3
I206
tp6254
a(I16
I593
tp6255
a(I44
I724
tp6256
a(I8
I364
tp6257
a(I1
I614
tp6258
a(I14
I266
tp6259
aa(lp6260
(I12
I612
tp6261
a(I13
I302
tp6262
a(I67
I713
tp6263
a(I5
I144
tp6264
a(I20
I583
tp6265
a(I32
I836
tp6266
a(I21
I391
tp6267
a(I36
I687
tp6268
a(I25
I262
tp6269
a(I53
I200
tp6270
aa(lp6271
(I2
I393
tp6272
a(I41
I329
tp6273
a(I11
I343
tp6274
a(I99
I482
tp6275
a(I12
I728
tp6276
a(I5
I728
tp6277
a(I1
I886
tp6278
a(I2
I107
tp6279
a(I105
I722
tp6280
a(I169
I922
tp6281
aa(lp6282
(I93
I506
tp6283
a(I124
I628
tp6284
a(I4
I345
tp6285
a(I13
I143
tp6286
a(I1
I161
tp6287
a(I24
I191
tp6288
a(I16
I939
tp6289
a(I33
I727
tp6290
a(I9
I173
tp6291
a(I3
I355
tp6292
aa(lp6293
(I129
I527
tp6294
a(I13
I859
tp6295
a(I2
I341
tp6296
a(I8
I630
tp6297
a(I54
I496
tp6298
a(I7
I392
tp6299
a(I37
I851
tp6300
a(I118
I986
tp6301
a(I74
I983
tp6302
a(I54
I558
tp6303
aa(lp6304
(I16
I248
tp6305
a(I85
I622
tp6306
a(I1
I191
tp6307
a(I15
I862
tp6308
a(I58
I436
tp6309
a(I12
I410
tp6310
a(I86
I857
tp6311
a(I19
I169
tp6312
a(I71
I514
tp6313
a(I3
I403
tp6314
aa(lp6315
(I54
I464
tp6316
a(I39
I346
tp6317
a(I41
I563
tp6318
a(I1
I720
tp6319
a(I8
I300
tp6320
a(I29
I234
tp6321
a(I12
I936
tp6322
a(I14
I945
tp6323
a(I97
I398
tp6324
a(I12
I918
tp6325
aa(lp6326
(I67
I949
tp6327
a(I35
I801
tp6328
a(I62
I973
tp6329
a(I85
I679
tp6330
a(I2
I617
tp6331
a(I31
I677
tp6332
a(I28
I460
tp6333
a(I12
I974
tp6334
a(I20
I977
tp6335
a(I119
I402
tp6336
aa(lp6337
(I15
I464
tp6338
a(I7
I112
tp6339
a(I33
I486
tp6340
a(I13
I357
tp6341
a(I79
I965
tp6342
a(I42
I220
tp6343
a(I47
I835
tp6344
a(I79
I689
tp6345
a(I40
I735
tp6346
a(I10
I268
tp6347
aa(lp6348
(I35
I505
tp6349
a(I90
I471
tp6350
a(I42
I883
tp6351
a(I10
I234
tp6352
a(I90
I852
tp6353
a(I26
I948
tp6354
a(I1
I703
tp6355
a(I91
I938
tp6356
a(I41
I350
tp6357
a(I16
I382
tp6358
aa(lp6359
(I10
I535
tp6360
a(I99
I947
tp6361
a(I24
I696
tp6362
a(I10
I124
tp6363
a(I77
I975
tp6364
a(I101
I942
tp6365
a(I69
I811
tp6366
a(I10
I193
tp6367
a(I29
I670
tp6368
a(I84
I627
tp6369
aa(lp6370
(I18
I220
tp6371
a(I34
I221
tp6372
a(I1
I330
tp6373
a(I6
I415
tp6374
a(I46
I653
tp6375
a(I241
I652
tp6376
a(I1
I302
tp6377
a(I2
I216
tp6378
a(I1
I740
tp6379
a(I13
I436
tp6380
aa(lp6381
(I32
I635
tp6382
a(I23
I458
tp6383
a(I19
I453
tp6384
a(I42
I228
tp6385
a(I44
I883
tp6386
a(I124
I976
tp6387
a(I37
I582
tp6388
a(I31
I506
tp6389
a(I55
I674
tp6390
a(I24
I719
tp6391
aa(lp6392
(I11
I972
tp6393
a(I20
I434
tp6394
a(I70
I733
tp6395
a(I2
I277
tp6396
a(I56
I230
tp6397
a(I5
I957
tp6398
a(I12
I551
tp6399
a(I15
I336
tp6400
a(I69
I336
tp6401
a(I47
I834
tp6402
aa(lp6403
(I83
I498
tp6404
a(I3
I135
tp6405
a(I5
I780
tp6406
a(I151
I735
tp6407
a(I5
I267
tp6408
a(I18
I335
tp6409
a(I27
I594
tp6410
a(I44
I826
tp6411
a(I21
I449
tp6412
a(I107
I920
tp6413
aa(lp6414
(I134
I854
tp6415
a(I3
I127
tp6416
a(I17
I569
tp6417
a(I24
I309
tp6418
a(I55
I981
tp6419
a(I40
I646
tp6420
a(I32
I835
tp6421
a(I2
I297
tp6422
a(I104
I742
tp6423
a(I121
I829
tp6424
aa(lp6425
(I45
I316
tp6426
a(I34
I516
tp6427
a(I3
I167
tp6428
a(I72
I492
tp6429
a(I23
I192
tp6430
a(I1
I215
tp6431
a(I86
I886
tp6432
a(I22
I317
tp6433
a(I40
I646
tp6434
a(I2
I204
tp6435
aa(lp6436
(I41
I886
tp6437
a(I5
I328
tp6438
a(I24
I951
tp6439
a(I52
I443
tp6440
a(I4
I294
tp6441
a(I57
I714
tp6442
a(I29
I408
tp6443
a(I33
I432
tp6444
a(I21
I796
tp6445
a(I90
I333
tp6446
aa(lp6447
(I4
I957
tp6448
a(I2
I277
tp6449
a(I138
I737
tp6450
a(I15
I183
tp6451
a(I116
I991
tp6452
a(I14
I219
tp6453
a(I118
I809
tp6454
a(I46
I806
tp6455
a(I10
I611
tp6456
a(I20
I345
tp6457
aa(lp6458
(I9
I343
tp6459
a(I5
I154
tp6460
a(I55
I635
tp6461
a(I27
I193
tp6462
a(I159
I882
tp6463
a(I33
I800
tp6464
a(I19
I294
tp6465
a(I6
I625
tp6466
a(I2
I643
tp6467
a(I108
I713
tp6468
aa(lp6469
(I32
I472
tp6470
a(I10
I115
tp6471
a(I42
I971
tp6472
a(I34
I767
tp6473
a(I21
I338
tp6474
a(I29
I383
tp6475
a(I1
I123
tp6476
a(I72
I923
tp6477
a(I83
I859
tp6478
a(I157
I933
tp6479
aa(lp6480
(I26
I389
tp6481
a(I6
I473
tp6482
a(I8
I726
tp6483
a(I81
I626
tp6484
a(I164
I805
tp6485
a(I41
I615
tp6486
a(I2
I990
tp6487
a(I1
I153
tp6488
a(I63
I411
tp6489
a(I77
I850
tp6490
aa(lp6491
(I18
I482
tp6492
a(I2
I320
tp6493
a(I30
I532
tp6494
a(I4
I576
tp6495
a(I31
I797
tp6496
a(I196
I872
tp6497
a(I38
I211
tp6498
a(I5
I264
tp6499
a(I10
I958
tp6500
a(I65
I407
tp6501
aa(lp6502
(I1
I214
tp6503
a(I1
I715
tp6504
a(I16
I335
tp6505
a(I15
I614
tp6506
a(I8
I514
tp6507
a(I9
I347
tp6508
a(I88
I362
tp6509
a(I51
I148
tp6510
a(I9
I308
tp6511
a(I1
I316
tp6512
aa(lp6513
(I15
I934
tp6514
a(I107
I854
tp6515
a(I70
I960
tp6516
a(I31
I650
tp6517
a(I26
I667
tp6518
a(I6
I355
tp6519
a(I39
I313
tp6520
a(I27
I503
tp6521
a(I71
I324
tp6522
a(I7
I307
tp6523
aa(lp6524
(I59
I822
tp6525
a(I18
I650
tp6526
a(I2
I116
tp6527
a(I1
I266
tp6528
a(I9
I164
tp6529
a(I1
I996
tp6530
a(I5
I508
tp6531
a(I70
I797
tp6532
a(I99
I455
tp6533
a(I211
I865
tp6534
aa(lp6535
(I52
I715
tp6536
a(I1
I129
tp6537
a(I1
I612
tp6538
a(I277
I848
tp6539
a(I31
I378
tp6540
a(I26
I836
tp6541
a(I26
I796
tp6542
a(I6
I394
tp6543
a(I36
I353
tp6544
a(I31
I418
tp6545
aa(lp6546
(I16
I609
tp6547
a(I15
I165
tp6548
a(I26
I917
tp6549
a(I42
I696
tp6550
a(I68
I953
tp6551
a(I273
I800
tp6552
a(I4
I142
tp6553
a(I30
I420
tp6554
a(I7
I487
tp6555
a(I1
I108
tp6556
aa(lp6557
(I95
I724
tp6558
a(I9
I907
tp6559
a(I5
I480
tp6560
a(I4
I269
tp6561
a(I17
I633
tp6562
a(I109
I903
tp6563
a(I161
I546
tp6564
a(I41
I757
tp6565
a(I21
I392
tp6566
a(I11
I490
tp6567
aa(lp6568
(I49
I372
tp6569
a(I69
I968
tp6570
a(I19
I490
tp6571
a(I49
I242
tp6572
a(I6
I134
tp6573
a(I74
I460
tp6574
a(I5
I356
tp6575
a(I50
I938
tp6576
a(I1
I409
tp6577
a(I18
I955
tp6578
aa(lp6579
(I83
I858
tp6580
a(I30
I308
tp6581
a(I53
I720
tp6582
a(I11
I951
tp6583
a(I28
I638
tp6584
a(I1
I117
tp6585
a(I3
I201
tp6586
a(I29
I416
tp6587
a(I138
I627
tp6588
a(I104
I947
tp6589
aa(lp6590
(I84
I752
tp6591
a(I12
I188
tp6592
a(I39
I311
tp6593
a(I98
I929
tp6594
a(I61
I456
tp6595
a(I32
I367
tp6596
a(I5
I554
tp6597
a(I46
I780
tp6598
a(I13
I961
tp6599
a(I10
I332
tp6600
aa(lp6601
(I126
I721
tp6602
a(I66
I821
tp6603
a(I1
I203
tp6604
a(I91
I403
tp6605
a(I22
I828
tp6606
a(I12
I911
tp6607
a(I27
I393
tp6608
a(I34
I423
tp6609
a(I13
I787
tp6610
a(I47
I921
tp6611
aa(lp6612
(I22
I447
tp6613
a(I19
I839
tp6614
a(I122
I529
tp6615
a(I66
I338
tp6616
a(I83
I998
tp6617
a(I1
I597
tp6618
a(I14
I680
tp6619
a(I87
I886
tp6620
a(I2
I471
tp6621
a(I27
I681
tp6622
aa(lp6623
(I107
I896
tp6624
a(I1
I348
tp6625
a(I54
I996
tp6626
a(I36
I493
tp6627
a(I127
I678
tp6628
a(I40
I445
tp6629
a(I4
I517
tp6630
a(I53
I931
tp6631
a(I13
I957
tp6632
a(I107
I774
tp6633
aa(lp6634
(I28
I633
tp6635
a(I28
I524
tp6636
a(I91
I686
tp6637
a(I95
I829
tp6638
a(I16
I535
tp6639
a(I36
I448
tp6640
a(I14
I435
tp6641
a(I32
I150
tp6642
a(I2
I130
tp6643
a(I20
I957
tp6644
aa(lp6645
(I49
I367
tp6646
a(I1
I263
tp6647
a(I117
I987
tp6648
a(I53
I766
tp6649
a(I43
I213
tp6650
a(I1
I309
tp6651
a(I24
I395
tp6652
a(I83
I999
tp6653
a(I9
I299
tp6654
a(I9
I225
tp6655
aa(lp6656
(I1
I143
tp6657
a(I41
I497
tp6658
a(I17
I350
tp6659
a(I38
I532
tp6660
a(I17
I580
tp6661
a(I16
I211
tp6662
a(I124
I663
tp6663
a(I12
I682
tp6664
a(I87
I565
tp6665
a(I35
I535
tp6666
aa(lp6667
(I32
I574
tp6668
a(I1
I137
tp6669
a(I38
I463
tp6670
a(I41
I496
tp6671
a(I7
I869
tp6672
a(I27
I536
tp6673
a(I268
I933
tp6674
a(I46
I816
tp6675
a(I27
I980
tp6676
a(I21
I241
tp6677
aa(lp6678
(I6
I575
tp6679
a(I7
I957
tp6680
a(I31
I118
tp6681
a(I3
I606
tp6682
a(I33
I564
tp6683
a(I22
I757
tp6684
a(I139
I877
tp6685
a(I48
I676
tp6686
a(I31
I321
tp6687
a(I37
I812
tp6688
aa(lp6689
(I1
I100
tp6690
a(I46
I401
tp6691
a(I35
I294
tp6692
a(I1
I816
tp6693
a(I26
I364
tp6694
a(I45
I636
tp6695
a(I6
I568
tp6696
a(I50
I603
tp6697
a(I128
I882
tp6698
a(I61
I488
tp6699
aa(lp6700
(I1
I516
tp6701
a(I145
I828
tp6702
a(I11
I807
tp6703
a(I153
I720
tp6704
a(I48
I826
tp6705
a(I39
I924
tp6706
a(I66
I709
tp6707
a(I9
I533
tp6708
a(I6
I469
tp6709
a(I75
I630
tp6710
aa(lp6711
(I42
I983
tp6712
a(I66
I926
tp6713
a(I51
I899
tp6714
a(I5
I188
tp6715
a(I4
I729
tp6716
a(I37
I768
tp6717
a(I12
I218
tp6718
a(I4
I358
tp6719
a(I118
I308
tp6720
a(I10
I261
tp6721
aa(lp6722
(I7
I392
tp6723
a(I33
I275
tp6724
a(I190
I746
tp6725
a(I69
I705
tp6726
a(I15
I661
tp6727
a(I17
I343
tp6728
a(I1
I990
tp6729
a(I53
I491
tp6730
a(I43
I701
tp6731
a(I4
I819
tp6732
aa(lp6733
(I114
I563
tp6734
a(I13
I273
tp6735
a(I5
I140
tp6736
a(I129
I791
tp6737
a(I75
I967
tp6738
a(I29
I542
tp6739
a(I7
I981
tp6740
a(I58
I638
tp6741
a(I3
I555
tp6742
a(I6
I113
tp6743
aa(lp6744
(I34
I708
tp6745
a(I13
I799
tp6746
a(I228
I917
tp6747
a(I28
I428
tp6748
a(I26
I482
tp6749
a(I36
I516
tp6750
a(I1
I999
tp6751
a(I29
I201
tp6752
a(I27
I812
tp6753
a(I40
I666
tp6754
aa(lp6755
(I48
I772
tp6756
a(I62
I526
tp6757
a(I37
I223
tp6758
a(I50
I602
tp6759
a(I7
I422
tp6760
a(I31
I643
tp6761
a(I108
I657
tp6762
a(I7
I236
tp6763
a(I10
I252
tp6764
a(I1
I115
tp6765
aa(lp6766
(I10
I818
tp6767
a(I40
I795
tp6768
a(I144
I709
tp6769
a(I78
I650
tp6770
a(I137
I940
tp6771
a(I20
I170
tp6772
a(I1
I165
tp6773
a(I6
I183
tp6774
a(I22
I855
tp6775
a(I22
I821
tp6776
aa(lp6777
(I44
I529
tp6778
a(I78
I517
tp6779
a(I20
I524
tp6780
a(I30
I929
tp6781
a(I28
I524
tp6782
a(I150
I804
tp6783
a(I1
I229
tp6784
a(I91
I958
tp6785
a(I15
I541
tp6786
a(I15
I213
tp6787
aa(lp6788
(I2
I935
tp6789
a(I29
I256
tp6790
a(I85
I853
tp6791
a(I49
I868
tp6792
a(I12
I484
tp6793
a(I45
I754
tp6794
a(I38
I911
tp6795
a(I136
I738
tp6796
a(I34
I261
tp6797
a(I19
I636
tp6798
aa(lp6799
(I7
I102
tp6800
a(I3
I999
tp6801
a(I9
I393
tp6802
a(I160
I581
tp6803
a(I12
I704
tp6804
a(I63
I812
tp6805
a(I138
I965
tp6806
a(I57
I740
tp6807
a(I3
I469
tp6808
a(I19
I388
tp6809
aa(lp6810
(I58
I670
tp6811
a(I64
I951
tp6812
a(I26
I546
tp6813
a(I123
I379
tp6814
a(I8
I423
tp6815
a(I2
I500
tp6816
a(I9
I124
tp6817
a(I6
I573
tp6818
a(I55
I517
tp6819
a(I1
I323
tp6820
aa(lp6821
(I10
I736
tp6822
a(I10
I905
tp6823
a(I20
I579
tp6824
a(I17
I393
tp6825
a(I11
I173
tp6826
a(I2
I514
tp6827
a(I199
I590
tp6828
a(I38
I326
tp6829
a(I16
I662
tp6830
a(I39
I421
tp6831
aa(lp6832
(I29
I421
tp6833
a(I25
I688
tp6834
a(I5
I354
tp6835
a(I17
I971
tp6836
a(I34
I769
tp6837
a(I20
I678
tp6838
a(I93
I580
tp6839
a(I103
I746
tp6840
a(I96
I683
tp6841
a(I93
I999
tp6842
aa(lp6843
(I66
I776
tp6844
a(I28
I625
tp6845
a(I117
I735
tp6846
a(I63
I747
tp6847
a(I17
I976
tp6848
a(I20
I584
tp6849
a(I53
I997
tp6850
a(I69
I353
tp6851
a(I20
I417
tp6852
a(I4
I264
tp6853
aa(lp6854
(I33
I921
tp6855
a(I83
I873
tp6856
a(I15
I403
tp6857
a(I20
I274
tp6858
a(I31
I295
tp6859
a(I38
I681
tp6860
a(I206
I998
tp6861
a(I2
I143
tp6862
a(I60
I714
tp6863
a(I12
I438
tp6864
aa(lp6865
(I33
I611
tp6866
a(I50
I319
tp6867
a(I25
I369
tp6868
a(I27
I831
tp6869
a(I5
I144
tp6870
a(I2
I115
tp6871
a(I30
I323
tp6872
a(I85
I818
tp6873
a(I1
I259
tp6874
a(I32
I189
tp6875
aa(lp6876
(I2
I340
tp6877
a(I96
I910
tp6878
a(I58
I580
tp6879
a(I52
I494
tp6880
a(I6
I918
tp6881
a(I26
I270
tp6882
a(I16
I725
tp6883
a(I1
I226
tp6884
a(I85
I708
tp6885
a(I162
I945
tp6886
aa(lp6887
(I5
I702
tp6888
a(I116
I824
tp6889
a(I46
I660
tp6890
a(I1
I376
tp6891
a(I19
I716
tp6892
a(I52
I407
tp6893
a(I59
I467
tp6894
a(I9
I356
tp6895
a(I53
I567
tp6896
a(I97
I799
tp6897
aa(lp6898
(I11
I329
tp6899
a(I11
I913
tp6900
a(I17
I279
tp6901
a(I22
I324
tp6902
a(I32
I205
tp6903
a(I5
I449
tp6904
a(I46
I937
tp6905
a(I108
I849
tp6906
a(I64
I528
tp6907
a(I77
I766
tp6908
aa(lp6909
(I213
I697
tp6910
a(I5
I689
tp6911
a(I1
I152
tp6912
a(I30
I761
tp6913
a(I12
I772
tp6914
a(I40
I490
tp6915
a(I56
I433
tp6916
a(I12
I230
tp6917
a(I26
I407
tp6918
a(I29
I703
tp6919
aa(lp6920
(I22
I705
tp6921
a(I63
I524
tp6922
a(I76
I523
tp6923
a(I67
I794
tp6924
a(I1
I100
tp6925
a(I99
I921
tp6926
a(I14
I333
tp6927
a(I132
I749
tp6928
a(I6
I436
tp6929
a(I4
I241
tp6930
aa(lp6931
(I2
I217
tp6932
a(I17
I408
tp6933
a(I50
I507
tp6934
a(I16
I309
tp6935
a(I4
I636
tp6936
a(I106
I675
tp6937
a(I7
I151
tp6938
a(I24
I877
tp6939
a(I189
I707
tp6940
a(I4
I116
tp6941
aa(lp6942
(I6
I694
tp6943
a(I146
I829
tp6944
a(I113
I967
tp6945
a(I32
I329
tp6946
a(I16
I179
tp6947
a(I4
I512
tp6948
a(I3
I562
tp6949
a(I39
I831
tp6950
a(I7
I643
tp6951
a(I130
I726
tp6952
aa(lp6953
(I172
I616
tp6954
a(I12
I206
tp6955
a(I57
I760
tp6956
a(I1
I276
tp6957
a(I42
I688
tp6958
a(I4
I961
tp6959
a(I23
I527
tp6960
a(I8
I242
tp6961
a(I51
I460
tp6962
a(I66
I995
tp6963
aa(lp6964
(I15
I224
tp6965
a(I41
I694
tp6966
a(I5
I288
tp6967
a(I266
I800
tp6968
a(I32
I935
tp6969
a(I25
I844
tp6970
a(I1
I412
tp6971
a(I5
I866
tp6972
a(I73
I534
tp6973
a(I31
I561
tp6974
aa(lp6975
(I39
I507
tp6976
a(I7
I572
tp6977
a(I1
I616
tp6978
a(I57
I566
tp6979
a(I3
I156
tp6980
a(I66
I506
tp6981
a(I42
I330
tp6982
a(I10
I219
tp6983
a(I1
I299
tp6984
a(I143
I643
tp6985
aa(lp6986
(I4
I300
tp6987
a(I67
I447
tp6988
a(I96
I811
tp6989
a(I39
I766
tp6990
a(I9
I913
tp6991
a(I1
I136
tp6992
a(I38
I421
tp6993
a(I81
I776
tp6994
a(I6
I741
tp6995
a(I126
I658
tp6996
aa(lp6997
(I5
I523
tp6998
a(I119
I452
tp6999
a(I116
I842
tp7000
a(I5
I956
tp7001
a(I10
I173
tp7002
a(I63
I698
tp7003
a(I13
I347
tp7004
a(I56
I518
tp7005
a(I5
I521
tp7006
a(I5
I283
tp7007
aa(lp7008
(I8
I191
tp7009
a(I18
I165
tp7010
a(I13
I994
tp7011
a(I34
I475
tp7012
a(I5
I658
tp7013
a(I94
I563
tp7014
a(I18
I638
tp7015
a(I11
I161
tp7016
a(I3
I487
tp7017
a(I73
I330
tp7018
aa(lp7019
(I11
I889
tp7020
a(I24
I293
tp7021
a(I58
I820
tp7022
a(I158
I846
tp7023
a(I39
I337
tp7024
a(I14
I160
tp7025
a(I32
I523
tp7026
a(I13
I683
tp7027
a(I6
I299
tp7028
a(I11
I139
tp7029
aa(lp7030
(I113
I643
tp7031
a(I32
I613
tp7032
a(I64
I766
tp7033
a(I19
I252
tp7034
a(I3
I152
tp7035
a(I9
I593
tp7036
a(I70
I405
tp7037
a(I19
I865
tp7038
a(I96
I941
tp7039
a(I21
I945
tp7040
aa(lp7041
(I5
I105
tp7042
a(I12
I731
tp7043
a(I8
I292
tp7044
a(I34
I689
tp7045
a(I4
I308
tp7046
a(I290
I894
tp7047
a(I1
I409
tp7048
a(I1
I390
tp7049
a(I63
I275
tp7050
a(I29
I938
tp7051
aa(lp7052
(I16
I900
tp7053
a(I15
I230
tp7054
a(I60
I329
tp7055
a(I5
I866
tp7056
a(I72
I606
tp7057
a(I27
I365
tp7058
a(I14
I872
tp7059
a(I95
I387
tp7060
a(I1
I970
tp7061
a(I1
I129
tp7062
aa(lp7063
(I2
I376
tp7064
a(I136
I671
tp7065
a(I66
I358
tp7066
a(I1
I297
tp7067
a(I22
I340
tp7068
a(I7
I805
tp7069
a(I7
I186
tp7070
a(I36
I540
tp7071
a(I7
I104
tp7072
a(I90
I944
tp7073
aa(lp7074
(I13
I157
tp7075
a(I15
I746
tp7076
a(I79
I558
tp7077
a(I12
I694
tp7078
a(I26
I799
tp7079
a(I11
I161
tp7080
a(I108
I793
tp7081
a(I75
I735
tp7082
a(I8
I141
tp7083
a(I37
I511
tp7084
aa(lp7085
(I24
I543
tp7086
a(I7
I392
tp7087
a(I15
I147
tp7088
a(I82
I627
tp7089
a(I13
I396
tp7090
a(I7
I374
tp7091
a(I31
I184
tp7092
a(I27
I233
tp7093
a(I2
I612
tp7094
a(I24
I243
tp7095
aa(lp7096
(I4
I473
tp7097
a(I8
I483
tp7098
a(I147
I968
tp7099
a(I13
I905
tp7100
a(I70
I893
tp7101
a(I18
I119
tp7102
a(I20
I293
tp7103
a(I12
I164
tp7104
a(I6
I493
tp7105
a(I33
I210
tp7106
aa(lp7107
(I16
I313
tp7108
a(I1
I993
tp7109
a(I20
I123
tp7110
a(I55
I910
tp7111
a(I24
I479
tp7112
a(I21
I720
tp7113
a(I282
I925
tp7114
a(I14
I978
tp7115
a(I1
I815
tp7116
a(I25
I365
tp7117
aa(lp7118
(I15
I505
tp7119
a(I60
I513
tp7120
a(I11
I137
tp7121
a(I33
I525
tp7122
a(I15
I182
tp7123
a(I28
I803
tp7124
a(I287
I969
tp7125
a(I8
I540
tp7126
a(I1
I113
tp7127
a(I1
I545
tp7128
aa(lp7129
(I19
I324
tp7130
a(I148
I603
tp7131
a(I15
I453
tp7132
a(I35
I359
tp7133
a(I38
I971
tp7134
a(I10
I274
tp7135
a(I22
I192
tp7136
a(I91
I859
tp7137
a(I2
I212
tp7138
a(I1
I486
tp7139
aa(lp7140
(I1
I618
tp7141
a(I2
I276
tp7142
a(I26
I237
tp7143
a(I61
I928
tp7144
a(I42
I232
tp7145
a(I112
I377
tp7146
a(I7
I424
tp7147
a(I14
I458
tp7148
a(I7
I477
tp7149
a(I5
I490
tp7150
aa(lp7151
(I27
I983
tp7152
a(I92
I492
tp7153
a(I3
I351
tp7154
a(I35
I829
tp7155
a(I6
I158
tp7156
a(I34
I564
tp7157
a(I193
I926
tp7158
a(I11
I269
tp7159
a(I38
I877
tp7160
a(I19
I238
tp7161
aa(lp7162
(I8
I264
tp7163
a(I3
I336
tp7164
a(I111
I616
tp7165
a(I89
I317
tp7166
a(I26
I673
tp7167
a(I21
I497
tp7168
a(I14
I927
tp7169
a(I99
I925
tp7170
a(I6
I649
tp7171
a(I13
I504
tp7172
aa(lp7173
(I27
I757
tp7174
a(I8
I237
tp7175
a(I8
I141
tp7176
a(I25
I856
tp7177
a(I63
I406
tp7178
a(I27
I442
tp7179
a(I38
I598
tp7180
a(I6
I356
tp7181
a(I92
I953
tp7182
a(I52
I274
tp7183
aa(lp7184
(I25
I464
tp7185
a(I10
I844
tp7186
a(I92
I674
tp7187
a(I20
I293
tp7188
a(I53
I912
tp7189
a(I28
I622
tp7190
a(I122
I658
tp7191
a(I2
I210
tp7192
a(I42
I460
tp7193
a(I42
I525
tp7194
aa(lp7195
(I4
I560
tp7196
a(I5
I604
tp7197
a(I22
I336
tp7198
a(I19
I393
tp7199
a(I10
I199
tp7200
a(I39
I492
tp7201
a(I63
I801
tp7202
a(I9
I827
tp7203
a(I121
I719
tp7204
a(I73
I330
tp7205
aa(lp7206
(I1
I123
tp7207
a(I9
I671
tp7208
a(I185
I948
tp7209
a(I167
I862
tp7210
a(I9
I922
tp7211
a(I30
I319
tp7212
a(I12
I728
tp7213
a(I19
I656
tp7214
a(I61
I973
tp7215
a(I48
I398
tp7216
aa(lp7217
(I31
I732
tp7218
a(I71
I637
tp7219
a(I19
I328
tp7220
a(I20
I193
tp7221
a(I55
I874
tp7222
a(I4
I963
tp7223
a(I93
I799
tp7224
a(I18
I268
tp7225
a(I46
I343
tp7226
a(I16
I456
tp7227
aa(lp7228
(I69
I724
tp7229
a(I125
I999
tp7230
a(I5
I272
tp7231
a(I17
I825
tp7232
a(I1
I510
tp7233
a(I16
I323
tp7234
a(I81
I991
tp7235
a(I84
I409
tp7236
a(I14
I312
tp7237
a(I14
I139
tp7238
aa(lp7239
(I52
I991
tp7240
a(I14
I219
tp7241
a(I21
I286
tp7242
a(I51
I569
tp7243
a(I16
I185
tp7244
a(I13
I420
tp7245
a(I4
I212
tp7246
a(I20
I367
tp7247
a(I114
I633
tp7248
a(I31
I379
tp7249
aa(lp7250
(I5
I457
tp7251
a(I5
I107
tp7252
a(I34
I345
tp7253
a(I1
I126
tp7254
a(I7
I430
tp7255
a(I80
I394
tp7256
a(I2
I111
tp7257
a(I2
I495
tp7258
a(I217
I815
tp7259
a(I27
I404
tp7260
aa(lp7261
(I1
I576
tp7262
a(I12
I547
tp7263
a(I35
I641
tp7264
a(I288
I947
tp7265
a(I57
I367
tp7266
a(I5
I525
tp7267
a(I17
I280
tp7268
a(I94
I971
tp7269
a(I19
I741
tp7270
a(I2
I213
tp7271
aa(lp7272
(I6
I144
tp7273
a(I13
I192
tp7274
a(I8
I199
tp7275
a(I34
I544
tp7276
a(I19
I796
tp7277
a(I103
I829
tp7278
a(I49
I530
tp7279
a(I129
I781
tp7280
a(I10
I606
tp7281
a(I63
I619
tp7282
aa(lp7283
(I32
I377
tp7284
a(I12
I200
tp7285
a(I24
I873
tp7286
a(I41
I590
tp7287
a(I34
I156
tp7288
a(I133
I968
tp7289
a(I18
I992
tp7290
a(I30
I652
tp7291
a(I7
I360
tp7292
a(I6
I102
tp7293
aa(lp7294
(I2
I337
tp7295
a(I1
I348
tp7296
a(I14
I971
tp7297
a(I20
I283
tp7298
a(I22
I531
tp7299
a(I110
I785
tp7300
a(I36
I412
tp7301
a(I140
I845
tp7302
a(I140
I760
tp7303
a(I23
I824
tp7304
aa(lp7305
(I48
I895
tp7306
a(I7
I565
tp7307
a(I9
I417
tp7308
a(I6
I725
tp7309
a(I48
I418
tp7310
a(I18
I302
tp7311
a(I125
I425
tp7312
a(I26
I313
tp7313
a(I6
I784
tp7314
a(I82
I956
tp7315
aa(lp7316
(I39
I912
tp7317
a(I124
I962
tp7318
a(I41
I993
tp7319
a(I39
I798
tp7320
a(I9
I125
tp7321
a(I55
I792
tp7322
a(I12
I254
tp7323
a(I6
I572
tp7324
a(I2
I412
tp7325
a(I232
I845
tp7326
aa(lp7327
(I58
I766
tp7328
a(I47
I994
tp7329
a(I13
I438
tp7330
a(I28
I948
tp7331
a(I14
I712
tp7332
a(I228
I805
tp7333
a(I15
I700
tp7334
a(I17
I117
tp7335
a(I35
I482
tp7336
a(I13
I800
tp7337
aa(lp7338
(I6
I216
tp7339
a(I122
I473
tp7340
a(I4
I131
tp7341
a(I72
I923
tp7342
a(I1
I649
tp7343
a(I137
I923
tp7344
a(I14
I248
tp7345
a(I9
I751
tp7346
a(I12
I792
tp7347
a(I63
I597
tp7348
aa(lp7349
(I37
I619
tp7350
a(I75
I590
tp7351
a(I25
I271
tp7352
a(I23
I426
tp7353
a(I108
I843
tp7354
a(I54
I613
tp7355
a(I15
I594
tp7356
a(I6
I558
tp7357
a(I85
I834
tp7358
a(I27
I502
tp7359
aa(lp7360
(I64
I955
tp7361
a(I3
I119
tp7362
a(I36
I917
tp7363
a(I42
I545
tp7364
a(I15
I302
tp7365
a(I64
I714
tp7366
a(I197
I945
tp7367
a(I26
I343
tp7368
a(I22
I574
tp7369
a(I50
I750
tp7370
aa(lp7371
(I39
I948
tp7372
a(I8
I271
tp7373
a(I21
I886
tp7374
a(I67
I627
tp7375
a(I4
I424
tp7376
a(I22
I384
tp7377
a(I32
I487
tp7378
a(I136
I727
tp7379
a(I24
I402
tp7380
a(I50
I310
tp7381
aa(lp7382
(I7
I867
tp7383
a(I17
I231
tp7384
a(I3
I131
tp7385
a(I11
I921
tp7386
a(I73
I973
tp7387
a(I162
I548
tp7388
a(I23
I183
tp7389
a(I14
I662
tp7390
a(I18
I179
tp7391
a(I1
I886
tp7392
aa(lp7393
(I7
I463
tp7394
a(I1
I878
tp7395
a(I16
I453
tp7396
a(I29
I239
tp7397
a(I26
I894
tp7398
a(I113
I878
tp7399
a(I58
I508
tp7400
a(I94
I713
tp7401
a(I153
I925
tp7402
a(I1
I723
tp7403
aa(lp7404
(I153
I914
tp7405
a(I113
I927
tp7406
a(I31
I374
tp7407
a(I9
I833
tp7408
a(I18
I593
tp7409
a(I4
I355
tp7410
a(I103
I615
tp7411
a(I1
I539
tp7412
a(I1
I346
tp7413
a(I91
I633
tp7414
aa(lp7415
(I19
I576
tp7416
a(I55
I819
tp7417
a(I46
I504
tp7418
a(I32
I387
tp7419
a(I32
I708
tp7420
a(I25
I402
tp7421
a(I100
I589
tp7422
a(I1
I863
tp7423
a(I1
I143
tp7424
a(I158
I885
tp7425
aa(lp7426
(I12
I918
tp7427
a(I2
I496
tp7428
a(I2
I111
tp7429
a(I25
I627
tp7430
a(I98
I919
tp7431
a(I5
I106
tp7432
a(I54
I221
tp7433
a(I87
I870
tp7434
a(I107
I998
tp7435
a(I30
I568
tp7436
aa(lp7437
(I7
I150
tp7438
a(I117
I1000
tp7439
a(I6
I886
tp7440
a(I19
I562
tp7441
a(I69
I577
tp7442
a(I22
I507
tp7443
a(I63
I355
tp7444
a(I9
I258
tp7445
a(I26
I336
tp7446
a(I62
I746
tp7447
aa(lp7448
(I3
I998
tp7449
a(I28
I460
tp7450
a(I117
I482
tp7451
a(I103
I530
tp7452
a(I3
I343
tp7453
a(I22
I169
tp7454
a(I1
I742
tp7455
a(I16
I754
tp7456
a(I21
I757
tp7457
a(I29
I608
tp7458
aa(lp7459
(I2
I255
tp7460
a(I11
I274
tp7461
a(I10
I221
tp7462
a(I69
I894
tp7463
a(I235
I881
tp7464
a(I18
I128
tp7465
a(I102
I916
tp7466
a(I20
I988
tp7467
a(I1
I220
tp7468
a(I17
I671
tp7469
aa(lp7470
(I42
I370
tp7471
a(I16
I117
tp7472
a(I28
I705
tp7473
a(I1
I755
tp7474
a(I91
I491
tp7475
a(I62
I843
tp7476
a(I15
I124
tp7477
a(I15
I526
tp7478
a(I5
I672
tp7479
a(I23
I839
tp7480
aa(lp7481
(I46
I969
tp7482
a(I25
I215
tp7483
a(I60
I578
tp7484
a(I19
I628
tp7485
a(I3
I774
tp7486
a(I40
I492
tp7487
a(I21
I833
tp7488
a(I61
I848
tp7489
a(I61
I523
tp7490
a(I101
I696
tp7491
aa(lp7492
(I9
I334
tp7493
a(I7
I608
tp7494
a(I34
I283
tp7495
a(I10
I275
tp7496
a(I44
I224
tp7497
a(I11
I922
tp7498
a(I4
I119
tp7499
a(I71
I720
tp7500
a(I29
I208
tp7501
a(I15
I274
tp7502
aa(lp7503
(I29
I591
tp7504
a(I1
I399
tp7505
a(I19
I110
tp7506
a(I23
I926
tp7507
a(I23
I133
tp7508
a(I80
I413
tp7509
a(I26
I901
tp7510
a(I5
I334
tp7511
a(I2
I261
tp7512
a(I58
I866
tp7513
aa(lp7514
(I45
I727
tp7515
a(I66
I477
tp7516
a(I18
I495
tp7517
a(I25
I979
tp7518
a(I27
I813
tp7519
a(I20
I100
tp7520
a(I34
I976
tp7521
a(I8
I284
tp7522
a(I45
I752
tp7523
a(I99
I804
tp7524
aa(lp7525
(I14
I915
tp7526
a(I2
I105
tp7527
a(I58
I420
tp7528
a(I1
I119
tp7529
a(I83
I462
tp7530
a(I100
I547
tp7531
a(I1
I557
tp7532
a(I30
I299
tp7533
a(I1
I189
tp7534
a(I66
I774
tp7535
aa(lp7536
(I66
I495
tp7537
a(I102
I626
tp7538
a(I35
I428
tp7539
a(I2
I240
tp7540
a(I23
I693
tp7541
a(I89
I988
tp7542
a(I13
I519
tp7543
a(I71
I748
tp7544
a(I51
I609
tp7545
a(I27
I934
tp7546
aa(lp7547
(I48
I831
tp7548
a(I6
I822
tp7549
a(I76
I839
tp7550
a(I28
I514
tp7551
a(I32
I795
tp7552
a(I107
I515
tp7553
a(I7
I109
tp7554
a(I58
I326
tp7555
a(I2
I578
tp7556
a(I31
I891
tp7557
aa(lp7558
(I23
I987
tp7559
a(I13
I252
tp7560
a(I29
I145
tp7561
a(I26
I765
tp7562
a(I6
I886
tp7563
a(I58
I856
tp7564
a(I3
I458
tp7565
a(I10
I823
tp7566
a(I74
I294
tp7567
a(I38
I445
tp7568
aa(lp7569
(I121
I775
tp7570
a(I53
I590
tp7571
a(I228
I697
tp7572
a(I4
I253
tp7573
a(I37
I608
tp7574
a(I9
I755
tp7575
a(I20
I625
tp7576
a(I18
I964
tp7577
a(I2
I109
tp7578
a(I8
I893
tp7579
aa(lp7580
(I2
I372
tp7581
a(I11
I644
tp7582
a(I95
I712
tp7583
a(I184
I905
tp7584
a(I57
I477
tp7585
a(I71
I884
tp7586
a(I26
I737
tp7587
a(I5
I488
tp7588
a(I24
I413
tp7589
a(I25
I317
tp7590
aa(lp7591
(I41
I441
tp7592
a(I44
I519
tp7593
a(I120
I755
tp7594
a(I4
I190
tp7595
a(I38
I286
tp7596
a(I59
I934
tp7597
a(I64
I871
tp7598
a(I16
I880
tp7599
a(I28
I966
tp7600
a(I44
I705
tp7601
aa(lp7602
(I33
I281
tp7603
a(I6
I594
tp7604
a(I5
I486
tp7605
a(I45
I498
tp7606
a(I87
I456
tp7607
a(I26
I345
tp7608
a(I3
I336
tp7609
a(I111
I506
tp7610
a(I6
I361
tp7611
a(I1
I610
tp7612
aa(lp7613
(I37
I463
tp7614
a(I116
I993
tp7615
a(I70
I522
tp7616
a(I1
I248
tp7617
a(I15
I260
tp7618
a(I1
I863
tp7619
a(I20
I239
tp7620
a(I103
I712
tp7621
a(I41
I639
tp7622
a(I6
I117
tp7623
aa(lp7624
(I91
I427
tp7625
a(I5
I564
tp7626
a(I25
I498
tp7627
a(I16
I163
tp7628
a(I21
I432
tp7629
a(I11
I224
tp7630
a(I14
I181
tp7631
a(I1
I308
tp7632
a(I28
I844
tp7633
a(I120
I778
tp7634
aa(lp7635
(I126
I819
tp7636
a(I13
I230
tp7637
a(I35
I198
tp7638
a(I35
I244
tp7639
a(I1
I457
tp7640
a(I38
I575
tp7641
a(I8
I538
tp7642
a(I11
I325
tp7643
a(I7
I163
tp7644
a(I33
I718
tp7645
aa(lp7646
(I42
I694
tp7647
a(I68
I216
tp7648
a(I26
I366
tp7649
a(I45
I754
tp7650
a(I9
I230
tp7651
a(I91
I852
tp7652
a(I6
I121
tp7653
a(I4
I480
tp7654
a(I2
I357
tp7655
a(I7
I271
tp7656
aa(lp7657
(I41
I189
tp7658
a(I15
I210
tp7659
a(I10
I298
tp7660
a(I123
I504
tp7661
a(I94
I993
tp7662
a(I7
I316
tp7663
a(I7
I332
tp7664
a(I12
I840
tp7665
a(I1
I535
tp7666
a(I10
I613
tp7667
aa(lp7668
(I9
I274
tp7669
a(I89
I781
tp7670
a(I1
I259
tp7671
a(I9
I800
tp7672
a(I46
I240
tp7673
a(I86
I507
tp7674
a(I3
I584
tp7675
a(I6
I404
tp7676
a(I57
I483
tp7677
a(I66
I848
tp7678
aa(lp7679
(I23
I944
tp7680
a(I20
I950
tp7681
a(I21
I294
tp7682
a(I43
I678
tp7683
a(I90
I701
tp7684
a(I1
I430
tp7685
a(I80
I393
tp7686
a(I73
I384
tp7687
a(I16
I943
tp7688
a(I14
I630
tp7689
aa(lp7690
(I1
I162
tp7691
a(I60
I729
tp7692
a(I16
I159
tp7693
a(I11
I397
tp7694
a(I26
I485
tp7695
a(I18
I139
tp7696
a(I6
I725
tp7697
a(I5
I217
tp7698
a(I14
I983
tp7699
a(I247
I842
tp7700
aa(lp7701
(I6
I314
tp7702
a(I7
I167
tp7703
a(I33
I802
tp7704
a(I208
I926
tp7705
a(I58
I670
tp7706
a(I19
I426
tp7707
a(I22
I774
tp7708
a(I48
I477
tp7709
a(I42
I362
tp7710
a(I21
I577
tp7711
aa(lp7712
(I1
I787
tp7713
a(I49
I414
tp7714
a(I3
I335
tp7715
a(I13
I415
tp7716
a(I59
I622
tp7717
a(I109
I613
tp7718
a(I56
I902
tp7719
a(I7
I137
tp7720
a(I184
I957
tp7721
a(I1
I226
tp7722
aa(lp7723
(I2
I276
tp7724
a(I10
I188
tp7725
a(I131
I629
tp7726
a(I18
I217
tp7727
a(I79
I875
tp7728
a(I37
I775
tp7729
a(I45
I702
tp7730
a(I14
I501
tp7731
a(I37
I262
tp7732
a(I3
I367
tp7733
aa(lp7734
(I63
I383
tp7735
a(I22
I129
tp7736
a(I43
I873
tp7737
a(I59
I648
tp7738
a(I7
I557
tp7739
a(I17
I969
tp7740
a(I37
I348
tp7741
a(I22
I384
tp7742
a(I40
I777
tp7743
a(I3
I204
tp7744
aa(lp7745
(I38
I192
tp7746
a(I46
I736
tp7747
a(I16
I926
tp7748
a(I5
I712
tp7749
a(I64
I993
tp7750
a(I39
I221
tp7751
a(I29
I970
tp7752
a(I63
I997
tp7753
a(I74
I947
tp7754
a(I41
I895
tp7755
aa(lp7756
(I9
I267
tp7757
a(I52
I804
tp7758
a(I1
I512
tp7759
a(I35
I496
tp7760
a(I94
I958
tp7761
a(I9
I358
tp7762
a(I34
I537
tp7763
a(I7
I934
tp7764
a(I7
I442
tp7765
a(I50
I141
tp7766
aa(lp7767
(I76
I863
tp7768
a(I58
I746
tp7769
a(I155
I911
tp7770
a(I10
I819
tp7771
a(I38
I893
tp7772
a(I31
I825
tp7773
a(I62
I878
tp7774
a(I8
I245
tp7775
a(I91
I602
tp7776
a(I27
I460
tp7777
aa(lp7778
(I24
I286
tp7779
a(I28
I621
tp7780
a(I36
I873
tp7781
a(I87
I896
tp7782
a(I3
I743
tp7783
a(I2
I951
tp7784
a(I43
I189
tp7785
a(I196
I991
tp7786
a(I3
I133
tp7787
a(I5
I324
tp7788
aa(lp7789
(I174
I797
tp7790
a(I67
I988
tp7791
a(I46
I569
tp7792
a(I4
I176
tp7793
a(I10
I239
tp7794
a(I33
I396
tp7795
a(I14
I140
tp7796
a(I45
I535
tp7797
a(I23
I661
tp7798
a(I3
I453
tp7799
aa(lp7800
(I47
I740
tp7801
a(I42
I812
tp7802
a(I24
I108
tp7803
a(I61
I792
tp7804
a(I5
I780
tp7805
a(I4
I361
tp7806
a(I6
I274
tp7807
a(I13
I124
tp7808
a(I58
I528
tp7809
a(I12
I199
tp7810
aa(lp7811
(I4
I203
tp7812
a(I78
I782
tp7813
a(I1
I105
tp7814
a(I100
I774
tp7815
a(I85
I893
tp7816
a(I13
I567
tp7817
a(I14
I115
tp7818
a(I99
I999
tp7819
a(I8
I288
tp7820
a(I47
I398
tp7821
aa(lp7822
(I31
I328
tp7823
a(I12
I456
tp7824
a(I296
I819
tp7825
a(I24
I750
tp7826
a(I10
I183
tp7827
a(I36
I528
tp7828
a(I6
I280
tp7829
a(I29
I369
tp7830
a(I1
I983
tp7831
a(I1
I688
tp7832
aa(lp7833
(I143
I619
tp7834
a(I63
I546
tp7835
a(I16
I628
tp7836
a(I3
I523
tp7837
a(I62
I466
tp7838
a(I75
I857
tp7839
a(I35
I797
tp7840
a(I56
I770
tp7841
a(I4
I808
tp7842
a(I18
I696
tp7843
aa(lp7844
(I21
I362
tp7845
a(I55
I430
tp7846
a(I181
I793
tp7847
a(I46
I430
tp7848
a(I10
I730
tp7849
a(I14
I261
tp7850
a(I10
I577
tp7851
a(I33
I563
tp7852
a(I49
I899
tp7853
a(I9
I436
tp7854
aa(lp7855
(I13
I275
tp7856
a(I45
I266
tp7857
a(I75
I965
tp7858
a(I22
I139
tp7859
a(I22
I310
tp7860
a(I38
I480
tp7861
a(I1
I172
tp7862
a(I21
I921
tp7863
a(I11
I593
tp7864
a(I13
I160
tp7865
aa(lp7866
(I1
I102
tp7867
a(I37
I787
tp7868
a(I109
I818
tp7869
a(I23
I719
tp7870
a(I222
I907
tp7871
a(I27
I655
tp7872
a(I9
I573
tp7873
a(I141
I805
tp7874
a(I33
I826
tp7875
a(I2
I991
tp7876
aa(lp7877
(I15
I222
tp7878
a(I39
I861
tp7879
a(I5
I182
tp7880
a(I33
I663
tp7881
a(I17
I482
tp7882
a(I148
I606
tp7883
a(I106
I696
tp7884
a(I4
I262
tp7885
a(I42
I498
tp7886
a(I16
I946
tp7887
aa(lp7888
(I15
I902
tp7889
a(I1
I729
tp7890
a(I10
I152
tp7891
a(I1
I197
tp7892
a(I31
I342
tp7893
a(I49
I194
tp7894
a(I66
I562
tp7895
a(I103
I988
tp7896
a(I29
I788
tp7897
a(I50
I983
tp7898
aa(lp7899
(I63
I316
tp7900
a(I6
I116
tp7901
a(I16
I301
tp7902
a(I25
I708
tp7903
a(I3
I388
tp7904
a(I8
I136
tp7905
a(I137
I953
tp7906
a(I21
I363
tp7907
a(I36
I783
tp7908
a(I39
I473
tp7909
aa(lp7910
(I43
I819
tp7911
a(I1
I705
tp7912
a(I88
I381
tp7913
a(I61
I308
tp7914
a(I53
I742
tp7915
a(I4
I333
tp7916
a(I38
I415
tp7917
a(I19
I322
tp7918
a(I10
I436
tp7919
a(I1
I452
tp7920
aa(lp7921
(I24
I720
tp7922
a(I10
I270
tp7923
a(I13
I122
tp7924
a(I31
I181
tp7925
a(I12
I269
tp7926
a(I12
I197
tp7927
a(I105
I880
tp7928
a(I20
I951
tp7929
a(I58
I456
tp7930
a(I16
I974
tp7931
aa(lp7932
(I176
I893
tp7933
a(I10
I440
tp7934
a(I108
I901
tp7935
a(I34
I333
tp7936
a(I81
I571
tp7937
a(I41
I414
tp7938
a(I5
I459
tp7939
a(I6
I245
tp7940
a(I2
I113
tp7941
a(I1
I521
tp7942
aa(lp7943
(I4
I161
tp7944
a(I23
I402
tp7945
a(I7
I299
tp7946
a(I28
I725
tp7947
a(I109
I410
tp7948
a(I20
I141
tp7949
a(I2
I875
tp7950
a(I101
I868
tp7951
a(I4
I820
tp7952
a(I13
I207
tp7953
aa(lp7954
(I53
I850
tp7955
a(I11
I462
tp7956
a(I195
I884
tp7957
a(I7
I519
tp7958
a(I1
I728
tp7959
a(I78
I387
tp7960
a(I58
I815
tp7961
a(I25
I219
tp7962
a(I1
I119
tp7963
a(I12
I665
tp7964
aa(lp7965
(I32
I745
tp7966
a(I8
I826
tp7967
a(I3
I143
tp7968
a(I11
I956
tp7969
a(I34
I636
tp7970
a(I89
I634
tp7971
a(I69
I835
tp7972
a(I63
I631
tp7973
a(I37
I842
tp7974
a(I157
I662
tp7975
aa(lp7976
(I14
I564
tp7977
a(I73
I628
tp7978
a(I77
I802
tp7979
a(I13
I260
tp7980
a(I12
I986
tp7981
a(I12
I164
tp7982
a(I19
I163
tp7983
a(I74
I808
tp7984
a(I21
I926
tp7985
a(I55
I409
tp7986
aa(lp7987
(I191
I546
tp7988
a(I5
I446
tp7989
a(I1
I258
tp7990
a(I10
I471
tp7991
a(I24
I766
tp7992
a(I33
I911
tp7993
a(I10
I228
tp7994
a(I1
I305
tp7995
a(I102
I639
tp7996
a(I82
I961
tp7997
aa(lp7998
(I21
I612
tp7999
a(I16
I446
tp8000
a(I22
I688
tp8001
a(I120
I583
tp8002
a(I26
I240
tp8003
a(I11
I494
tp8004
a(I45
I935
tp8005
a(I26
I956
tp8006
a(I8
I373
tp8007
a(I142
I690
tp8008
aa(lp8009
(I5
I111
tp8010
a(I8
I810
tp8011
a(I47
I555
tp8012
a(I4
I306
tp8013
a(I163
I683
tp8014
a(I1
I175
tp8015
a(I19
I539
tp8016
a(I98
I628
tp8017
a(I20
I186
tp8018
a(I5
I134
tp8019
aa(lp8020
(I9
I995
tp8021
a(I7
I112
tp8022
a(I13
I347
tp8023
a(I18
I590
tp8024
a(I106
I581
tp8025
a(I1
I896
tp8026
a(I1
I109
tp8027
a(I132
I434
tp8028
a(I4
I386
tp8029
a(I13
I137
tp8030
aa(lp8031
(I26
I244
tp8032
a(I17
I103
tp8033
a(I59
I613
tp8034
a(I40
I479
tp8035
a(I1
I141
tp8036
a(I40
I414
tp8037
a(I67
I863
tp8038
a(I8
I791
tp8039
a(I17
I237
tp8040
a(I14
I853
tp8041
aa(lp8042
(I27
I592
tp8043
a(I70
I570
tp8044
a(I48
I779
tp8045
a(I91
I722
tp8046
a(I3
I146
tp8047
a(I23
I730
tp8048
a(I14
I803
tp8049
a(I75
I434
tp8050
a(I51
I925
tp8051
a(I24
I284
tp8052
aa(lp8053
(I6
I517
tp8054
a(I7
I594
tp8055
a(I34
I510
tp8056
a(I1
I695
tp8057
a(I43
I418
tp8058
a(I13
I910
tp8059
a(I75
I282
tp8060
a(I40
I445
tp8061
a(I113
I815
tp8062
a(I29
I747
tp8063
aa(lp8064
(I3
I517
tp8065
a(I14
I299
tp8066
a(I7
I308
tp8067
a(I24
I282
tp8068
a(I162
I660
tp8069
a(I98
I750
tp8070
a(I23
I783
tp8071
a(I69
I688
tp8072
a(I4
I152
tp8073
a(I18
I441
tp8074
aa(lp8075
(I59
I561
tp8076
a(I31
I399
tp8077
a(I58
I412
tp8078
a(I23
I979
tp8079
a(I1
I208
tp8080
a(I11
I333
tp8081
a(I57
I374
tp8082
a(I21
I358
tp8083
a(I9
I287
tp8084
a(I82
I740
tp8085
aa(lp8086
(I26
I222
tp8087
a(I7
I125
tp8088
a(I7
I620
tp8089
a(I6
I894
tp8090
a(I41
I841
tp8091
a(I21
I459
tp8092
a(I62
I393
tp8093
a(I45
I465
tp8094
a(I65
I710
tp8095
a(I17
I158
tp8096
aa(lp8097
(I23
I715
tp8098
a(I113
I715
tp8099
a(I12
I131
tp8100
a(I26
I244
tp8101
a(I113
I784
tp8102
a(I18
I435
tp8103
a(I96
I672
tp8104
a(I7
I967
tp8105
a(I2
I568
tp8106
a(I7
I635
tp8107
aa(lp8108
(I174
I703
tp8109
a(I11
I174
tp8110
a(I1
I567
tp8111
a(I3
I126
tp8112
a(I1
I530
tp8113
a(I93
I719
tp8114
a(I26
I650
tp8115
a(I5
I227
tp8116
a(I10
I227
tp8117
a(I102
I633
tp8118
aa(lp8119
(I28
I815
tp8120
a(I59
I609
tp8121
a(I104
I827
tp8122
a(I29
I281
tp8123
a(I30
I469
tp8124
a(I42
I398
tp8125
a(I14
I132
tp8126
a(I2
I586
tp8127
a(I83
I826
tp8128
a(I1
I715
tp8129
aa(lp8130
(I54
I909
tp8131
a(I43
I909
tp8132
a(I34
I558
tp8133
a(I16
I850
tp8134
a(I54
I807
tp8135
a(I75
I300
tp8136
a(I112
I986
tp8137
a(I24
I211
tp8138
a(I1
I523
tp8139
a(I3
I294
tp8140
aa(lp8141
(I3
I102
tp8142
a(I17
I272
tp8143
a(I178
I574
tp8144
a(I14
I318
tp8145
a(I12
I163
tp8146
a(I25
I913
tp8147
a(I3
I141
tp8148
a(I57
I624
tp8149
a(I17
I238
tp8150
a(I1
I276
tp8151
aa(lp8152
(I25
I769
tp8153
a(I8
I887
tp8154
a(I114
I406
tp8155
a(I40
I972
tp8156
a(I67
I417
tp8157
a(I29
I928
tp8158
a(I8
I290
tp8159
a(I46
I549
tp8160
a(I33
I662
tp8161
a(I18
I766
tp8162
aa(lp8163
(I7
I455
tp8164
a(I3
I513
tp8165
a(I61
I788
tp8166
a(I91
I425
tp8167
a(I63
I791
tp8168
a(I10
I487
tp8169
a(I1
I201
tp8170
a(I33
I337
tp8171
a(I46
I817
tp8172
a(I42
I248
tp8173
aa(lp8174
(I38
I556
tp8175
a(I18
I283
tp8176
a(I104
I913
tp8177
a(I11
I380
tp8178
a(I138
I622
tp8179
a(I5
I955
tp8180
a(I5
I708
tp8181
a(I73
I872
tp8182
a(I19
I194
tp8183
a(I5
I105
tp8184
aa(lp8185
(I49
I463
tp8186
a(I35
I411
tp8187
a(I6
I168
tp8188
a(I52
I709
tp8189
a(I54
I373
tp8190
a(I59
I857
tp8191
a(I2
I227
tp8192
a(I18
I757
tp8193
a(I90
I554
tp8194
a(I27
I897
tp8195
aa(lp8196
(I20
I252
tp8197
a(I33
I306
tp8198
a(I12
I495
tp8199
a(I44
I489
tp8200
a(I28
I106
tp8201
a(I5
I186
tp8202
a(I4
I668
tp8203
a(I4
I943
tp8204
a(I21
I943
tp8205
a(I39
I365
tp8206
aa(lp8207
(I10
I824
tp8208
a(I159
I605
tp8209
a(I1
I559
tp8210
a(I27
I421
tp8211
a(I22
I408
tp8212
a(I39
I466
tp8213
a(I21
I725
tp8214
a(I2
I869
tp8215
a(I48
I543
tp8216
a(I66
I450
tp8217
aa(lp8218
(I5
I161
tp8219
a(I47
I465
tp8220
a(I49
I444
tp8221
a(I13
I646
tp8222
a(I17
I376
tp8223
a(I44
I429
tp8224
a(I88
I799
tp8225
a(I81
I697
tp8226
a(I52
I696
tp8227
a(I17
I583
tp8228
aa(lp8229
(I88
I370
tp8230
a(I2
I104
tp8231
a(I2
I129
tp8232
a(I1
I901
tp8233
a(I114
I821
tp8234
a(I30
I260
tp8235
a(I17
I865
tp8236
a(I10
I533
tp8237
a(I45
I717
tp8238
a(I10
I106
tp8239
aa(lp8240
(I34
I596
tp8241
a(I78
I789
tp8242
a(I26
I599
tp8243
a(I4
I212
tp8244
a(I30
I655
tp8245
a(I123
I697
tp8246
a(I77
I840
tp8247
a(I38
I916
tp8248
a(I51
I373
tp8249
a(I12
I397
tp8250
aa(lp8251
(I1
I307
tp8252
a(I118
I764
tp8253
a(I89
I685
tp8254
a(I145
I926
tp8255
a(I7
I311
tp8256
a(I5
I113
tp8257
a(I96
I992
tp8258
a(I4
I173
tp8259
a(I10
I312
tp8260
a(I42
I626
tp8261
aa(lp8262
(I6
I443
tp8263
a(I36
I273
tp8264
a(I12
I207
tp8265
a(I7
I860
tp8266
a(I21
I386
tp8267
a(I10
I634
tp8268
a(I113
I641
tp8269
a(I14
I425
tp8270
a(I62
I278
tp8271
a(I7
I278
tp8272
aa(lp8273
(I182
I916
tp8274
a(I7
I315
tp8275
a(I29
I527
tp8276
a(I78
I521
tp8277
a(I21
I722
tp8278
a(I19
I306
tp8279
a(I57
I385
tp8280
a(I36
I547
tp8281
a(I1
I257
tp8282
a(I1
I163
tp8283
aa(lp8284
(I13
I273
tp8285
a(I36
I425
tp8286
a(I42
I847
tp8287
a(I54
I377
tp8288
a(I16
I463
tp8289
a(I15
I428
tp8290
a(I101
I490
tp8291
a(I39
I336
tp8292
a(I9
I412
tp8293
a(I2
I551
tp8294
aa(lp8295
(I73
I483
tp8296
a(I24
I229
tp8297
a(I9
I223
tp8298
a(I17
I932
tp8299
a(I130
I841
tp8300
a(I42
I660
tp8301
a(I10
I957
tp8302
a(I67
I869
tp8303
a(I18
I590
tp8304
a(I40
I456
tp8305
aa(lp8306
(I1
I192
tp8307
a(I92
I613
tp8308
a(I15
I206
tp8309
a(I102
I559
tp8310
a(I1
I923
tp8311
a(I19
I489
tp8312
a(I31
I341
tp8313
a(I131
I931
tp8314
a(I21
I409
tp8315
a(I8
I796
tp8316
aa(lp8317
(I9
I204
tp8318
a(I106
I702
tp8319
a(I146
I765
tp8320
a(I15
I809
tp8321
a(I14
I164
tp8322
a(I1
I179
tp8323
a(I18
I856
tp8324
a(I52
I352
tp8325
a(I6
I979
tp8326
a(I21
I298
tp8327
aa(lp8328
(I35
I124
tp8329
a(I10
I708
tp8330
a(I18
I162
tp8331
a(I1
I507
tp8332
a(I24
I910
tp8333
a(I26
I670
tp8334
a(I7
I153
tp8335
a(I59
I472
tp8336
a(I7
I198
tp8337
a(I25
I504
tp8338
aa(lp8339
(I6
I661
tp8340
a(I17
I189
tp8341
a(I61
I769
tp8342
a(I78
I626
tp8343
a(I21
I742
tp8344
a(I18
I115
tp8345
a(I21
I516
tp8346
a(I14
I184
tp8347
a(I19
I950
tp8348
a(I28
I249
tp8349
aa(lp8350
(I24
I331
tp8351
a(I18
I210
tp8352
a(I48
I482
tp8353
a(I45
I298
tp8354
a(I5
I369
tp8355
a(I28
I652
tp8356
a(I17
I994
tp8357
a(I6
I109
tp8358
a(I29
I386
tp8359
a(I74
I606
tp8360
aa(lp8361
(I84
I500
tp8362
a(I35
I662
tp8363
a(I124
I877
tp8364
a(I29
I716
tp8365
a(I35
I607
tp8366
a(I1
I183
tp8367
a(I74
I825
tp8368
a(I11
I119
tp8369
a(I15
I210
tp8370
a(I13
I692
tp8371
aa(lp8372
(I37
I642
tp8373
a(I78
I542
tp8374
a(I5
I312
tp8375
a(I12
I930
tp8376
a(I80
I997
tp8377
a(I48
I418
tp8378
a(I6
I332
tp8379
a(I20
I554
tp8380
a(I78
I519
tp8381
a(I54
I490
tp8382
aa(lp8383
(I1
I201
tp8384
a(I60
I300
tp8385
a(I39
I788
tp8386
a(I25
I377
tp8387
a(I5
I627
tp8388
a(I19
I362
tp8389
a(I29
I167
tp8390
a(I20
I381
tp8391
a(I13
I135
tp8392
a(I10
I287
tp8393
aa(lp8394
(I3
I671
tp8395
a(I55
I379
tp8396
a(I7
I205
tp8397
a(I2
I576
tp8398
a(I26
I606
tp8399
a(I89
I788
tp8400
a(I5
I984
tp8401
a(I151
I937
tp8402
a(I84
I441
tp8403
a(I13
I314
tp8404
aa(lp8405
(I105
I956
tp8406
a(I2
I414
tp8407
a(I73
I834
tp8408
a(I50
I731
tp8409
a(I2
I233
tp8410
a(I14
I458
tp8411
a(I72
I366
tp8412
a(I1
I224
tp8413
a(I29
I300
tp8414
a(I138
I991
tp8415
aa(lp8416
(I2
I461
tp8417
a(I7
I983
tp8418
a(I20
I371
tp8419
a(I1
I226
tp8420
a(I71
I597
tp8421
a(I34
I203
tp8422
a(I132
I462
tp8423
a(I66
I944
tp8424
a(I21
I999
tp8425
a(I10
I974
tp8426
aa(lp8427
(I97
I736
tp8428
a(I160
I701
tp8429
a(I90
I754
tp8430
a(I8
I334
tp8431
a(I9
I431
tp8432
a(I2
I840
tp8433
a(I38
I406
tp8434
a(I66
I957
tp8435
a(I16
I712
tp8436
a(I10
I359
tp8437
aa(lp8438
(I14
I358
tp8439
a(I10
I217
tp8440
a(I176
I526
tp8441
a(I92
I882
tp8442
a(I11
I958
tp8443
a(I20
I491
tp8444
a(I24
I754
tp8445
a(I38
I364
tp8446
a(I1
I350
tp8447
a(I26
I947
tp8448
aa(lp8449
(I1
I635
tp8450
a(I1
I202
tp8451
a(I208
I747
tp8452
a(I23
I719
tp8453
a(I46
I373
tp8454
a(I33
I985
tp8455
a(I64
I573
tp8456
a(I29
I762
tp8457
a(I63
I624
tp8458
a(I5
I322
tp8459
aa(lp8460
(I70
I853
tp8461
a(I36
I774
tp8462
a(I13
I274
tp8463
a(I53
I402
tp8464
a(I77
I618
tp8465
a(I10
I979
tp8466
a(I19
I622
tp8467
a(I47
I473
tp8468
a(I25
I300
tp8469
a(I51
I619
tp8470
aa(lp8471
(I32
I657
tp8472
a(I26
I315
tp8473
a(I43
I182
tp8474
a(I77
I963
tp8475
a(I12
I374
tp8476
a(I19
I261
tp8477
a(I14
I220
tp8478
a(I23
I973
tp8479
a(I8
I488
tp8480
a(I59
I707
tp8481
aa(lp8482
(I32
I810
tp8483
a(I30
I611
tp8484
a(I9
I477
tp8485
a(I71
I971
tp8486
a(I154
I862
tp8487
a(I45
I875
tp8488
a(I34
I871
tp8489
a(I12
I737
tp8490
a(I81
I619
tp8491
a(I41
I285
tp8492
aa(lp8493
(I49
I453
tp8494
a(I28
I725
tp8495
a(I26
I906
tp8496
a(I49
I536
tp8497
a(I1
I454
tp8498
a(I18
I499
tp8499
a(I71
I484
tp8500
a(I95
I392
tp8501
a(I11
I698
tp8502
a(I14
I447
tp8503
aa(lp8504
(I11
I371
tp8505
a(I16
I368
tp8506
a(I17
I352
tp8507
a(I1
I169
tp8508
a(I46
I286
tp8509
a(I20
I889
tp8510
a(I33
I495
tp8511
a(I63
I316
tp8512
a(I58
I386
tp8513
a(I18
I799
tp8514
aa(lp8515
(I9
I270
tp8516
a(I1
I616
tp8517
a(I26
I282
tp8518
a(I61
I409
tp8519
a(I22
I791
tp8520
a(I59
I594
tp8521
a(I11
I277
tp8522
a(I72
I342
tp8523
a(I1
I775
tp8524
a(I61
I751
tp8525
aa(lp8526
(I8
I387
tp8527
a(I10
I482
tp8528
a(I68
I975
tp8529
a(I14
I685
tp8530
a(I125
I810
tp8531
a(I2
I554
tp8532
a(I85
I964
tp8533
a(I146
I505
tp8534
a(I20
I393
tp8535
a(I17
I756
tp8536
aa(lp8537
(I48
I399
tp8538
a(I36
I572
tp8539
a(I56
I900
tp8540
a(I71
I753
tp8541
a(I98
I749
tp8542
a(I96
I482
tp8543
a(I3
I321
tp8544
a(I2
I136
tp8545
a(I15
I423
tp8546
a(I6
I729
tp8547
aa(lp8548
(I39
I580
tp8549
a(I67
I871
tp8550
a(I104
I889
tp8551
a(I69
I632
tp8552
a(I26
I863
tp8553
a(I54
I815
tp8554
a(I8
I106
tp8555
a(I29
I198
tp8556
a(I7
I719
tp8557
a(I12
I356
tp8558
aa(lp8559
(I43
I308
tp8560
a(I136
I747
tp8561
a(I14
I590
tp8562
a(I84
I877
tp8563
a(I11
I264
tp8564
a(I46
I766
tp8565
a(I137
I920
tp8566
a(I3
I426
tp8567
a(I4
I113
tp8568
a(I1
I175
tp8569
aa(lp8570
(I126
I995
tp8571
a(I14
I301
tp8572
a(I57
I353
tp8573
a(I37
I391
tp8574
a(I26
I559
tp8575
a(I3
I979
tp8576
a(I70
I651
tp8577
a(I21
I498
tp8578
a(I14
I430
tp8579
a(I40
I492
tp8580
aa(lp8581
(I7
I305
tp8582
a(I65
I688
tp8583
a(I50
I739
tp8584
a(I47
I990
tp8585
a(I4
I111
tp8586
a(I46
I662
tp8587
a(I83
I485
tp8588
a(I92
I868
tp8589
a(I31
I380
tp8590
a(I30
I830
tp8591
aa(lp8592
(I12
I141
tp8593
a(I20
I440
tp8594
a(I1
I283
tp8595
a(I29
I918
tp8596
a(I81
I901
tp8597
a(I56
I709
tp8598
a(I42
I754
tp8599
a(I37
I303
tp8600
a(I149
I670
tp8601
a(I1
I677
tp8602
aa(lp8603
(I14
I501
tp8604
a(I69
I788
tp8605
a(I26
I571
tp8606
a(I47
I201
tp8607
a(I41
I298
tp8608
a(I13
I402
tp8609
a(I36
I648
tp8610
a(I22
I508
tp8611
a(I7
I249
tp8612
a(I11
I227
tp8613
aa(lp8614
(I64
I912
tp8615
a(I192
I851
tp8616
a(I12
I675
tp8617
a(I1
I650
tp8618
a(I14
I751
tp8619
a(I29
I208
tp8620
a(I163
I934
tp8621
a(I7
I289
tp8622
a(I14
I429
tp8623
a(I11
I299
tp8624
aa(lp8625
(I2
I967
tp8626
a(I3
I589
tp8627
a(I1
I214
tp8628
a(I73
I779
tp8629
a(I13
I480
tp8630
a(I69
I436
tp8631
a(I108
I979
tp8632
a(I18
I369
tp8633
a(I38
I403
tp8634
a(I153
I763
tp8635
aa(lp8636
(I11
I587
tp8637
a(I129
I971
tp8638
a(I5
I201
tp8639
a(I1
I331
tp8640
a(I12
I241
tp8641
a(I86
I706
tp8642
a(I3
I199
tp8643
a(I124
I670
tp8644
a(I22
I721
tp8645
a(I63
I400
tp8646
aa(lp8647
(I39
I501
tp8648
a(I48
I657
tp8649
a(I109
I793
tp8650
a(I21
I936
tp8651
a(I17
I198
tp8652
a(I152
I842
tp8653
a(I29
I676
tp8654
a(I14
I170
tp8655
a(I3
I613
tp8656
a(I11
I372
tp8657
aa(lp8658
(I1
I162
tp8659
a(I3
I309
tp8660
a(I22
I259
tp8661
a(I97
I472
tp8662
a(I16
I185
tp8663
a(I31
I488
tp8664
a(I67
I724
tp8665
a(I91
I545
tp8666
a(I14
I814
tp8667
a(I9
I981
tp8668
aa(lp8669
(I59
I567
tp8670
a(I8
I259
tp8671
a(I8
I635
tp8672
a(I24
I325
tp8673
a(I22
I305
tp8674
a(I8
I745
tp8675
a(I171
I953
tp8676
a(I9
I296
tp8677
a(I18
I148
tp8678
a(I22
I223
tp8679
aa(lp8680
(I6
I105
tp8681
a(I1
I103
tp8682
a(I21
I986
tp8683
a(I1
I448
tp8684
a(I1
I322
tp8685
a(I157
I560
tp8686
a(I25
I298
tp8687
a(I86
I744
tp8688
a(I110
I737
tp8689
a(I1
I744
tp8690
aa(lp8691
(I1
I178
tp8692
a(I145
I561
tp8693
a(I57
I676
tp8694
a(I17
I265
tp8695
a(I109
I963
tp8696
a(I87
I652
tp8697
a(I3
I293
tp8698
a(I1
I744
tp8699
a(I4
I365
tp8700
a(I26
I397
tp8701
aa(lp8702
(I15
I294
tp8703
a(I4
I398
tp8704
a(I436
I863
tp8705
a(I2
I244
tp8706
a(I9
I532
tp8707
a(I13
I532
tp8708
a(I62
I675
tp8709
a(I1
I427
tp8710
a(I15
I552
tp8711
a(I5
I767
tp8712
aa(lp8713
(I15
I117
tp8714
a(I10
I320
tp8715
a(I108
I798
tp8716
a(I12
I493
tp8717
a(I74
I412
tp8718
a(I5
I684
tp8719
a(I1
I120
tp8720
a(I45
I743
tp8721
a(I78
I482
tp8722
a(I2
I797
tp8723
aa(lp8724
(I14
I821
tp8725
a(I1
I110
tp8726
a(I10
I211
tp8727
a(I270
I639
tp8728
a(I11
I398
tp8729
a(I17
I445
tp8730
a(I92
I608
tp8731
a(I1
I310
tp8732
a(I3
I261
tp8733
a(I9
I586
tp8734
aa(lp8735
(I117
I909
tp8736
a(I36
I686
tp8737
a(I51
I607
tp8738
a(I7
I221
tp8739
a(I6
I154
tp8740
a(I5
I197
tp8741
a(I25
I370
tp8742
a(I5
I556
tp8743
a(I161
I795
tp8744
a(I13
I138
tp8745
aa(lp8746
(I62
I678
tp8747
a(I8
I126
tp8748
a(I2
I331
tp8749
a(I129
I763
tp8750
a(I28
I572
tp8751
a(I83
I389
tp8752
a(I1
I680
tp8753
a(I24
I909
tp8754
a(I56
I706
tp8755
a(I24
I608
tp8756
aa(lp8757
(I8
I175
tp8758
a(I35
I560
tp8759
a(I59
I453
tp8760
a(I10
I257
tp8761
a(I46
I747
tp8762
a(I31
I485
tp8763
a(I30
I556
tp8764
a(I30
I764
tp8765
a(I15
I463
tp8766
a(I165
I783
tp8767
aa(lp8768
(I64
I296
tp8769
a(I15
I310
tp8770
a(I3
I864
tp8771
a(I4
I240
tp8772
a(I35
I657
tp8773
a(I25
I173
tp8774
a(I6
I822
tp8775
a(I9
I232
tp8776
a(I6
I370
tp8777
a(I146
I767
tp8778
aa(lp8779
(I44
I596
tp8780
a(I1
I300
tp8781
a(I49
I449
tp8782
a(I23
I186
tp8783
a(I59
I768
tp8784
a(I46
I554
tp8785
a(I4
I271
tp8786
a(I84
I802
tp8787
a(I97
I711
tp8788
a(I10
I614
tp8789
aa(lp8790
(I40
I492
tp8791
a(I117
I974
tp8792
a(I23
I555
tp8793
a(I11
I752
tp8794
a(I6
I752
tp8795
a(I3
I159
tp8796
a(I197
I936
tp8797
a(I126
I943
tp8798
a(I54
I572
tp8799
a(I14
I752
tp8800
aa(lp8801
(I89
I758
tp8802
a(I9
I611
tp8803
a(I30
I668
tp8804
a(I85
I627
tp8805
a(I29
I394
tp8806
a(I3
I625
tp8807
a(I4
I507
tp8808
a(I11
I442
tp8809
a(I16
I643
tp8810
a(I85
I290
tp8811
aa(lp8812
(I32
I336
tp8813
a(I1
I191
tp8814
a(I40
I324
tp8815
a(I2
I314
tp8816
a(I123
I774
tp8817
a(I10
I297
tp8818
a(I40
I395
tp8819
a(I33
I349
tp8820
a(I18
I914
tp8821
a(I55
I557
tp8822
aa(lp8823
(I48
I834
tp8824
a(I3
I705
tp8825
a(I11
I580
tp8826
a(I64
I772
tp8827
a(I29
I418
tp8828
a(I5
I170
tp8829
a(I57
I247
tp8830
a(I13
I311
tp8831
a(I86
I560
tp8832
a(I6
I115
tp8833
aa(lp8834
(I59
I843
tp8835
a(I22
I290
tp8836
a(I172
I598
tp8837
a(I5
I133
tp8838
a(I2
I297
tp8839
a(I15
I918
tp8840
a(I12
I435
tp8841
a(I2
I995
tp8842
a(I78
I741
tp8843
a(I105
I963
tp8844
aa(lp8845
(I43
I880
tp8846
a(I32
I372
tp8847
a(I1
I246
tp8848
a(I93
I292
tp8849
a(I11
I157
tp8850
a(I22
I731
tp8851
a(I40
I921
tp8852
a(I18
I690
tp8853
a(I20
I366
tp8854
a(I16
I316
tp8855
aa(lp8856
(I96
I626
tp8857
a(I8
I249
tp8858
a(I10
I668
tp8859
a(I31
I588
tp8860
a(I130
I849
tp8861
a(I60
I722
tp8862
a(I35
I285
tp8863
a(I47
I581
tp8864
a(I11
I453
tp8865
a(I19
I978
tp8866
aa(lp8867
(I2
I130
tp8868
a(I15
I675
tp8869
a(I19
I214
tp8870
a(I34
I837
tp8871
a(I69
I705
tp8872
a(I42
I715
tp8873
a(I112
I669
tp8874
a(I1
I384
tp8875
a(I69
I761
tp8876
a(I40
I264
tp8877
aa(lp8878
(I8
I251
tp8879
a(I5
I521
tp8880
a(I22
I342
tp8881
a(I26
I577
tp8882
a(I53
I760
tp8883
a(I11
I381
tp8884
a(I123
I700
tp8885
a(I47
I717
tp8886
a(I58
I612
tp8887
a(I57
I376
tp8888
aa(lp8889
(I14
I448
tp8890
a(I100
I323
tp8891
a(I24
I329
tp8892
a(I5
I714
tp8893
a(I35
I894
tp8894
a(I37
I603
tp8895
a(I58
I408
tp8896
a(I1
I195
tp8897
a(I4
I439
tp8898
a(I17
I292
tp8899
aa(lp8900
(I2
I992
tp8901
a(I161
I734
tp8902
a(I11
I855
tp8903
a(I25
I269
tp8904
a(I35
I764
tp8905
a(I28
I372
tp8906
a(I4
I187
tp8907
a(I60
I724
tp8908
a(I4
I329
tp8909
a(I51
I299
tp8910
aa(lp8911
(I29
I998
tp8912
a(I1
I335
tp8913
a(I282
I593
tp8914
a(I4
I739
tp8915
a(I18
I402
tp8916
a(I35
I584
tp8917
a(I52
I883
tp8918
a(I15
I842
tp8919
a(I9
I323
tp8920
a(I22
I998
tp8921
aa(lp8922
(I4
I183
tp8923
a(I6
I182
tp8924
a(I143
I653
tp8925
a(I32
I361
tp8926
a(I138
I721
tp8927
a(I70
I808
tp8928
a(I41
I676
tp8929
a(I1
I374
tp8930
a(I9
I933
tp8931
a(I19
I780
tp8932
aa(lp8933
(I10
I303
tp8934
a(I17
I969
tp8935
a(I29
I411
tp8936
a(I73
I660
tp8937
a(I107
I869
tp8938
a(I97
I888
tp8939
a(I65
I549
tp8940
a(I15
I502
tp8941
a(I116
I999
tp8942
a(I6
I442
tp8943
aa(lp8944
(I140
I729
tp8945
a(I3
I360
tp8946
a(I1
I920
tp8947
a(I1
I802
tp8948
a(I15
I394
tp8949
a(I27
I167
tp8950
a(I35
I651
tp8951
a(I153
I936
tp8952
a(I2
I499
tp8953
a(I29
I247
tp8954
aa(lp8955
(I29
I366
tp8956
a(I39
I463
tp8957
a(I37
I568
tp8958
a(I15
I151
tp8959
a(I1
I220
tp8960
a(I3
I152
tp8961
a(I34
I577
tp8962
a(I3
I348
tp8963
a(I107
I956
tp8964
a(I88
I430
tp8965
aa(lp8966
(I66
I847
tp8967
a(I124
I831
tp8968
a(I5
I169
tp8969
a(I9
I390
tp8970
a(I39
I684
tp8971
a(I231
I823
tp8972
a(I1
I640
tp8973
a(I3
I128
tp8974
a(I2
I199
tp8975
a(I39
I472
tp8976
aa(lp8977
(I31
I242
tp8978
a(I75
I864
tp8979
a(I62
I939
tp8980
a(I10
I433
tp8981
a(I80
I989
tp8982
a(I174
I814
tp8983
a(I31
I419
tp8984
a(I9
I715
tp8985
a(I16
I839
tp8986
a(I14
I383
tp8987
aa(lp8988
(I74
I801
tp8989
a(I10
I284
tp8990
a(I97
I964
tp8991
a(I156
I653
tp8992
a(I70
I591
tp8993
a(I55
I854
tp8994
a(I15
I694
tp8995
a(I5
I318
tp8996
a(I22
I537
tp8997
a(I8
I871
tp8998
aa(lp8999
(I8
I398
tp9000
a(I106
I785
tp9001
a(I8
I171
tp9002
a(I17
I225
tp9003
a(I4
I918
tp9004
a(I64
I838
tp9005
a(I31
I430
tp9006
a(I50
I450
tp9007
a(I63
I510
tp9008
a(I44
I599
tp9009
aa(lp9010
(I14
I912
tp9011
a(I6
I419
tp9012
a(I22
I914
tp9013
a(I214
I890
tp9014
a(I1
I144
tp9015
a(I85
I867
tp9016
a(I14
I584
tp9017
a(I100
I378
tp9018
a(I20
I415
tp9019
a(I4
I707
tp9020
aa(lp9021
(I1
I148
tp9022
a(I49
I988
tp9023
a(I85
I856
tp9024
a(I10
I742
tp9025
a(I37
I851
tp9026
a(I15
I707
tp9027
a(I83
I253
tp9028
a(I75
I970
tp9029
a(I6
I179
tp9030
a(I19
I267
tp9031
aa(lp9032
(I31
I847
tp9033
a(I74
I539
tp9034
a(I109
I586
tp9035
a(I1
I216
tp9036
a(I13
I306
tp9037
a(I2
I423
tp9038
a(I41
I600
tp9039
a(I93
I633
tp9040
a(I15
I342
tp9041
a(I9
I124
tp9042
aa(lp9043
(I99
I867
tp9044
a(I9
I299
tp9045
a(I2
I163
tp9046
a(I28
I552
tp9047
a(I1
I420
tp9048
a(I16
I117
tp9049
a(I23
I607
tp9050
a(I71
I332
tp9051
a(I66
I916
tp9052
a(I36
I551
tp9053
aa(lp9054
(I23
I524
tp9055
a(I4
I376
tp9056
a(I35
I760
tp9057
a(I80
I494
tp9058
a(I2
I236
tp9059
a(I1
I117
tp9060
a(I227
I915
tp9061
a(I10
I252
tp9062
a(I67
I441
tp9063
a(I7
I413
tp9064
aa(lp9065
(I7
I604
tp9066
a(I1
I466
tp9067
a(I29
I878
tp9068
a(I63
I893
tp9069
a(I231
I831
tp9070
a(I51
I587
tp9071
a(I62
I386
tp9072
a(I32
I368
tp9073
a(I2
I280
tp9074
a(I1
I450
tp9075
aa(lp9076
(I3
I109
tp9077
a(I2
I123
tp9078
a(I15
I830
tp9079
a(I8
I109
tp9080
a(I52
I911
tp9081
a(I4
I932
tp9082
a(I21
I200
tp9083
a(I9
I832
tp9084
a(I115
I929
tp9085
a(I167
I578
tp9086
aa(lp9087
(I33
I136
tp9088
a(I39
I471
tp9089
a(I57
I403
tp9090
a(I19
I459
tp9091
a(I79
I940
tp9092
a(I25
I975
tp9093
a(I9
I491
tp9094
a(I18
I823
tp9095
a(I37
I766
tp9096
a(I12
I394
tp9097
aa(lp9098
(I149
I598
tp9099
a(I12
I657
tp9100
a(I85
I446
tp9101
a(I9
I827
tp9102
a(I38
I901
tp9103
a(I2
I721
tp9104
a(I38
I644
tp9105
a(I2
I427
tp9106
a(I92
I950
tp9107
a(I26
I389
tp9108
aa(lp9109
(I3
I181
tp9110
a(I80
I435
tp9111
a(I16
I682
tp9112
a(I71
I572
tp9113
a(I164
I877
tp9114
a(I52
I927
tp9115
a(I4
I713
tp9116
a(I12
I459
tp9117
a(I3
I129
tp9118
a(I39
I452
tp9119
aa(lp9120
(I96
I434
tp9121
a(I6
I646
tp9122
a(I23
I159
tp9123
a(I20
I399
tp9124
a(I12
I109
tp9125
a(I4
I486
tp9126
a(I16
I640
tp9127
a(I74
I675
tp9128
a(I5
I382
tp9129
a(I31
I785
tp9130
aa(lp9131
(I11
I137
tp9132
a(I30
I998
tp9133
a(I9
I192
tp9134
a(I12
I111
tp9135
a(I35
I688
tp9136
a(I3
I220
tp9137
a(I19
I985
tp9138
a(I19
I156
tp9139
a(I63
I764
tp9140
a(I27
I144
tp9141
aa(lp9142
(I67
I376
tp9143
a(I1
I509
tp9144
a(I3
I195
tp9145
a(I129
I743
tp9146
a(I4
I121
tp9147
a(I88
I757
tp9148
a(I2
I161
tp9149
a(I13
I152
tp9150
a(I28
I550
tp9151
a(I13
I230
tp9152
aa(lp9153
(I42
I930
tp9154
a(I22
I985
tp9155
a(I97
I626
tp9156
a(I21
I225
tp9157
a(I19
I397
tp9158
a(I99
I845
tp9159
a(I17
I485
tp9160
a(I129
I801
tp9161
a(I3
I125
tp9162
a(I10
I306
tp9163
aa(lp9164
(I36
I321
tp9165
a(I3
I941
tp9166
a(I96
I651
tp9167
a(I33
I141
tp9168
a(I1
I232
tp9169
a(I1
I162
tp9170
a(I34
I766
tp9171
a(I5
I376
tp9172
a(I1
I136
tp9173
a(I50
I299
tp9174
aa(lp9175
(I4
I207
tp9176
a(I16
I574
tp9177
a(I15
I490
tp9178
a(I97
I954
tp9179
a(I31
I746
tp9180
a(I31
I484
tp9181
a(I9
I210
tp9182
a(I6
I325
tp9183
a(I68
I580
tp9184
a(I112
I407
tp9185
aa(lp9186
(I21
I207
tp9187
a(I150
I797
tp9188
a(I3
I207
tp9189
a(I47
I263
tp9190
a(I7
I826
tp9191
a(I32
I898
tp9192
a(I4
I300
tp9193
a(I3
I997
tp9194
a(I21
I930
tp9195
a(I99
I584
tp9196
aa(lp9197
(I58
I487
tp9198
a(I76
I585
tp9199
a(I89
I625
tp9200
a(I13
I381
tp9201
a(I9
I188
tp9202
a(I6
I888
tp9203
a(I15
I517
tp9204
a(I31
I284
tp9205
a(I12
I728
tp9206
a(I84
I799
tp9207
aa(lp9208
(I32
I227
tp9209
a(I84
I773
tp9210
a(I16
I731
tp9211
a(I46
I662
tp9212
a(I12
I393
tp9213
a(I1
I264
tp9214
a(I42
I454
tp9215
a(I157
I753
tp9216
a(I2
I576
tp9217
a(I58
I981
tp9218
aa(lp9219
(I2
I127
tp9220
a(I26
I259
tp9221
a(I2
I327
tp9222
a(I37
I418
tp9223
a(I30
I774
tp9224
a(I63
I743
tp9225
a(I13
I417
tp9226
a(I12
I187
tp9227
a(I96
I979
tp9228
a(I27
I133
tp9229
aa(lp9230
(I1
I114
tp9231
a(I5
I848
tp9232
a(I5
I304
tp9233
a(I47
I696
tp9234
a(I19
I335
tp9235
a(I4
I826
tp9236
a(I26
I558
tp9237
a(I231
I497
tp9238
a(I20
I541
tp9239
a(I20
I779
tp9240
aa(lp9241
(I35
I795
tp9242
a(I21
I480
tp9243
a(I27
I234
tp9244
a(I87
I860
tp9245
a(I30
I210
tp9246
a(I74
I662
tp9247
a(I27
I376
tp9248
a(I16
I527
tp9249
a(I21
I537
tp9250
a(I34
I849
tp9251
aa(lp9252
(I76
I788
tp9253
a(I30
I869
tp9254
a(I35
I478
tp9255
a(I1
I151
tp9256
a(I20
I178
tp9257
a(I98
I621
tp9258
a(I52
I469
tp9259
a(I1
I164
tp9260
a(I47
I378
tp9261
a(I7
I605
tp9262
aa(lp9263
(I50
I277
tp9264
a(I12
I300
tp9265
a(I124
I985
tp9266
a(I34
I637
tp9267
a(I20
I154
tp9268
a(I19
I358
tp9269
a(I40
I464
tp9270
a(I15
I546
tp9271
a(I17
I857
tp9272
a(I10
I437
tp9273
aa(lp9274
(I30
I809
tp9275
a(I36
I611
tp9276
a(I81
I623
tp9277
a(I74
I823
tp9278
a(I40
I417
tp9279
a(I157
I913
tp9280
a(I39
I977
tp9281
a(I9
I474
tp9282
a(I79
I882
tp9283
a(I11
I939
tp9284
aa(lp9285
(I1
I670
tp9286
a(I54
I634
tp9287
a(I33
I733
tp9288
a(I43
I619
tp9289
a(I25
I593
tp9290
a(I48
I867
tp9291
a(I22
I791
tp9292
a(I12
I314
tp9293
a(I65
I521
tp9294
a(I143
I571
tp9295
aa(lp9296
(I4
I161
tp9297
a(I50
I330
tp9298
a(I21
I448
tp9299
a(I44
I511
tp9300
a(I1
I272
tp9301
a(I82
I469
tp9302
a(I11
I164
tp9303
a(I40
I386
tp9304
a(I5
I416
tp9305
a(I18
I276
tp9306
aa(lp9307
(I56
I506
tp9308
a(I60
I823
tp9309
a(I9
I403
tp9310
a(I8
I146
tp9311
a(I32
I702
tp9312
a(I33
I996
tp9313
a(I4
I124
tp9314
a(I166
I967
tp9315
a(I27
I527
tp9316
a(I132
I911
tp9317
aa(lp9318
(I13
I207
tp9319
a(I53
I390
tp9320
a(I65
I645
tp9321
a(I23
I371
tp9322
a(I19
I223
tp9323
a(I57
I986
tp9324
a(I76
I743
tp9325
a(I16
I777
tp9326
a(I4
I165
tp9327
a(I77
I917
tp9328
aa(lp9329
(I55
I505
tp9330
a(I27
I707
tp9331
a(I17
I407
tp9332
a(I32
I226
tp9333
a(I2
I138
tp9334
a(I14
I112
tp9335
a(I39
I921
tp9336
a(I37
I401
tp9337
a(I43
I340
tp9338
a(I1
I643
tp9339
aa(lp9340
(I78
I646
tp9341
a(I21
I126
tp9342
a(I19
I601
tp9343
a(I4
I224
tp9344
a(I46
I732
tp9345
a(I53
I298
tp9346
a(I13
I482
tp9347
a(I35
I528
tp9348
a(I8
I152
tp9349
a(I10
I736
tp9350
aa(lp9351
(I9
I824
tp9352
a(I2
I593
tp9353
a(I1
I268
tp9354
a(I9
I263
tp9355
a(I84
I858
tp9356
a(I19
I148
tp9357
a(I79
I264
tp9358
a(I31
I443
tp9359
a(I31
I401
tp9360
a(I1
I113
tp9361
aa(lp9362
(I39
I522
tp9363
a(I48
I781
tp9364
a(I17
I431
tp9365
a(I1
I116
tp9366
a(I17
I467
tp9367
a(I121
I948
tp9368
a(I61
I685
tp9369
a(I10
I872
tp9370
a(I179
I643
tp9371
a(I4
I191
tp9372
aa(lp9373
(I37
I453
tp9374
a(I106
I667
tp9375
a(I2
I249
tp9376
a(I30
I304
tp9377
a(I91
I985
tp9378
a(I9
I149
tp9379
a(I16
I233
tp9380
a(I15
I302
tp9381
a(I4
I281
tp9382
a(I41
I395
tp9383
aa(lp9384
(I37
I528
tp9385
a(I4
I174
tp9386
a(I6
I626
tp9387
a(I35
I681
tp9388
a(I53
I773
tp9389
a(I57
I372
tp9390
a(I22
I175
tp9391
a(I7
I578
tp9392
a(I3
I416
tp9393
a(I30
I140
tp9394
aa(lp9395
(I9
I301
tp9396
a(I87
I873
tp9397
a(I31
I572
tp9398
a(I9
I422
tp9399
a(I31
I204
tp9400
a(I9
I568
tp9401
a(I70
I773
tp9402
a(I139
I822
tp9403
a(I26
I571
tp9404
a(I34
I531
tp9405
aa(lp9406
(I22
I624
tp9407
a(I1
I115
tp9408
a(I15
I901
tp9409
a(I348
I821
tp9410
a(I103
I769
tp9411
a(I4
I379
tp9412
a(I33
I574
tp9413
a(I8
I302
tp9414
a(I1
I589
tp9415
a(I15
I656
tp9416
aa(lp9417
(I16
I354
tp9418
a(I1
I112
tp9419
a(I60
I470
tp9420
a(I4
I128
tp9421
a(I19
I253
tp9422
a(I10
I334
tp9423
a(I34
I483
tp9424
a(I18
I620
tp9425
a(I23
I745
tp9426
a(I140
I482
tp9427
aa(lp9428
(I54
I542
tp9429
a(I37
I890
tp9430
a(I4
I940
tp9431
a(I13
I650
tp9432
a(I31
I373
tp9433
a(I121
I640
tp9434
a(I46
I654
tp9435
a(I103
I973
tp9436
a(I71
I583
tp9437
a(I4
I578
tp9438
aa(lp9439
(I58
I731
tp9440
a(I29
I652
tp9441
a(I65
I773
tp9442
a(I71
I576
tp9443
a(I67
I747
tp9444
a(I57
I513
tp9445
a(I2
I136
tp9446
a(I77
I633
tp9447
a(I11
I260
tp9448
a(I20
I740
tp9449
aa(lp9450
(I8
I126
tp9451
a(I58
I663
tp9452
a(I7
I656
tp9453
a(I35
I575
tp9454
a(I57
I483
tp9455
a(I119
I999
tp9456
a(I7
I496
tp9457
a(I43
I428
tp9458
a(I60
I516
tp9459
a(I31
I630
tp9460
aa(lp9461
(I30
I705
tp9462
a(I174
I739
tp9463
a(I45
I790
tp9464
a(I4
I653
tp9465
a(I31
I398
tp9466
a(I102
I815
tp9467
a(I53
I795
tp9468
a(I53
I674
tp9469
a(I15
I880
tp9470
a(I30
I828
tp9471
aa(lp9472
(I281
I976
tp9473
a(I6
I745
tp9474
a(I8
I897
tp9475
a(I37
I875
tp9476
a(I11
I424
tp9477
a(I80
I737
tp9478
a(I3
I840
tp9479
a(I73
I965
tp9480
a(I7
I202
tp9481
a(I65
I446
tp9482
aa(lp9483
(I96
I988
tp9484
a(I47
I515
tp9485
a(I2
I943
tp9486
a(I35
I306
tp9487
a(I17
I885
tp9488
a(I72
I417
tp9489
a(I12
I593
tp9490
a(I141
I984
tp9491
a(I31
I994
tp9492
a(I49
I949
tp9493
aa(lp9494
(I35
I403
tp9495
a(I4
I162
tp9496
a(I1
I218
tp9497
a(I14
I169
tp9498
a(I36
I827
tp9499
a(I1
I117
tp9500
a(I160
I887
tp9501
a(I28
I291
tp9502
a(I28
I172
tp9503
a(I49
I995
tp9504
aa(lp9505
(I1
I318
tp9506
a(I1
I428
tp9507
a(I1
I978
tp9508
a(I48
I547
tp9509
a(I2
I264
tp9510
a(I212
I620
tp9511
a(I23
I240
tp9512
a(I44
I639
tp9513
a(I24
I498
tp9514
a(I60
I731
tp9515
aa(lp9516
(I36
I232
tp9517
a(I191
I582
tp9518
a(I1
I169
tp9519
a(I21
I287
tp9520
a(I25
I637
tp9521
a(I7
I400
tp9522
a(I83
I896
tp9523
a(I4
I622
tp9524
a(I19
I952
tp9525
a(I1
I198
tp9526
aa(lp9527
(I14
I290
tp9528
a(I8
I275
tp9529
a(I64
I734
tp9530
a(I11
I230
tp9531
a(I1
I331
tp9532
a(I26
I867
tp9533
a(I15
I300
tp9534
a(I96
I557
tp9535
a(I45
I272
tp9536
a(I80
I776
tp9537
aa(lp9538
(I3
I585
tp9539
a(I34
I722
tp9540
a(I84
I697
tp9541
a(I68
I877
tp9542
a(I43
I807
tp9543
a(I15
I490
tp9544
a(I47
I302
tp9545
a(I107
I879
tp9546
a(I38
I817
tp9547
a(I41
I492
tp9548
aa(lp9549
(I34
I717
tp9550
a(I33
I913
tp9551
a(I31
I768
tp9552
a(I2
I354
tp9553
a(I10
I158
tp9554
a(I10
I673
tp9555
a(I120
I675
tp9556
a(I159
I579
tp9557
a(I18
I898
tp9558
a(I33
I548
tp9559
aa(lp9560
(I38
I316
tp9561
a(I18
I556
tp9562
a(I15
I898
tp9563
a(I55
I910
tp9564
a(I45
I318
tp9565
a(I61
I603
tp9566
a(I11
I981
tp9567
a(I90
I739
tp9568
a(I101
I826
tp9569
a(I8
I608
tp9570
aa(lp9571
(I14
I176
tp9572
a(I185
I633
tp9573
a(I3
I219
tp9574
a(I18
I499
tp9575
a(I4
I776
tp9576
a(I16
I818
tp9577
a(I43
I609
tp9578
a(I38
I843
tp9579
a(I4
I245
tp9580
a(I108
I686
tp9581
aa(lp9582
(I31
I775
tp9583
a(I9
I832
tp9584
a(I50
I447
tp9585
a(I163
I789
tp9586
a(I20
I156
tp9587
a(I62
I603
tp9588
a(I1
I120
tp9589
a(I34
I658
tp9590
a(I27
I392
tp9591
a(I3
I224
tp9592
aa(lp9593
(I51
I575
tp9594
a(I5
I161
tp9595
a(I1
I497
tp9596
a(I22
I821
tp9597
a(I9
I919
tp9598
a(I129
I650
tp9599
a(I5
I930
tp9600
a(I72
I446
tp9601
a(I61
I285
tp9602
a(I1
I549
tp9603
aa(lp9604
(I74
I646
tp9605
a(I1
I123
tp9606
a(I40
I841
tp9607
a(I68
I951
tp9608
a(I9
I505
tp9609
a(I139
I817
tp9610
a(I137
I971
tp9611
a(I20
I325
tp9612
a(I13
I579
tp9613
a(I23
I250
tp9614
aa(lp9615
(I10
I309
tp9616
a(I81
I963
tp9617
a(I46
I461
tp9618
a(I68
I835
tp9619
a(I47
I913
tp9620
a(I6
I125
tp9621
a(I15
I649
tp9622
a(I29
I730
tp9623
a(I7
I472
tp9624
a(I157
I588
tp9625
aa(lp9626
(I6
I753
tp9627
a(I16
I974
tp9628
a(I63
I495
tp9629
a(I9
I694
tp9630
a(I213
I667
tp9631
a(I7
I137
tp9632
a(I12
I233
tp9633
a(I14
I146
tp9634
a(I30
I642
tp9635
a(I4
I779
tp9636
aa(lp9637
(I1
I667
tp9638
a(I223
I722
tp9639
a(I101
I719
tp9640
a(I6
I598
tp9641
a(I2
I122
tp9642
a(I32
I975
tp9643
a(I1
I306
tp9644
a(I88
I629
tp9645
a(I29
I442
tp9646
a(I8
I380
tp9647
aa(lp9648
(I32
I213
tp9649
a(I78
I789
tp9650
a(I51
I485
tp9651
a(I36
I419
tp9652
a(I53
I994
tp9653
a(I7
I414
tp9654
a(I13
I427
tp9655
a(I12
I516
tp9656
a(I165
I949
tp9657
a(I1
I343
tp9658
aa(lp9659
(I24
I146
tp9660
a(I60
I930
tp9661
a(I23
I708
tp9662
a(I120
I992
tp9663
a(I38
I530
tp9664
a(I4
I593
tp9665
a(I85
I552
tp9666
a(I1
I935
tp9667
a(I24
I232
tp9668
a(I13
I666
tp9669
aa(lp9670
(I23
I776
tp9671
a(I73
I989
tp9672
a(I121
I678
tp9673
a(I16
I211
tp9674
a(I34
I695
tp9675
a(I41
I471
tp9676
a(I1
I192
tp9677
a(I85
I825
tp9678
a(I32
I973
tp9679
a(I35
I327
tp9680
aa(lp9681
(I51
I664
tp9682
a(I23
I137
tp9683
a(I51
I913
tp9684
a(I6
I300
tp9685
a(I12
I839
tp9686
a(I28
I543
tp9687
a(I9
I621
tp9688
a(I35
I485
tp9689
a(I186
I707
tp9690
a(I2
I728
tp9691
aa(lp9692
(I36
I555
tp9693
a(I5
I522
tp9694
a(I19
I499
tp9695
a(I46
I607
tp9696
a(I50
I227
tp9697
a(I60
I744
tp9698
a(I63
I809
tp9699
a(I33
I963
tp9700
a(I1
I127
tp9701
a(I72
I544
tp9702
aa(lp9703
(I26
I505
tp9704
a(I6
I449
tp9705
a(I1
I460
tp9706
a(I96
I622
tp9707
a(I19
I742
tp9708
a(I57
I580
tp9709
a(I45
I455
tp9710
a(I14
I524
tp9711
a(I51
I237
tp9712
a(I55
I993
tp9713
aa(lp9714
(I101
I543
tp9715
a(I1
I998
tp9716
a(I1
I142
tp9717
a(I167
I609
tp9718
a(I33
I304
tp9719
a(I10
I524
tp9720
a(I18
I220
tp9721
a(I48
I941
tp9722
a(I4
I401
tp9723
a(I3
I326
tp9724
aa(lp9725
(I42
I855
tp9726
a(I26
I302
tp9727
a(I102
I323
tp9728
a(I20
I377
tp9729
a(I4
I150
tp9730
a(I15
I434
tp9731
a(I10
I633
tp9732
a(I4
I157
tp9733
a(I10
I345
tp9734
a(I66
I690
tp9735
aa(lp9736
(I3
I518
tp9737
a(I9
I877
tp9738
a(I10
I326
tp9739
a(I2
I281
tp9740
a(I60
I438
tp9741
a(I30
I353
tp9742
a(I47
I672
tp9743
a(I268
I723
tp9744
a(I3
I174
tp9745
a(I1
I266
tp9746
aa(lp9747
(I8
I454
tp9748
a(I43
I669
tp9749
a(I51
I999
tp9750
a(I56
I361
tp9751
a(I38
I256
tp9752
a(I115
I610
tp9753
a(I11
I242
tp9754
a(I6
I426
tp9755
a(I2
I252
tp9756
a(I36
I808
tp9757
aa(lp9758
(I1
I197
tp9759
a(I212
I714
tp9760
a(I42
I381
tp9761
a(I9
I619
tp9762
a(I13
I537
tp9763
a(I39
I295
tp9764
a(I1
I607
tp9765
a(I7
I829
tp9766
a(I17
I543
tp9767
a(I14
I126
tp9768
aa(lp9769
(I6
I472
tp9770
a(I14
I122
tp9771
a(I1
I873
tp9772
a(I121
I935
tp9773
a(I21
I296
tp9774
a(I1
I725
tp9775
a(I19
I766
tp9776
a(I28
I755
tp9777
a(I154
I912
tp9778
a(I104
I578
tp9779
aa(lp9780
(I1
I309
tp9781
a(I9
I689
tp9782
a(I27
I584
tp9783
a(I1
I127
tp9784
a(I236
I738
tp9785
a(I47
I385
tp9786
a(I82
I912
tp9787
a(I5
I974
tp9788
a(I10
I450
tp9789
a(I105
I984
tp9790
aa(lp9791
(I55
I643
tp9792
a(I24
I544
tp9793
a(I61
I688
tp9794
a(I1
I489
tp9795
a(I187
I474
tp9796
a(I1
I487
tp9797
a(I16
I572
tp9798
a(I5
I430
tp9799
a(I11
I886
tp9800
a(I41
I569
tp9801
aa(lp9802
(I31
I534
tp9803
a(I9
I385
tp9804
a(I59
I428
tp9805
a(I63
I282
tp9806
a(I51
I299
tp9807
a(I10
I861
tp9808
a(I3
I159
tp9809
a(I12
I577
tp9810
a(I27
I626
tp9811
a(I30
I892
tp9812
aa(lp9813
(I2
I195
tp9814
a(I22
I933
tp9815
a(I34
I373
tp9816
a(I5
I276
tp9817
a(I3
I891
tp9818
a(I72
I666
tp9819
a(I143
I950
tp9820
a(I12
I137
tp9821
a(I90
I495
tp9822
a(I42
I698
tp9823
aa(lp9824
(I44
I676
tp9825
a(I21
I888
tp9826
a(I55
I394
tp9827
a(I3
I420
tp9828
a(I47
I276
tp9829
a(I2
I199
tp9830
a(I120
I829
tp9831
a(I10
I319
tp9832
a(I32
I608
tp9833
a(I77
I847
tp9834
aa(lp9835
(I5
I370
tp9836
a(I14
I168
tp9837
a(I23
I288
tp9838
a(I42
I512
tp9839
a(I36
I612
tp9840
a(I49
I440
tp9841
a(I28
I132
tp9842
a(I9
I346
tp9843
a(I10
I199
tp9844
a(I4
I318
tp9845
aa(lp9846
(I10
I253
tp9847
a(I161
I877
tp9848
a(I52
I533
tp9849
a(I13
I696
tp9850
a(I92
I980
tp9851
a(I69
I728
tp9852
a(I1
I808
tp9853
a(I31
I879
tp9854
a(I42
I793
tp9855
a(I55
I452
tp9856
aa(lp9857
(I7
I364
tp9858
a(I143
I823
tp9859
a(I50
I786
tp9860
a(I19
I838
tp9861
a(I5
I283
tp9862
a(I17
I557
tp9863
a(I57
I301
tp9864
a(I35
I414
tp9865
a(I18
I405
tp9866
a(I81
I840
tp9867
aa(lp9868
(I59
I665
tp9869
a(I1
I192
tp9870
a(I37
I644
tp9871
a(I4
I417
tp9872
a(I15
I369
tp9873
a(I16
I136
tp9874
a(I37
I903
tp9875
a(I1
I764
tp9876
a(I23
I563
tp9877
a(I331
I973
tp9878
aa(lp9879
(I8
I243
tp9880
a(I6
I541
tp9881
a(I4
I395
tp9882
a(I73
I970
tp9883
a(I51
I649
tp9884
a(I11
I593
tp9885
a(I65
I206
tp9886
a(I86
I998
tp9887
a(I60
I583
tp9888
a(I1
I372
tp9889
aa(lp9890
(I125
I754
tp9891
a(I86
I934
tp9892
a(I2
I835
tp9893
a(I107
I581
tp9894
a(I4
I172
tp9895
a(I34
I372
tp9896
a(I4
I416
tp9897
a(I46
I746
tp9898
a(I5
I447
tp9899
a(I81
I812
tp9900
aa(lp9901
(I3
I134
tp9902
a(I50
I716
tp9903
a(I41
I328
tp9904
a(I36
I650
tp9905
a(I4
I682
tp9906
a(I16
I237
tp9907
a(I7
I133
tp9908
a(I88
I879
tp9909
a(I74
I449
tp9910
a(I29
I428
tp9911
aa(lp9912
(I50
I752
tp9913
a(I266
I891
tp9914
a(I6
I481
tp9915
a(I21
I221
tp9916
a(I12
I355
tp9917
a(I51
I535
tp9918
a(I24
I964
tp9919
a(I6
I358
tp9920
a(I4
I222
tp9921
a(I63
I824
tp9922
aa(lp9923
(I33
I187
tp9924
a(I4
I317
tp9925
a(I28
I872
tp9926
a(I20
I139
tp9927
a(I4
I559
tp9928
a(I45
I513
tp9929
a(I45
I404
tp9930
a(I50
I611
tp9931
a(I38
I637
tp9932
a(I17
I741
tp9933
aa(lp9934
(I163
I715
tp9935
a(I21
I502
tp9936
a(I46
I735
tp9937
a(I77
I967
tp9938
a(I40
I367
tp9939
a(I20
I984
tp9940
a(I39
I726
tp9941
a(I20
I403
tp9942
a(I54
I549
tp9943
a(I1
I370
tp9944
aa(lp9945
(I65
I448
tp9946
a(I80
I812
tp9947
a(I29
I730
tp9948
a(I141
I946
tp9949
a(I3
I130
tp9950
a(I8
I965
tp9951
a(I82
I966
tp9952
a(I89
I967
tp9953
a(I26
I736
tp9954
a(I60
I876
tp9955
aa(lp9956
(I10
I310
tp9957
a(I23
I929
tp9958
a(I20
I755
tp9959
a(I23
I271
tp9960
a(I168
I865
tp9961
a(I13
I615
tp9962
a(I37
I655
tp9963
a(I132
I811
tp9964
a(I84
I670
tp9965
a(I4
I280
tp9966
aa(lp9967
(I29
I389
tp9968
a(I1
I274
tp9969
a(I11
I571
tp9970
a(I16
I640
tp9971
a(I5
I511
tp9972
a(I49
I452
tp9973
a(I13
I256
tp9974
a(I218
I979
tp9975
a(I129
I620
tp9976
a(I16
I809
tp9977
aa(lp9978
(I25
I281
tp9979
a(I2
I344
tp9980
a(I19
I262
tp9981
a(I20
I215
tp9982
a(I148
I838
tp9983
a(I17
I493
tp9984
a(I33
I583
tp9985
a(I4
I228
tp9986
a(I39
I353
tp9987
a(I68
I862
tp9988
aa(lp9989
(I4
I163
tp9990
a(I23
I237
tp9991
a(I48
I314
tp9992
a(I41
I824
tp9993
a(I68
I757
tp9994
a(I1
I406
tp9995
a(I22
I623
tp9996
a(I159
I924
tp9997
a(I39
I895
tp9998
a(I60
I878
tp9999
aa(lp10000
(I89
I545
tp10001
a(I4
I295
tp10002
a(I5
I373
tp10003
a(I98
I883
tp10004
a(I19
I464
tp10005
a(I81
I720
tp10006
a(I55
I529
tp10007
a(I60
I533
tp10008
a(I47
I955
tp10009
a(I10
I540
tp10010
aa(lp10011
(I8
I222
tp10012
a(I34
I504
tp10013
a(I98
I510
tp10014
a(I48
I768
tp10015
a(I57
I490
tp10016
a(I2
I168
tp10017
a(I52
I855
tp10018
a(I19
I584
tp10019
a(I53
I581
tp10020
a(I63
I931
tp10021
aa(lp10022
(I17
I962
tp10023
a(I40
I982
tp10024
a(I25
I374
tp10025
a(I37
I358
tp10026
a(I115
I669
tp10027
a(I20
I527
tp10028
a(I7
I266
tp10029
a(I38
I811
tp10030
a(I9
I739
tp10031
a(I72
I333
tp10032
aa(lp10033
(I41
I948
tp10034
a(I9
I113
tp10035
a(I5
I982
tp10036
a(I85
I560
tp10037
a(I10
I314
tp10038
a(I3
I857
tp10039
a(I106
I720
tp10040
a(I37
I206
tp10041
a(I4
I129
tp10042
a(I9
I149
tp10043
aa(lp10044
(I53
I694
tp10045
a(I77
I988
tp10046
a(I51
I464
tp10047
a(I42
I867
tp10048
a(I2
I450
tp10049
a(I41
I839
tp10050
a(I16
I715
tp10051
a(I95
I865
tp10052
a(I40
I214
tp10053
a(I7
I130
tp10054
aa(lp10055
(I45
I276
tp10056
a(I123
I577
tp10057
a(I4
I122
tp10058
a(I3
I209
tp10059
a(I32
I807
tp10060
a(I47
I781
tp10061
a(I5
I390
tp10062
a(I13
I882
tp10063
a(I42
I333
tp10064
a(I8
I146
tp10065
aa(lp10066
(I45
I808
tp10067
a(I72
I473
tp10068
a(I38
I682
tp10069
a(I29
I598
tp10070
a(I37
I513
tp10071
a(I48
I693
tp10072
a(I74
I739
tp10073
a(I13
I146
tp10074
a(I6
I172
tp10075
a(I60
I981
tp10076
aa(lp10077
(I40
I454
tp10078
a(I37
I709
tp10079
a(I1
I113
tp10080
a(I7
I135
tp10081
a(I69
I832
tp10082
a(I131
I689
tp10083
a(I14
I835
tp10084
a(I62
I509
tp10085
a(I30
I414
tp10086
a(I6
I123
tp10087
aa(lp10088
(I118
I758
tp10089
a(I28
I919
tp10090
a(I12
I356
tp10091
a(I113
I658
tp10092
a(I2
I177
tp10093
a(I54
I401
tp10094
a(I27
I195
tp10095
a(I6
I271
tp10096
a(I16
I608
tp10097
a(I6
I437
tp10098
aa(lp10099
(I4
I530
tp10100
a(I108
I848
tp10101
a(I126
I462
tp10102
a(I6
I705
tp10103
a(I10
I199
tp10104
a(I51
I938
tp10105
a(I17
I787
tp10106
a(I5
I403
tp10107
a(I95
I577
tp10108
a(I16
I701
tp10109
aa(lp10110
(I58
I932
tp10111
a(I35
I552
tp10112
a(I31
I181
tp10113
a(I53
I587
tp10114
a(I7
I214
tp10115
a(I56
I840
tp10116
a(I4
I137
tp10117
a(I37
I572
tp10118
a(I6
I102
tp10119
a(I69
I725
tp10120
aa(lp10121
(I44
I496
tp10122
a(I24
I465
tp10123
a(I11
I468
tp10124
a(I14
I381
tp10125
a(I11
I352
tp10126
a(I105
I896
tp10127
a(I32
I275
tp10128
a(I5
I566
tp10129
a(I6
I400
tp10130
a(I51
I203
tp10131
aa(lp10132
(I18
I852
tp10133
a(I1
I747
tp10134
a(I1
I168
tp10135
a(I63
I844
tp10136
a(I4
I165
tp10137
a(I5
I934
tp10138
a(I36
I812
tp10139
a(I18
I121
tp10140
a(I5
I293
tp10141
a(I186
I467
tp10142
aa(lp10143
(I16
I744
tp10144
a(I91
I593
tp10145
a(I18
I295
tp10146
a(I6
I333
tp10147
a(I76
I774
tp10148
a(I13
I177
tp10149
a(I66
I340
tp10150
a(I11
I179
tp10151
a(I2
I784
tp10152
a(I24
I442
tp10153
aa(lp10154
(I5
I172
tp10155
a(I4
I293
tp10156
a(I13
I139
tp10157
a(I16
I164
tp10158
a(I189
I935
tp10159
a(I8
I817
tp10160
a(I4
I217
tp10161
a(I34
I584
tp10162
a(I53
I884
tp10163
a(I141
I941
tp10164
aa(lp10165
(I15
I221
tp10166
a(I6
I574
tp10167
a(I1
I669
tp10168
a(I127
I962
tp10169
a(I18
I136
tp10170
a(I36
I293
tp10171
a(I41
I907
tp10172
a(I14
I938
tp10173
a(I34
I594
tp10174
a(I73
I489
tp10175
aa(lp10176
(I96
I866
tp10177
a(I25
I954
tp10178
a(I253
I943
tp10179
a(I48
I443
tp10180
a(I68
I990
tp10181
a(I1
I680
tp10182
a(I18
I718
tp10183
a(I42
I933
tp10184
a(I59
I763
tp10185
a(I6
I516
tp10186
aa(lp10187
(I82
I890
tp10188
a(I27
I457
tp10189
a(I43
I678
tp10190
a(I35
I566
tp10191
a(I95
I786
tp10192
a(I42
I536
tp10193
a(I127
I758
tp10194
a(I9
I927
tp10195
a(I30
I961
tp10196
a(I39
I657
tp10197
aa(lp10198
(I51
I261
tp10199
a(I2
I694
tp10200
a(I67
I458
tp10201
a(I15
I579
tp10202
a(I83
I480
tp10203
a(I17
I169
tp10204
a(I3
I636
tp10205
a(I45
I850
tp10206
a(I25
I800
tp10207
a(I5
I600
tp10208
aa(lp10209
(I9
I752
tp10210
a(I11
I337
tp10211
a(I26
I924
tp10212
a(I132
I835
tp10213
a(I36
I509
tp10214
a(I9
I462
tp10215
a(I70
I357
tp10216
a(I1
I437
tp10217
a(I34
I620
tp10218
a(I120
I708
tp10219
aa(lp10220
(I166
I711
tp10221
a(I79
I716
tp10222
a(I67
I890
tp10223
a(I4
I259
tp10224
a(I47
I987
tp10225
a(I5
I171
tp10226
a(I9
I416
tp10227
a(I15
I257
tp10228
a(I67
I937
tp10229
a(I29
I383
tp10230
aa(lp10231
(I15
I639
tp10232
a(I35
I396
tp10233
a(I12
I954
tp10234
a(I11
I430
tp10235
a(I30
I743
tp10236
a(I38
I415
tp10237
a(I89
I722
tp10238
a(I277
I990
tp10239
a(I12
I283
tp10240
a(I5
I345
tp10241
aa(lp10242
(I55
I857
tp10243
a(I50
I230
tp10244
a(I84
I454
tp10245
a(I11
I818
tp10246
a(I23
I502
tp10247
a(I7
I992
tp10248
a(I32
I598
tp10249
a(I15
I963
tp10250
a(I88
I761
tp10251
a(I26
I916
tp10252
aa(lp10253
(I12
I401
tp10254
a(I25
I598
tp10255
a(I22
I624
tp10256
a(I36
I212
tp10257
a(I5
I226
tp10258
a(I30
I525
tp10259
a(I52
I173
tp10260
a(I18
I323
tp10261
a(I2
I278
tp10262
a(I11
I500
tp10263
aa(lp10264
(I11
I301
tp10265
a(I2
I165
tp10266
a(I130
I716
tp10267
a(I16
I632
tp10268
a(I23
I327
tp10269
a(I97
I752
tp10270
a(I12
I877
tp10271
a(I63
I539
tp10272
a(I49
I532
tp10273
a(I35
I560
tp10274
aa(lp10275
(I34
I404
tp10276
a(I14
I462
tp10277
a(I118
I644
tp10278
a(I9
I996
tp10279
a(I14
I104
tp10280
a(I93
I493
tp10281
a(I26
I510
tp10282
a(I18
I607
tp10283
a(I5
I428
tp10284
a(I9
I675
tp10285
aa(lp10286
(I34
I778
tp10287
a(I5
I223
tp10288
a(I28
I171
tp10289
a(I6
I148
tp10290
a(I101
I977
tp10291
a(I17
I352
tp10292
a(I85
I639
tp10293
a(I6
I111
tp10294
a(I35
I398
tp10295
a(I30
I737
tp10296
aa(lp10297
(I5
I235
tp10298
a(I43
I564
tp10299
a(I12
I345
tp10300
a(I8
I462
tp10301
a(I35
I263
tp10302
a(I13
I325
tp10303
a(I22
I812
tp10304
a(I2
I805
tp10305
a(I56
I940
tp10306
a(I290
I898
tp10307
aa(lp10308
(I2
I704
tp10309
a(I10
I684
tp10310
a(I33
I317
tp10311
a(I18
I160
tp10312
a(I58
I612
tp10313
a(I32
I223
tp10314
a(I22
I515
tp10315
a(I4
I355
tp10316
a(I149
I810
tp10317
a(I7
I264
tp10318
aa(lp10319
(I15
I256
tp10320
a(I38
I395
tp10321
a(I76
I810
tp10322
a(I72
I932
tp10323
a(I12
I268
tp10324
a(I5
I190
tp10325
a(I101
I555
tp10326
a(I2
I385
tp10327
a(I42
I854
tp10328
a(I41
I396
tp10329
aa(lp10330
(I118
I970
tp10331
a(I56
I179
tp10332
a(I4
I117
tp10333
a(I13
I989
tp10334
a(I23
I643
tp10335
a(I1
I543
tp10336
a(I9
I679
tp10337
a(I25
I975
tp10338
a(I9
I668
tp10339
a(I98
I592
tp10340
aa(lp10341
(I19
I517
tp10342
a(I2
I275
tp10343
a(I1
I886
tp10344
a(I55
I756
tp10345
a(I94
I894
tp10346
a(I107
I338
tp10347
a(I67
I698
tp10348
a(I26
I919
tp10349
a(I13
I682
tp10350
a(I18
I298
tp10351
aa(lp10352
(I1
I320
tp10353
a(I57
I872
tp10354
a(I25
I474
tp10355
a(I16
I591
tp10356
a(I51
I819
tp10357
a(I58
I346
tp10358
a(I22
I627
tp10359
a(I22
I595
tp10360
a(I226
I848
tp10361
a(I12
I423
tp10362
aa(lp10363
(I20
I296
tp10364
a(I91
I652
tp10365
a(I14
I340
tp10366
a(I29
I480
tp10367
a(I59
I982
tp10368
a(I89
I966
tp10369
a(I102
I703
tp10370
a(I29
I980
tp10371
a(I4
I333
tp10372
a(I60
I658
tp10373
aa(lp10374
(I118
I730
tp10375
a(I37
I443
tp10376
a(I127
I797
tp10377
a(I29
I669
tp10378
a(I12
I990
tp10379
a(I1
I646
tp10380
a(I11
I215
tp10381
a(I50
I463
tp10382
a(I52
I462
tp10383
a(I3
I402
tp10384
aa(lp10385
(I107
I792
tp10386
a(I10
I311
tp10387
a(I14
I833
tp10388
a(I29
I541
tp10389
a(I38
I690
tp10390
a(I15
I339
tp10391
a(I120
I890
tp10392
a(I27
I642
tp10393
a(I86
I572
tp10394
a(I11
I148
tp10395
aa(lp10396
(I22
I399
tp10397
a(I64
I864
tp10398
a(I53
I745
tp10399
a(I61
I558
tp10400
a(I45
I811
tp10401
a(I11
I171
tp10402
a(I10
I239
tp10403
a(I66
I612
tp10404
a(I1
I326
tp10405
a(I61
I400
tp10406
aa(lp10407
(I104
I825
tp10408
a(I19
I434
tp10409
a(I27
I395
tp10410
a(I9
I222
tp10411
a(I32
I643
tp10412
a(I32
I419
tp10413
a(I9
I709
tp10414
a(I30
I417
tp10415
a(I43
I673
tp10416
a(I39
I211
tp10417
aa(lp10418
(I13
I758
tp10419
a(I18
I334
tp10420
a(I37
I441
tp10421
a(I22
I338
tp10422
a(I35
I560
tp10423
a(I1
I107
tp10424
a(I101
I632
tp10425
a(I34
I707
tp10426
a(I52
I405
tp10427
a(I92
I874
tp10428
aa(lp10429
(I8
I407
tp10430
a(I29
I518
tp10431
a(I165
I942
tp10432
a(I36
I274
tp10433
a(I14
I902
tp10434
a(I5
I581
tp10435
a(I26
I279
tp10436
a(I69
I527
tp10437
a(I17
I733
tp10438
a(I44
I516
tp10439
aa(lp10440
(I3
I380
tp10441
a(I43
I839
tp10442
a(I121
I741
tp10443
a(I18
I407
tp10444
a(I26
I478
tp10445
a(I54
I312
tp10446
a(I25
I437
tp10447
a(I14
I394
tp10448
a(I105
I857
tp10449
a(I23
I723
tp10450
aa(lp10451
(I18
I707
tp10452
a(I52
I966
tp10453
a(I17
I277
tp10454
a(I44
I718
tp10455
a(I6
I372
tp10456
a(I5
I246
tp10457
a(I242
I844
tp10458
a(I30
I370
tp10459
a(I21
I509
tp10460
a(I31
I358
tp10461
aa(lp10462
(I25
I469
tp10463
a(I2
I135
tp10464
a(I84
I958
tp10465
a(I1
I159
tp10466
a(I19
I544
tp10467
a(I108
I580
tp10468
a(I15
I332
tp10469
a(I102
I504
tp10470
a(I1
I825
tp10471
a(I51
I479
tp10472
aa(lp10473
(I92
I674
tp10474
a(I4
I862
tp10475
a(I108
I523
tp10476
a(I11
I319
tp10477
a(I70
I826
tp10478
a(I20
I540
tp10479
a(I29
I671
tp10480
a(I48
I969
tp10481
a(I16
I163
tp10482
a(I19
I444
tp10483
aa(lp10484
(I62
I600
tp10485
a(I2
I333
tp10486
a(I20
I550
tp10487
a(I2
I349
tp10488
a(I4
I171
tp10489
a(I3
I282
tp10490
a(I78
I417
tp10491
a(I24
I178
tp10492
a(I113
I543
tp10493
a(I13
I718
tp10494
aa(lp10495
(I14
I259
tp10496
a(I25
I613
tp10497
a(I61
I871
tp10498
a(I73
I559
tp10499
a(I1
I175
tp10500
a(I59
I610
tp10501
a(I59
I261
tp10502
a(I4
I869
tp10503
a(I20
I795
tp10504
a(I63
I728
tp10505
aa(lp10506
(I17
I675
tp10507
a(I19
I327
tp10508
a(I37
I956
tp10509
a(I1
I669
tp10510
a(I11
I542
tp10511
a(I382
I860
tp10512
a(I68
I949
tp10513
a(I12
I384
tp10514
a(I6
I171
tp10515
a(I8
I614
tp10516
aa(lp10517
(I27
I341
tp10518
a(I16
I347
tp10519
a(I6
I635
tp10520
a(I23
I319
tp10521
a(I1
I706
tp10522
a(I40
I610
tp10523
a(I135
I662
tp10524
a(I18
I213
tp10525
a(I34
I563
tp10526
a(I100
I844
tp10527
aa(lp10528
(I19
I495
tp10529
a(I78
I792
tp10530
a(I76
I958
tp10531
a(I89
I647
tp10532
a(I9
I458
tp10533
a(I5
I807
tp10534
a(I9
I168
tp10535
a(I116
I734
tp10536
a(I40
I424
tp10537
a(I7
I138
tp10538
aa(lp10539
(I60
I895
tp10540
a(I11
I560
tp10541
a(I34
I935
tp10542
a(I12
I467
tp10543
a(I35
I820
tp10544
a(I131
I709
tp10545
a(I84
I369
tp10546
a(I60
I468
tp10547
a(I7
I905
tp10548
a(I1
I227
tp10549
aa(lp10550
(I14
I709
tp10551
a(I44
I897
tp10552
a(I107
I907
tp10553
a(I54
I662
tp10554
a(I2
I657
tp10555
a(I6
I820
tp10556
a(I77
I393
tp10557
a(I40
I796
tp10558
a(I43
I940
tp10559
a(I140
I808
tp10560
aa(lp10561
(I1
I218
tp10562
a(I26
I664
tp10563
a(I8
I138
tp10564
a(I33
I590
tp10565
a(I103
I668
tp10566
a(I75
I667
tp10567
a(I43
I522
tp10568
a(I19
I847
tp10569
a(I161
I927
tp10570
a(I31
I821
tp10571
aa(lp10572
(I57
I417
tp10573
a(I44
I583
tp10574
a(I40
I421
tp10575
a(I13
I557
tp10576
a(I11
I516
tp10577
a(I14
I642
tp10578
a(I34
I422
tp10579
a(I123
I935
tp10580
a(I8
I198
tp10581
a(I59
I514
tp10582
aa(lp10583
(I60
I685
tp10584
a(I1
I372
tp10585
a(I41
I913
tp10586
a(I3
I105
tp10587
a(I51
I827
tp10588
a(I236
I754
tp10589
a(I21
I226
tp10590
a(I2
I218
tp10591
a(I35
I919
tp10592
a(I45
I810
tp10593
aa(lp10594
(I67
I990
tp10595
a(I20
I538
tp10596
a(I4
I151
tp10597
a(I24
I264
tp10598
a(I158
I866
tp10599
a(I8
I750
tp10600
a(I122
I901
tp10601
a(I24
I316
tp10602
a(I28
I388
tp10603
a(I30
I774
tp10604
aa(lp10605
(I3
I338
tp10606
a(I79
I814
tp10607
a(I33
I777
tp10608
a(I24
I324
tp10609
a(I224
I899
tp10610
a(I36
I752
tp10611
a(I106
I819
tp10612
a(I5
I234
tp10613
a(I21
I577
tp10614
a(I25
I677
tp10615
aa(lp10616
(I9
I100
tp10617
a(I9
I225
tp10618
a(I15
I359
tp10619
a(I1
I342
tp10620
a(I11
I149
tp10621
a(I65
I418
tp10622
a(I45
I378
tp10623
a(I1
I670
tp10624
a(I164
I845
tp10625
a(I1
I182
tp10626
aa(lp10627
(I51
I684
tp10628
a(I23
I919
tp10629
a(I31
I918
tp10630
a(I13
I185
tp10631
a(I8
I912
tp10632
a(I5
I119
tp10633
a(I26
I453
tp10634
a(I43
I543
tp10635
a(I343
I987
tp10636
a(I3
I995
tp10637
aa(lp10638
(I20
I366
tp10639
a(I28
I120
tp10640
a(I17
I321
tp10641
a(I54
I835
tp10642
a(I3
I492
tp10643
a(I69
I901
tp10644
a(I28
I164
tp10645
a(I3
I266
tp10646
a(I1
I722
tp10647
a(I57
I912
tp10648
aa(lp10649
(I11
I581
tp10650
a(I39
I510
tp10651
a(I21
I477
tp10652
a(I3
I194
tp10653
a(I43
I374
tp10654
a(I66
I302
tp10655
a(I1
I380
tp10656
a(I87
I472
tp10657
a(I4
I869
tp10658
a(I18
I315
tp10659
aa(lp10660
(I8
I493
tp10661
a(I23
I919
tp10662
a(I32
I866
tp10663
a(I1
I563
tp10664
a(I134
I495
tp10665
a(I64
I407
tp10666
a(I20
I229
tp10667
a(I52
I629
tp10668
a(I55
I998
tp10669
a(I3
I723
tp10670
aa(lp10671
(I13
I599
tp10672
a(I12
I271
tp10673
a(I97
I823
tp10674
a(I17
I351
tp10675
a(I22
I134
tp10676
a(I14
I587
tp10677
a(I4
I371
tp10678
a(I13
I108
tp10679
a(I44
I288
tp10680
a(I28
I984
tp10681
aa(lp10682
(I25
I479
tp10683
a(I26
I233
tp10684
a(I79
I505
tp10685
a(I12
I948
tp10686
a(I7
I270
tp10687
a(I87
I666
tp10688
a(I1
I297
tp10689
a(I46
I216
tp10690
a(I22
I653
tp10691
a(I1
I156
tp10692
aa(lp10693
(I5
I265
tp10694
a(I11
I140
tp10695
a(I114
I628
tp10696
a(I66
I653
tp10697
a(I4
I113
tp10698
a(I101
I993
tp10699
a(I2
I116
tp10700
a(I73
I731
tp10701
a(I38
I630
tp10702
a(I19
I650
tp10703
aa(lp10704
(I56
I250
tp10705
a(I6
I685
tp10706
a(I17
I493
tp10707
a(I37
I979
tp10708
a(I118
I522
tp10709
a(I17
I296
tp10710
a(I20
I387
tp10711
a(I43
I708
tp10712
a(I5
I143
tp10713
a(I5
I955
tp10714
aa(lp10715
(I11
I799
tp10716
a(I32
I493
tp10717
a(I50
I444
tp10718
a(I17
I438
tp10719
a(I48
I572
tp10720
a(I51
I989
tp10721
a(I129
I830
tp10722
a(I2
I492
tp10723
a(I52
I266
tp10724
a(I13
I609
tp10725
aa(lp10726
(I18
I238
tp10727
a(I6
I563
tp10728
a(I1
I152
tp10729
a(I10
I673
tp10730
a(I82
I370
tp10731
a(I4
I460
tp10732
a(I140
I650
tp10733
a(I7
I760
tp10734
a(I86
I865
tp10735
a(I44
I543
tp10736
aa(lp10737
(I8
I187
tp10738
a(I54
I370
tp10739
a(I1
I209
tp10740
a(I63
I848
tp10741
a(I53
I407
tp10742
a(I52
I773
tp10743
a(I82
I666
tp10744
a(I23
I305
tp10745
a(I41
I948
tp10746
a(I13
I349
tp10747
aa(lp10748
(I37
I603
tp10749
a(I5
I102
tp10750
a(I7
I108
tp10751
a(I48
I873
tp10752
a(I82
I606
tp10753
a(I116
I939
tp10754
a(I34
I501
tp10755
a(I90
I894
tp10756
a(I25
I776
tp10757
a(I7
I154
tp10758
aa(lp10759
(I76
I660
tp10760
a(I38
I990
tp10761
a(I8
I642
tp10762
a(I167
I955
tp10763
a(I9
I976
tp10764
a(I70
I496
tp10765
a(I70
I459
tp10766
a(I13
I823
tp10767
a(I56
I690
tp10768
a(I1
I578
tp10769
aa(lp10770
(I32
I417
tp10771
a(I150
I947
tp10772
a(I5
I763
tp10773
a(I58
I621
tp10774
a(I59
I870
tp10775
a(I39
I244
tp10776
a(I14
I505
tp10777
a(I10
I153
tp10778
a(I54
I739
tp10779
a(I6
I587
tp10780
aa(lp10781
(I39
I505
tp10782
a(I25
I720
tp10783
a(I49
I707
tp10784
a(I26
I613
tp10785
a(I129
I682
tp10786
a(I7
I324
tp10787
a(I3
I426
tp10788
a(I71
I972
tp10789
a(I25
I418
tp10790
a(I157
I931
tp10791
aa(lp10792
(I72
I486
tp10793
a(I14
I831
tp10794
a(I5
I147
tp10795
a(I45
I516
tp10796
a(I62
I566
tp10797
a(I18
I407
tp10798
a(I11
I418
tp10799
a(I28
I845
tp10800
a(I15
I242
tp10801
a(I23
I131
tp10802
aa(lp10803
(I70
I830
tp10804
a(I1
I389
tp10805
a(I5
I201
tp10806
a(I111
I837
tp10807
a(I46
I306
tp10808
a(I68
I782
tp10809
a(I10
I132
tp10810
a(I27
I901
tp10811
a(I73
I492
tp10812
a(I3
I707
tp10813
aa(lp10814
(I39
I643
tp10815
a(I55
I703
tp10816
a(I93
I530
tp10817
a(I7
I206
tp10818
a(I4
I164
tp10819
a(I10
I460
tp10820
a(I127
I826
tp10821
a(I7
I441
tp10822
a(I131
I841
tp10823
a(I12
I766
tp10824
aa(lp10825
(I16
I908
tp10826
a(I1
I703
tp10827
a(I29
I890
tp10828
a(I3
I837
tp10829
a(I107
I937
tp10830
a(I45
I254
tp10831
a(I93
I365
tp10832
a(I13
I373
tp10833
a(I11
I197
tp10834
a(I22
I472
tp10835
aa(lp10836
(I1
I202
tp10837
a(I19
I750
tp10838
a(I15
I364
tp10839
a(I10
I302
tp10840
a(I69
I598
tp10841
a(I101
I976
tp10842
a(I39
I875
tp10843
a(I61
I643
tp10844
a(I57
I296
tp10845
a(I55
I623
tp10846
aa(lp10847
(I91
I502
tp10848
a(I48
I580
tp10849
a(I9
I155
tp10850
a(I12
I162
tp10851
a(I34
I855
tp10852
a(I17
I230
tp10853
a(I57
I813
tp10854
a(I22
I653
tp10855
a(I39
I420
tp10856
a(I4
I148
tp10857
aa(lp10858
(I3
I261
tp10859
a(I78
I423
tp10860
a(I32
I735
tp10861
a(I45
I396
tp10862
a(I15
I974
tp10863
a(I66
I777
tp10864
a(I12
I260
tp10865
a(I123
I915
tp10866
a(I11
I985
tp10867
a(I54
I573
tp10868
aa(lp10869
(I5
I913
tp10870
a(I1
I258
tp10871
a(I36
I586
tp10872
a(I10
I859
tp10873
a(I70
I571
tp10874
a(I36
I172
tp10875
a(I43
I833
tp10876
a(I3
I133
tp10877
a(I19
I537
tp10878
a(I166
I751
tp10879
aa(lp10880
(I67
I432
tp10881
a(I12
I302
tp10882
a(I8
I994
tp10883
a(I185
I901
tp10884
a(I50
I284
tp10885
a(I40
I638
tp10886
a(I14
I699
tp10887
a(I3
I888
tp10888
a(I12
I460
tp10889
a(I28
I690
tp10890
aa(lp10891
(I11
I466
tp10892
a(I57
I825
tp10893
a(I45
I544
tp10894
a(I216
I830
tp10895
a(I88
I531
tp10896
a(I2
I268
tp10897
a(I23
I538
tp10898
a(I1
I255
tp10899
a(I15
I199
tp10900
a(I11
I799
tp10901
aa(lp10902
(I44
I523
tp10903
a(I35
I966
tp10904
a(I10
I114
tp10905
a(I1
I651
tp10906
a(I13
I212
tp10907
a(I153
I637
tp10908
a(I3
I395
tp10909
a(I42
I612
tp10910
a(I9
I205
tp10911
a(I17
I169
tp10912
aa(lp10913
(I41
I539
tp10914
a(I62
I671
tp10915
a(I19
I778
tp10916
a(I9
I100
tp10917
a(I89
I950
tp10918
a(I20
I863
tp10919
a(I44
I535
tp10920
a(I97
I992
tp10921
a(I56
I395
tp10922
a(I6
I488
tp10923
aa(lp10924
(I38
I914
tp10925
a(I4
I496
tp10926
a(I34
I627
tp10927
a(I7
I914
tp10928
a(I157
I961
tp10929
a(I74
I686
tp10930
a(I134
I967
tp10931
a(I63
I553
tp10932
a(I32
I474
tp10933
a(I8
I200
tp10934
aa(lp10935
(I21
I752
tp10936
a(I31
I317
tp10937
a(I71
I999
tp10938
a(I3
I264
tp10939
a(I72
I791
tp10940
a(I32
I745
tp10941
a(I48
I538
tp10942
a(I68
I679
tp10943
a(I48
I561
tp10944
a(I114
I921
tp10945
aa(lp10946
(I1
I654
tp10947
a(I12
I150
tp10948
a(I75
I772
tp10949
a(I17
I317
tp10950
a(I1
I199
tp10951
a(I1
I203
tp10952
a(I17
I976
tp10953
a(I258
I960
tp10954
a(I4
I518
tp10955
a(I185
I894
tp10956
aa(lp10957
(I210
I863
tp10958
a(I18
I275
tp10959
a(I18
I820
tp10960
a(I44
I845
tp10961
a(I10
I204
tp10962
a(I14
I281
tp10963
a(I1
I240
tp10964
a(I28
I206
tp10965
a(I14
I183
tp10966
a(I11
I271
tp10967
aa(lp10968
(I47
I331
tp10969
a(I14
I665
tp10970
a(I18
I132
tp10971
a(I7
I363
tp10972
a(I8
I133
tp10973
a(I196
I831
tp10974
a(I31
I877
tp10975
a(I17
I297
tp10976
a(I5
I397
tp10977
a(I7
I513
tp10978
aa(lp10979
(I27
I889
tp10980
a(I2
I307
tp10981
a(I18
I498
tp10982
a(I111
I847
tp10983
a(I15
I894
tp10984
a(I169
I736
tp10985
a(I27
I798
tp10986
a(I34
I712
tp10987
a(I39
I437
tp10988
a(I52
I436
tp10989
aa(lp10990
(I3
I904
tp10991
a(I1
I608
tp10992
a(I26
I961
tp10993
a(I72
I935
tp10994
a(I28
I360
tp10995
a(I231
I805
tp10996
a(I37
I610
tp10997
a(I98
I851
tp10998
a(I20
I382
tp10999
a(I6
I178
tp11000
aa.