(lp0
(lp1
(I45
I256
tp2
a(I35
I996
tp3
a(I28
I653
tp4
a(I100
I427
tp5
a(I115
I852
tp6
a(I129
I240
tp7
a(I103
I964
tp8
a(I85
I283
tp9
a(I237
I610
tp10
a(I19
I659
tp11
aa(lp12
(I92
I979
tp13
a(I50
I929
tp14
a(I4
I184
tp15
a(I26
I920
tp16
a(I155
I559
tp17
a(I218
I349
tp18
a(I77
I992
tp19
a(I23
I103
tp20
a(I397
I715
tp21
a(I30
I883
tp22
aa(lp23
(I4
I177
tp24
a(I41
I999
tp25
a(I155
I311
tp26
a(I50
I704
tp27
a(I216
I657
tp28
a(I54
I580
tp29
a(I23
I709
tp30
a(I187
I316
tp31
a(I49
I258
tp32
a(I107
I902
tp33
aa(lp34
(I448
I920
tp35
a(I54
I259
tp36
a(I12
I268
tp37
a(I47
I544
tp38
a(I26
I775
tp39
a(I115
I877
tp40
a(I117
I276
tp41
a(I191
I735
tp42
a(I106
I926
tp43
a(I67
I333
tp44
aa(lp45
(I56
I916
tp46
a(I271
I660
tp47
a(I196
I510
tp48
a(I7
I822
tp49
a(I60
I423
tp50
a(I15
I116
tp51
a(I102
I965
tp52
a(I33
I534
tp53
a(I71
I369
tp54
a(I223
I450
tp55
aa(lp56
(I163
I582
tp57
a(I31
I214
tp58
a(I275
I500
tp59
a(I72
I649
tp60
a(I59
I999
tp61
a(I88
I147
tp62
a(I38
I736
tp63
a(I1
I103
tp64
a(I86
I532
tp65
a(I6
I236
tp66
aa(lp67
(I179
I676
tp68
a(I8
I924
tp69
a(I201
I860
tp70
a(I359
I656
tp71
a(I10
I159
tp72
a(I87
I663
tp73
a(I132
I505
tp74
a(I20
I121
tp75
a(I51
I602
tp76
a(I201
I873
tp77
aa(lp78
(I16
I643
tp79
a(I7
I658
tp80
a(I12
I579
tp81
a(I121
I376
tp82
a(I110
I440
tp83
a(I149
I348
tp84
a(I78
I183
tp85
a(I219
I887
tp86
a(I79
I881
tp87
a(I88
I508
tp88
aa(lp89
(I17
I452
tp90
a(I114
I822
tp91
a(I63
I781
tp92
a(I21
I149
tp93
a(I105
I859
tp94
a(I1
I710
tp95
a(I280
I429
tp96
a(I381
I904
tp97
a(I60
I169
tp98
a(I26
I740
tp99
aa(lp100
(I87
I282
tp101
a(I18
I581
tp102
a(I32
I509
tp103
a(I162
I962
tp104
a(I30
I123
tp105
a(I13
I357
tp106
a(I284
I920
tp107
a(I7
I521
tp108
a(I142
I192
tp109
a(I47
I688
tp110
aa(lp111
(I161
I799
tp112
a(I127
I771
tp113
a(I153
I684
tp114
a(I7
I556
tp115
a(I110
I374
tp116
a(I9
I654
tp117
a(I21
I162
tp118
a(I242
I797
tp119
a(I107
I374
tp120
a(I332
I915
tp121
aa(lp122
(I5
I215
tp123
a(I245
I485
tp124
a(I42
I935
tp125
a(I100
I998
tp126
a(I88
I654
tp127
a(I98
I705
tp128
a(I17
I736
tp129
a(I6
I119
tp130
a(I313
I354
tp131
a(I61
I737
tp132
aa(lp133
(I49
I689
tp134
a(I132
I936
tp135
a(I47
I153
tp136
a(I84
I558
tp137
a(I86
I215
tp138
a(I67
I342
tp139
a(I277
I858
tp140
a(I57
I402
tp141
a(I25
I294
tp142
a(I59
I351
tp143
aa(lp144
(I122
I558
tp145
a(I83
I455
tp146
a(I415
I864
tp147
a(I350
I768
tp148
a(I9
I356
tp149
a(I18
I459
tp150
a(I105
I662
tp151
a(I182
I950
tp152
a(I66
I962
tp153
a(I59
I349
tp154
aa(lp155
(I272
I692
tp156
a(I68
I220
tp157
a(I49
I509
tp158
a(I2
I255
tp159
a(I93
I886
tp160
a(I133
I556
tp161
a(I44
I577
tp162
a(I264
I926
tp163
a(I335
I901
tp164
a(I75
I674
tp165
aa(lp166
(I476
I931
tp167
a(I49
I724
tp168
a(I94
I557
tp169
a(I1
I929
tp170
a(I91
I851
tp171
a(I33
I250
tp172
a(I93
I827
tp173
a(I173
I875
tp174
a(I355
I759
tp175
a(I79
I351
tp176
aa(lp177
(I347
I454
tp178
a(I114
I797
tp179
a(I48
I781
tp180
a(I176
I786
tp181
a(I4
I402
tp182
a(I43
I184
tp183
a(I212
I461
tp184
a(I1
I143
tp185
a(I23
I625
tp186
a(I28
I601
tp187
aa(lp188
(I195
I417
tp189
a(I68
I550
tp190
a(I133
I809
tp191
a(I25
I993
tp192
a(I122
I931
tp193
a(I323
I623
tp194
a(I19
I645
tp195
a(I174
I898
tp196
a(I249
I759
tp197
a(I8
I727
tp198
aa(lp199
(I4
I122
tp200
a(I8
I133
tp201
a(I25
I473
tp202
a(I10
I619
tp203
a(I34
I407
tp204
a(I204
I261
tp205
a(I195
I460
tp206
a(I80
I717
tp207
a(I66
I158
tp208
a(I1
I478
tp209
aa(lp210
(I62
I246
tp211
a(I59
I328
tp212
a(I7
I382
tp213
a(I358
I981
tp214
a(I45
I196
tp215
a(I59
I945
tp216
a(I438
I833
tp217
a(I48
I373
tp218
a(I100
I723
tp219
a(I82
I883
tp220
aa(lp221
(I419
I659
tp222
a(I190
I893
tp223
a(I28
I373
tp224
a(I5
I859
tp225
a(I258
I571
tp226
a(I13
I503
tp227
a(I48
I449
tp228
a(I12
I625
tp229
a(I353
I839
tp230
a(I21
I566
tp231
aa(lp232
(I41
I522
tp233
a(I109
I424
tp234
a(I33
I169
tp235
a(I225
I525
tp236
a(I113
I714
tp237
a(I130
I822
tp238
a(I249
I659
tp239
a(I133
I573
tp240
a(I38
I859
tp241
a(I36
I598
tp242
aa(lp243
(I11
I137
tp244
a(I408
I875
tp245
a(I10
I216
tp246
a(I24
I854
tp247
a(I239
I626
tp248
a(I239
I766
tp249
a(I149
I502
tp250
a(I4
I633
tp251
a(I33
I295
tp252
a(I206
I780
tp253
aa(lp254
(I12
I550
tp255
a(I24
I243
tp256
a(I96
I902
tp257
a(I105
I635
tp258
a(I186
I845
tp259
a(I752
I866
tp260
a(I43
I364
tp261
a(I9
I124
tp262
a(I16
I105
tp263
a(I94
I570
tp264
aa(lp265
(I16
I319
tp266
a(I41
I403
tp267
a(I55
I680
tp268
a(I24
I112
tp269
a(I286
I863
tp270
a(I85
I843
tp271
a(I216
I713
tp272
a(I147
I296
tp273
a(I11
I270
tp274
a(I64
I240
tp275
aa(lp276
(I32
I641
tp277
a(I60
I684
tp278
a(I64
I886
tp279
a(I123
I148
tp280
a(I19
I797
tp281
a(I318
I840
tp282
a(I83
I824
tp283
a(I98
I387
tp284
a(I21
I499
tp285
a(I61
I403
tp286
aa(lp287
(I154
I427
tp288
a(I18
I313
tp289
a(I175
I619
tp290
a(I3
I340
tp291
a(I198
I879
tp292
a(I22
I166
tp293
a(I54
I912
tp294
a(I18
I680
tp295
a(I7
I358
tp296
a(I276
I338
tp297
aa(lp298
(I50
I425
tp299
a(I111
I284
tp300
a(I2
I295
tp301
a(I423
I879
tp302
a(I75
I547
tp303
a(I114
I688
tp304
a(I157
I662
tp305
a(I7
I312
tp306
a(I84
I200
tp307
a(I4
I582
tp308
aa(lp309
(I45
I134
tp310
a(I49
I265
tp311
a(I473
I967
tp312
a(I358
I992
tp313
a(I61
I860
tp314
a(I31
I920
tp315
a(I7
I296
tp316
a(I86
I283
tp317
a(I17
I470
tp318
a(I134
I911
tp319
aa(lp320
(I23
I756
tp321
a(I302
I979
tp322
a(I21
I613
tp323
a(I90
I294
tp324
a(I183
I383
tp325
a(I11
I326
tp326
a(I100
I242
tp327
a(I71
I328
tp328
a(I4
I251
tp329
a(I26
I174
tp330
aa(lp331
(I27
I792
tp332
a(I81
I317
tp333
a(I44
I341
tp334
a(I26
I704
tp335
a(I122
I297
tp336
a(I91
I862
tp337
a(I50
I323
tp338
a(I485
I870
tp339
a(I198
I840
tp340
a(I28
I388
tp341
aa(lp342
(I242
I961
tp343
a(I168
I380
tp344
a(I100
I747
tp345
a(I1
I111
tp346
a(I54
I364
tp347
a(I88
I623
tp348
a(I13
I147
tp349
a(I7
I127
tp350
a(I97
I212
tp351
a(I144
I577
tp352
aa(lp353
(I100
I277
tp354
a(I2
I314
tp355
a(I24
I507
tp356
a(I32
I112
tp357
a(I181
I918
tp358
a(I97
I813
tp359
a(I111
I642
tp360
a(I78
I206
tp361
a(I103
I381
tp362
a(I82
I545
tp363
aa(lp364
(I829
I907
tp365
a(I7
I333
tp366
a(I76
I435
tp367
a(I79
I223
tp368
a(I71
I382
tp369
a(I10
I656
tp370
a(I33
I900
tp371
a(I66
I632
tp372
a(I8
I181
tp373
a(I120
I905
tp374
aa(lp375
(I21
I742
tp376
a(I35
I604
tp377
a(I15
I123
tp378
a(I28
I275
tp379
a(I62
I236
tp380
a(I85
I226
tp381
a(I551
I974
tp382
a(I115
I732
tp383
a(I17
I847
tp384
a(I211
I722
tp385
aa(lp386
(I9
I224
tp387
a(I9
I230
tp388
a(I244
I355
tp389
a(I279
I552
tp390
a(I5
I100
tp391
a(I362
I807
tp392
a(I7
I180
tp393
a(I54
I424
tp394
a(I1
I642
tp395
a(I21
I452
tp396
aa(lp397
(I18
I205
tp398
a(I279
I860
tp399
a(I33
I383
tp400
a(I13
I401
tp401
a(I22
I148
tp402
a(I62
I892
tp403
a(I471
I972
tp404
a(I209
I430
tp405
a(I7
I489
tp406
a(I32
I126
tp407
aa(lp408
(I7
I195
tp409
a(I177
I567
tp410
a(I181
I913
tp411
a(I1
I507
tp412
a(I414
I703
tp413
a(I140
I952
tp414
a(I51
I630
tp415
a(I228
I681
tp416
a(I40
I232
tp417
a(I34
I302
tp418
aa(lp419
(I92
I787
tp420
a(I54
I538
tp421
a(I85
I467
tp422
a(I438
I921
tp423
a(I113
I560
tp424
a(I27
I295
tp425
a(I290
I702
tp426
a(I11
I460
tp427
a(I189
I632
tp428
a(I58
I660
tp429
aa(lp430
(I25
I291
tp431
a(I61
I956
tp432
a(I26
I317
tp433
a(I332
I629
tp434
a(I53
I937
tp435
a(I163
I580
tp436
a(I20
I511
tp437
a(I51
I951
tp438
a(I150
I459
tp439
a(I466
I983
tp440
aa(lp441
(I3
I246
tp442
a(I68
I992
tp443
a(I475
I932
tp444
a(I134
I463
tp445
a(I2
I384
tp446
a(I102
I905
tp447
a(I5
I173
tp448
a(I163
I287
tp449
a(I34
I182
tp450
a(I78
I379
tp451
aa(lp452
(I131
I422
tp453
a(I236
I672
tp454
a(I119
I333
tp455
a(I7
I135
tp456
a(I133
I400
tp457
a(I12
I134
tp458
a(I47
I994
tp459
a(I68
I372
tp460
a(I153
I723
tp461
a(I34
I732
tp462
aa(lp463
(I12
I237
tp464
a(I550
I844
tp465
a(I453
I970
tp466
a(I100
I681
tp467
a(I16
I349
tp468
a(I19
I967
tp469
a(I1
I357
tp470
a(I171
I976
tp471
a(I214
I517
tp472
a(I18
I822
tp473
aa(lp474
(I155
I975
tp475
a(I42
I183
tp476
a(I122
I468
tp477
a(I82
I587
tp478
a(I45
I273
tp479
a(I233
I939
tp480
a(I151
I357
tp481
a(I45
I360
tp482
a(I46
I347
tp483
a(I74
I696
tp484
aa(lp485
(I88
I433
tp486
a(I216
I709
tp487
a(I16
I142
tp488
a(I28
I544
tp489
a(I184
I500
tp490
a(I18
I273
tp491
a(I298
I791
tp492
a(I75
I499
tp493
a(I92
I421
tp494
a(I120
I889
tp495
aa(lp496
(I56
I743
tp497
a(I79
I808
tp498
a(I150
I391
tp499
a(I1
I193
tp500
a(I351
I898
tp501
a(I90
I979
tp502
a(I96
I290
tp503
a(I44
I261
tp504
a(I49
I138
tp505
a(I50
I558
tp506
aa(lp507
(I175
I512
tp508
a(I32
I761
tp509
a(I114
I872
tp510
a(I112
I592
tp511
a(I231
I524
tp512
a(I54
I530
tp513
a(I16
I210
tp514
a(I120
I581
tp515
a(I67
I516
tp516
a(I256
I775
tp517
aa(lp518
(I323
I434
tp519
a(I147
I887
tp520
a(I64
I182
tp521
a(I95
I576
tp522
a(I76
I645
tp523
a(I153
I931
tp524
a(I35
I214
tp525
a(I7
I379
tp526
a(I7
I203
tp527
a(I57
I885
tp528
aa(lp529
(I97
I761
tp530
a(I69
I499
tp531
a(I156
I535
tp532
a(I330
I855
tp533
a(I313
I942
tp534
a(I28
I660
tp535
a(I95
I666
tp536
a(I113
I404
tp537
a(I61
I856
tp538
a(I29
I166
tp539
aa(lp540
(I120
I605
tp541
a(I208
I459
tp542
a(I256
I987
tp543
a(I8
I979
tp544
a(I147
I690
tp545
a(I44
I189
tp546
a(I67
I661
tp547
a(I72
I838
tp548
a(I71
I451
tp549
a(I144
I516
tp550
aa(lp551
(I133
I733
tp552
a(I138
I440
tp553
a(I120
I796
tp554
a(I12
I307
tp555
a(I4
I142
tp556
a(I58
I614
tp557
a(I112
I467
tp558
a(I90
I216
tp559
a(I136
I295
tp560
a(I33
I522
tp561
aa(lp562
(I136
I526
tp563
a(I43
I890
tp564
a(I12
I185
tp565
a(I188
I481
tp566
a(I253
I811
tp567
a(I142
I761
tp568
a(I79
I166
tp569
a(I2
I195
tp570
a(I17
I224
tp571
a(I54
I334
tp572
aa(lp573
(I44
I237
tp574
a(I50
I145
tp575
a(I120
I508
tp576
a(I288
I880
tp577
a(I132
I764
tp578
a(I14
I456
tp579
a(I26
I184
tp580
a(I265
I802
tp581
a(I47
I219
tp582
a(I2
I373
tp583
aa(lp584
(I300
I914
tp585
a(I137
I364
tp586
a(I7
I936
tp587
a(I60
I935
tp588
a(I17
I175
tp589
a(I127
I703
tp590
a(I53
I199
tp591
a(I41
I165
tp592
a(I208
I934
tp593
a(I70
I368
tp594
aa(lp595
(I2
I517
tp596
a(I15
I900
tp597
a(I49
I371
tp598
a(I75
I395
tp599
a(I15
I354
tp600
a(I26
I622
tp601
a(I215
I895
tp602
a(I171
I848
tp603
a(I831
I848
tp604
a(I50
I361
tp605
aa(lp606
(I114
I635
tp607
a(I14
I504
tp608
a(I70
I184
tp609
a(I53
I732
tp610
a(I116
I514
tp611
a(I140
I592
tp612
a(I115
I870
tp613
a(I95
I445
tp614
a(I7
I141
tp615
a(I59
I126
tp616
aa(lp617
(I236
I872
tp618
a(I156
I744
tp619
a(I625
I700
tp620
a(I126
I881
tp621
a(I11
I170
tp622
a(I32
I375
tp623
a(I95
I530
tp624
a(I82
I904
tp625
a(I9
I179
tp626
a(I1
I233
tp627
aa(lp628
(I1
I561
tp629
a(I13
I155
tp630
a(I104
I486
tp631
a(I99
I773
tp632
a(I34
I443
tp633
a(I31
I547
tp634
a(I442
I460
tp635
a(I4
I866
tp636
a(I26
I386
tp637
a(I186
I475
tp638
aa(lp639
(I301
I901
tp640
a(I18
I822
tp641
a(I62
I296
tp642
a(I77
I384
tp643
a(I268
I947
tp644
a(I87
I598
tp645
a(I4
I336
tp646
a(I114
I759
tp647
a(I186
I652
tp648
a(I49
I141
tp649
aa(lp650
(I1
I523
tp651
a(I51
I799
tp652
a(I181
I781
tp653
a(I14
I683
tp654
a(I94
I266
tp655
a(I46
I338
tp656
a(I111
I545
tp657
a(I4
I346
tp658
a(I24
I167
tp659
a(I507
I620
tp660
aa(lp661
(I344
I963
tp662
a(I20
I397
tp663
a(I59
I604
tp664
a(I185
I310
tp665
a(I335
I645
tp666
a(I12
I417
tp667
a(I176
I933
tp668
a(I28
I315
tp669
a(I2
I338
tp670
a(I47
I837
tp671
aa(lp672
(I35
I874
tp673
a(I248
I459
tp674
a(I163
I992
tp675
a(I45
I719
tp676
a(I94
I438
tp677
a(I15
I680
tp678
a(I88
I417
tp679
a(I146
I458
tp680
a(I349
I944
tp681
a(I21
I437
tp682
aa(lp683
(I1
I442
tp684
a(I22
I175
tp685
a(I81
I756
tp686
a(I30
I935
tp687
a(I10
I490
tp688
a(I40
I228
tp689
a(I95
I912
tp690
a(I126
I307
tp691
a(I39
I110
tp692
a(I88
I136
tp693
aa(lp694
(I104
I294
tp695
a(I4
I113
tp696
a(I102
I484
tp697
a(I140
I668
tp698
a(I18
I897
tp699
a(I123
I544
tp700
a(I3
I772
tp701
a(I191
I811
tp702
a(I347
I543
tp703
a(I20
I411
tp704
aa(lp705
(I7
I312
tp706
a(I171
I624
tp707
a(I81
I586
tp708
a(I9
I308
tp709
a(I41
I370
tp710
a(I82
I381
tp711
a(I299
I647
tp712
a(I38
I183
tp713
a(I84
I348
tp714
a(I89
I313
tp715
aa(lp716
(I41
I182
tp717
a(I5
I723
tp718
a(I13
I666
tp719
a(I218
I515
tp720
a(I550
I848
tp721
a(I35
I182
tp722
a(I105
I576
tp723
a(I9
I601
tp724
a(I163
I953
tp725
a(I48
I475
tp726
aa(lp727
(I210
I374
tp728
a(I74
I541
tp729
a(I69
I330
tp730
a(I2
I142
tp731
a(I70
I320
tp732
a(I137
I493
tp733
a(I84
I290
tp734
a(I85
I474
tp735
a(I28
I434
tp736
a(I6
I194
tp737
aa(lp738
(I18
I525
tp739
a(I301
I593
tp740
a(I73
I674
tp741
a(I58
I469
tp742
a(I58
I225
tp743
a(I13
I902
tp744
a(I88
I518
tp745
a(I223
I655
tp746
a(I371
I985
tp747
a(I26
I450
tp748
aa(lp749
(I11
I153
tp750
a(I32
I222
tp751
a(I6
I295
tp752
a(I47
I304
tp753
a(I76
I477
tp754
a(I36
I146
tp755
a(I42
I910
tp756
a(I245
I477
tp757
a(I8
I418
tp758
a(I388
I637
tp759
aa(lp760
(I23
I780
tp761
a(I69
I210
tp762
a(I55
I479
tp763
a(I355
I655
tp764
a(I50
I868
tp765
a(I231
I899
tp766
a(I21
I945
tp767
a(I155
I450
tp768
a(I38
I739
tp769
a(I118
I486
tp770
aa(lp771
(I169
I739
tp772
a(I47
I393
tp773
a(I82
I643
tp774
a(I207
I913
tp775
a(I11
I508
tp776
a(I250
I694
tp777
a(I61
I972
tp778
a(I287
I702
tp779
a(I131
I665
tp780
a(I216
I902
tp781
aa(lp782
(I318
I512
tp783
a(I26
I246
tp784
a(I137
I883
tp785
a(I8
I717
tp786
a(I111
I887
tp787
a(I4
I225
tp788
a(I329
I813
tp789
a(I167
I619
tp790
a(I16
I770
tp791
a(I105
I408
tp792
aa(lp793
(I107
I943
tp794
a(I29
I259
tp795
a(I32
I556
tp796
a(I122
I424
tp797
a(I101
I284
tp798
a(I19
I323
tp799
a(I117
I720
tp800
a(I132
I370
tp801
a(I176
I578
tp802
a(I43
I246
tp803
aa(lp804
(I54
I732
tp805
a(I135
I343
tp806
a(I181
I632
tp807
a(I227
I555
tp808
a(I200
I595
tp809
a(I68
I974
tp810
a(I13
I609
tp811
a(I29
I548
tp812
a(I125
I591
tp813
a(I129
I921
tp814
aa(lp815
(I108
I224
tp816
a(I18
I948
tp817
a(I103
I970
tp818
a(I102
I746
tp819
a(I51
I200
tp820
a(I100
I661
tp821
a(I3
I113
tp822
a(I303
I570
tp823
a(I19
I108
tp824
a(I21
I237
tp825
aa(lp826
(I349
I778
tp827
a(I55
I401
tp828
a(I14
I960
tp829
a(I109
I301
tp830
a(I155
I247
tp831
a(I9
I212
tp832
a(I32
I392
tp833
a(I183
I763
tp834
a(I1
I133
tp835
a(I28
I953
tp836
aa(lp837
(I60
I324
tp838
a(I20
I334
tp839
a(I18
I707
tp840
a(I227
I591
tp841
a(I389
I757
tp842
a(I8
I417
tp843
a(I230
I730
tp844
a(I187
I878
tp845
a(I218
I930
tp846
a(I22
I545
tp847
aa(lp848
(I1
I679
tp849
a(I1
I744
tp850
a(I19
I749
tp851
a(I18
I478
tp852
a(I262
I552
tp853
a(I72
I523
tp854
a(I36
I279
tp855
a(I186
I645
tp856
a(I19
I742
tp857
a(I297
I341
tp858
aa(lp859
(I9
I118
tp860
a(I65
I572
tp861
a(I18
I120
tp862
a(I102
I954
tp863
a(I86
I366
tp864
a(I490
I689
tp865
a(I171
I917
tp866
a(I80
I349
tp867
a(I32
I339
tp868
a(I11
I137
tp869
aa(lp870
(I336
I613
tp871
a(I28
I732
tp872
a(I82
I290
tp873
a(I83
I153
tp874
a(I7
I317
tp875
a(I73
I456
tp876
a(I97
I341
tp877
a(I28
I735
tp878
a(I55
I906
tp879
a(I2
I178
tp880
aa(lp881
(I28
I138
tp882
a(I21
I604
tp883
a(I123
I559
tp884
a(I34
I316
tp885
a(I115
I573
tp886
a(I89
I978
tp887
a(I437
I942
tp888
a(I186
I893
tp889
a(I99
I237
tp890
a(I40
I949
tp891
aa(lp892
(I112
I664
tp893
a(I289
I733
tp894
a(I112
I599
tp895
a(I33
I574
tp896
a(I34
I463
tp897
a(I198
I866
tp898
a(I196
I336
tp899
a(I38
I311
tp900
a(I73
I745
tp901
a(I12
I170
tp902
aa(lp903
(I162
I514
tp904
a(I388
I769
tp905
a(I1
I889
tp906
a(I117
I714
tp907
a(I108
I457
tp908
a(I104
I755
tp909
a(I80
I832
tp910
a(I125
I959
tp911
a(I42
I178
tp912
a(I117
I695
tp913
aa(lp914
(I7
I267
tp915
a(I53
I414
tp916
a(I93
I182
tp917
a(I6
I199
tp918
a(I101
I694
tp919
a(I585
I881
tp920
a(I3
I756
tp921
a(I64
I752
tp922
a(I171
I657
tp923
a(I71
I529
tp924
aa(lp925
(I25
I293
tp926
a(I80
I176
tp927
a(I55
I532
tp928
a(I123
I623
tp929
a(I12
I830
tp930
a(I1
I108
tp931
a(I5
I758
tp932
a(I443
I472
tp933
a(I12
I180
tp934
a(I97
I876
tp935
aa(lp936
(I25
I809
tp937
a(I413
I899
tp938
a(I645
I886
tp939
a(I140
I816
tp940
a(I19
I434
tp941
a(I26
I284
tp942
a(I10
I349
tp943
a(I44
I216
tp944
a(I43
I387
tp945
a(I109
I906
tp946
aa(lp947
(I317
I998
tp948
a(I404
I913
tp949
a(I21
I649
tp950
a(I1
I289
tp951
a(I22
I869
tp952
a(I5
I922
tp953
a(I51
I204
tp954
a(I557
I912
tp955
a(I12
I413
tp956
a(I123
I440
tp957
aa(lp958
(I58
I947
tp959
a(I35
I126
tp960
a(I24
I521
tp961
a(I39
I792
tp962
a(I58
I380
tp963
a(I144
I995
tp964
a(I28
I562
tp965
a(I120
I769
tp966
a(I325
I399
tp967
a(I57
I244
tp968
aa(lp969
(I41
I283
tp970
a(I43
I942
tp971
a(I38
I835
tp972
a(I9
I121
tp973
a(I136
I176
tp974
a(I13
I165
tp975
a(I37
I417
tp976
a(I283
I984
tp977
a(I144
I435
tp978
a(I57
I507
tp979
aa(lp980
(I41
I415
tp981
a(I89
I820
tp982
a(I16
I774
tp983
a(I6
I655
tp984
a(I22
I446
tp985
a(I36
I212
tp986
a(I291
I557
tp987
a(I108
I369
tp988
a(I81
I154
tp989
a(I107
I566
tp990
aa(lp991
(I5
I466
tp992
a(I14
I281
tp993
a(I55
I814
tp994
a(I176
I649
tp995
a(I90
I867
tp996
a(I202
I828
tp997
a(I102
I998
tp998
a(I61
I456
tp999
a(I193
I423
tp1000
a(I324
I589
tp1001
aa(lp1002
(I6
I146
tp1003
a(I109
I292
tp1004
a(I21
I127
tp1005
a(I4
I427
tp1006
a(I218
I735
tp1007
a(I21
I526
tp1008
a(I180
I896
tp1009
a(I201
I330
tp1010
a(I3
I410
tp1011
a(I35
I150
tp1012
aa(lp1013
(I20
I558
tp1014
a(I92
I771
tp1015
a(I203
I920
tp1016
a(I99
I160
tp1017
a(I1
I872
tp1018
a(I85
I151
tp1019
a(I90
I823
tp1020
a(I4
I308
tp1021
a(I28
I392
tp1022
a(I34
I146
tp1023
aa(lp1024
(I5
I118
tp1025
a(I107
I646
tp1026
a(I49
I517
tp1027
a(I32
I372
tp1028
a(I9
I628
tp1029
a(I54
I662
tp1030
a(I11
I188
tp1031
a(I181
I368
tp1032
a(I433
I482
tp1033
a(I26
I498
tp1034
aa(lp1035
(I150
I718
tp1036
a(I3
I560
tp1037
a(I288
I785
tp1038
a(I283
I618
tp1039
a(I71
I229
tp1040
a(I332
I936
tp1041
a(I62
I613
tp1042
a(I1
I593
tp1043
a(I20
I625
tp1044
a(I85
I557
tp1045
aa(lp1046
(I338
I671
tp1047
a(I72
I179
tp1048
a(I8
I526
tp1049
a(I76
I878
tp1050
a(I73
I391
tp1051
a(I270
I886
tp1052
a(I49
I497
tp1053
a(I102
I808
tp1054
a(I30
I783
tp1055
a(I197
I875
tp1056
aa(lp1057
(I118
I578
tp1058
a(I118
I438
tp1059
a(I56
I252
tp1060
a(I26
I704
tp1061
a(I10
I455
tp1062
a(I99
I690
tp1063
a(I400
I746
tp1064
a(I128
I520
tp1065
a(I25
I228
tp1066
a(I68
I346
tp1067
aa(lp1068
(I27
I376
tp1069
a(I610
I974
tp1070
a(I105
I426
tp1071
a(I123
I805
tp1072
a(I6
I257
tp1073
a(I96
I804
tp1074
a(I7
I180
tp1075
a(I12
I402
tp1076
a(I519
I931
tp1077
a(I84
I709
tp1078
aa(lp1079
(I151
I300
tp1080
a(I171
I530
tp1081
a(I98
I458
tp1082
a(I15
I542
tp1083
a(I17
I488
tp1084
a(I70
I679
tp1085
a(I34
I221
tp1086
a(I211
I516
tp1087
a(I29
I684
tp1088
a(I142
I793
tp1089
aa(lp1090
(I10
I338
tp1091
a(I72
I586
tp1092
a(I29
I482
tp1093
a(I265
I565
tp1094
a(I271
I848
tp1095
a(I26
I389
tp1096
a(I31
I317
tp1097
a(I210
I431
tp1098
a(I40
I245
tp1099
a(I79
I460
tp1100
aa(lp1101
(I6
I270
tp1102
a(I243
I751
tp1103
a(I102
I921
tp1104
a(I552
I875
tp1105
a(I76
I688
tp1106
a(I56
I832
tp1107
a(I101
I907
tp1108
a(I92
I200
tp1109
a(I59
I597
tp1110
a(I46
I909
tp1111
aa(lp1112
(I10
I370
tp1113
a(I153
I250
tp1114
a(I441
I976
tp1115
a(I1
I135
tp1116
a(I44
I231
tp1117
a(I3
I362
tp1118
a(I63
I459
tp1119
a(I9
I194
tp1120
a(I12
I322
tp1121
a(I211
I460
tp1122
aa(lp1123
(I101
I474
tp1124
a(I31
I206
tp1125
a(I6
I110
tp1126
a(I307
I650
tp1127
a(I289
I676
tp1128
a(I31
I243
tp1129
a(I51
I433
tp1130
a(I110
I296
tp1131
a(I13
I619
tp1132
a(I25
I884
tp1133
aa(lp1134
(I86
I599
tp1135
a(I1
I440
tp1136
a(I20
I388
tp1137
a(I385
I466
tp1138
a(I178
I780
tp1139
a(I100
I845
tp1140
a(I1
I149
tp1141
a(I147
I762
tp1142
a(I97
I754
tp1143
a(I140
I485
tp1144
aa(lp1145
(I92
I422
tp1146
a(I28
I419
tp1147
a(I165
I973
tp1148
a(I23
I923
tp1149
a(I45
I366
tp1150
a(I32
I131
tp1151
a(I44
I727
tp1152
a(I206
I765
tp1153
a(I52
I551
tp1154
a(I231
I320
tp1155
aa(lp1156
(I100
I833
tp1157
a(I1
I747
tp1158
a(I346
I772
tp1159
a(I112
I694
tp1160
a(I54
I905
tp1161
a(I293
I728
tp1162
a(I98
I579
tp1163
a(I55
I182
tp1164
a(I82
I328
tp1165
a(I48
I646
tp1166
aa(lp1167
(I323
I813
tp1168
a(I30
I459
tp1169
a(I131
I815
tp1170
a(I26
I326
tp1171
a(I226
I431
tp1172
a(I50
I884
tp1173
a(I48
I235
tp1174
a(I210
I869
tp1175
a(I41
I180
tp1176
a(I14
I506
tp1177
aa(lp1178
(I1
I507
tp1179
a(I83
I376
tp1180
a(I25
I567
tp1181
a(I37
I536
tp1182
a(I176
I251
tp1183
a(I38
I820
tp1184
a(I54
I891
tp1185
a(I162
I892
tp1186
a(I18
I200
tp1187
a(I188
I325
tp1188
aa(lp1189
(I133
I818
tp1190
a(I25
I359
tp1191
a(I156
I369
tp1192
a(I153
I805
tp1193
a(I53
I937
tp1194
a(I15
I130
tp1195
a(I95
I368
tp1196
a(I99
I827
tp1197
a(I200
I362
tp1198
a(I16
I472
tp1199
aa(lp1200
(I77
I382
tp1201
a(I60
I261
tp1202
a(I79
I706
tp1203
a(I124
I433
tp1204
a(I110
I278
tp1205
a(I66
I728
tp1206
a(I88
I579
tp1207
a(I60
I328
tp1208
a(I15
I150
tp1209
a(I174
I731
tp1210
aa(lp1211
(I130
I667
tp1212
a(I386
I899
tp1213
a(I9
I905
tp1214
a(I200
I516
tp1215
a(I73
I687
tp1216
a(I3
I688
tp1217
a(I18
I811
tp1218
a(I12
I245
tp1219
a(I268
I943
tp1220
a(I65
I129
tp1221
aa(lp1222
(I354
I862
tp1223
a(I32
I308
tp1224
a(I153
I597
tp1225
a(I20
I190
tp1226
a(I102
I278
tp1227
a(I45
I677
tp1228
a(I68
I592
tp1229
a(I99
I579
tp1230
a(I306
I870
tp1231
a(I32
I822
tp1232
aa(lp1233
(I14
I697
tp1234
a(I45
I784
tp1235
a(I21
I257
tp1236
a(I6
I626
tp1237
a(I462
I877
tp1238
a(I64
I226
tp1239
a(I72
I255
tp1240
a(I61
I107
tp1241
a(I31
I782
tp1242
a(I81
I754
tp1243
aa(lp1244
(I88
I189
tp1245
a(I6
I328
tp1246
a(I29
I561
tp1247
a(I38
I743
tp1248
a(I48
I391
tp1249
a(I118
I679
tp1250
a(I155
I398
tp1251
a(I105
I444
tp1252
a(I361
I907
tp1253
a(I52
I650
tp1254
aa(lp1255
(I333
I981
tp1256
a(I40
I358
tp1257
a(I291
I629
tp1258
a(I112
I588
tp1259
a(I6
I256
tp1260
a(I19
I588
tp1261
a(I113
I419
tp1262
a(I7
I711
tp1263
a(I84
I450
tp1264
a(I290
I800
tp1265
aa(lp1266
(I126
I287
tp1267
a(I166
I539
tp1268
a(I175
I701
tp1269
a(I32
I322
tp1270
a(I36
I268
tp1271
a(I1
I118
tp1272
a(I71
I458
tp1273
a(I262
I514
tp1274
a(I20
I719
tp1275
a(I52
I851
tp1276
aa(lp1277
(I67
I859
tp1278
a(I69
I340
tp1279
a(I49
I718
tp1280
a(I152
I639
tp1281
a(I215
I424
tp1282
a(I30
I558
tp1283
a(I15
I221
tp1284
a(I84
I781
tp1285
a(I148
I513
tp1286
a(I68
I181
tp1287
aa(lp1288
(I36
I732
tp1289
a(I374
I831
tp1290
a(I205
I842
tp1291
a(I54
I617
tp1292
a(I50
I598
tp1293
a(I193
I893
tp1294
a(I47
I401
tp1295
a(I43
I142
tp1296
a(I163
I654
tp1297
a(I148
I767
tp1298
aa(lp1299
(I42
I775
tp1300
a(I135
I373
tp1301
a(I82
I316
tp1302
a(I60
I122
tp1303
a(I55
I936
tp1304
a(I17
I629
tp1305
a(I46
I845
tp1306
a(I420
I947
tp1307
a(I146
I980
tp1308
a(I77
I862
tp1309
aa(lp1310
(I54
I554
tp1311
a(I10
I531
tp1312
a(I8
I590
tp1313
a(I60
I467
tp1314
a(I210
I818
tp1315
a(I19
I359
tp1316
a(I554
I719
tp1317
a(I36
I184
tp1318
a(I118
I427
tp1319
a(I29
I169
tp1320
aa(lp1321
(I30
I304
tp1322
a(I502
I936
tp1323
a(I10
I937
tp1324
a(I110
I765
tp1325
a(I32
I445
tp1326
a(I54
I323
tp1327
a(I230
I306
tp1328
a(I15
I135
tp1329
a(I13
I712
tp1330
a(I52
I656
tp1331
aa(lp1332
(I64
I288
tp1333
a(I46
I984
tp1334
a(I513
I844
tp1335
a(I95
I756
tp1336
a(I60
I403
tp1337
a(I7
I193
tp1338
a(I193
I746
tp1339
a(I18
I838
tp1340
a(I32
I429
tp1341
a(I428
I958
tp1342
aa(lp1343
(I14
I155
tp1344
a(I38
I290
tp1345
a(I369
I930
tp1346
a(I263
I761
tp1347
a(I4
I551
tp1348
a(I25
I708
tp1349
a(I44
I160
tp1350
a(I93
I435
tp1351
a(I53
I907
tp1352
a(I377
I871
tp1353
aa(lp1354
(I23
I320
tp1355
a(I59
I433
tp1356
a(I33
I808
tp1357
a(I122
I843
tp1358
a(I2
I140
tp1359
a(I404
I592
tp1360
a(I65
I157
tp1361
a(I111
I701
tp1362
a(I41
I199
tp1363
a(I107
I942
tp1364
aa(lp1365
(I10
I817
tp1366
a(I73
I171
tp1367
a(I17
I179
tp1368
a(I218
I668
tp1369
a(I38
I351
tp1370
a(I432
I732
tp1371
a(I112
I711
tp1372
a(I31
I739
tp1373
a(I106
I510
tp1374
a(I16
I688
tp1375
aa(lp1376
(I171
I618
tp1377
a(I152
I504
tp1378
a(I4
I158
tp1379
a(I49
I741
tp1380
a(I65
I191
tp1381
a(I204
I884
tp1382
a(I1
I914
tp1383
a(I136
I923
tp1384
a(I307
I875
tp1385
a(I59
I234
tp1386
aa(lp1387
(I464
I835
tp1388
a(I45
I664
tp1389
a(I2
I363
tp1390
a(I224
I604
tp1391
a(I281
I958
tp1392
a(I26
I262
tp1393
a(I32
I980
tp1394
a(I23
I222
tp1395
a(I102
I372
tp1396
a(I27
I145
tp1397
aa(lp1398
(I389
I664
tp1399
a(I6
I176
tp1400
a(I324
I808
tp1401
a(I360
I969
tp1402
a(I48
I449
tp1403
a(I23
I200
tp1404
a(I29
I231
tp1405
a(I81
I733
tp1406
a(I24
I345
tp1407
a(I8
I115
tp1408
aa(lp1409
(I29
I266
tp1410
a(I96
I920
tp1411
a(I8
I264
tp1412
a(I23
I595
tp1413
a(I245
I247
tp1414
a(I2
I168
tp1415
a(I193
I571
tp1416
a(I154
I842
tp1417
a(I109
I751
tp1418
a(I21
I644
tp1419
aa(lp1420
(I51
I114
tp1421
a(I12
I597
tp1422
a(I88
I298
tp1423
a(I28
I654
tp1424
a(I368
I954
tp1425
a(I128
I931
tp1426
a(I20
I969
tp1427
a(I77
I358
tp1428
a(I27
I203
tp1429
a(I255
I890
tp1430
aa(lp1431
(I122
I415
tp1432
a(I53
I986
tp1433
a(I212
I709
tp1434
a(I450
I790
tp1435
a(I292
I814
tp1436
a(I13
I871
tp1437
a(I16
I281
tp1438
a(I29
I329
tp1439
a(I61
I561
tp1440
a(I31
I214
tp1441
aa(lp1442
(I125
I382
tp1443
a(I2
I200
tp1444
a(I32
I174
tp1445
a(I109
I634
tp1446
a(I207
I980
tp1447
a(I59
I479
tp1448
a(I112
I635
tp1449
a(I83
I540
tp1450
a(I4
I816
tp1451
a(I467
I750
tp1452
aa(lp1453
(I23
I515
tp1454
a(I61
I283
tp1455
a(I62
I737
tp1456
a(I131
I241
tp1457
a(I6
I136
tp1458
a(I170
I521
tp1459
a(I451
I759
tp1460
a(I56
I659
tp1461
a(I9
I710
tp1462
a(I16
I409
tp1463
aa(lp1464
(I119
I331
tp1465
a(I55
I951
tp1466
a(I3
I540
tp1467
a(I2
I141
tp1468
a(I481
I972
tp1469
a(I63
I321
tp1470
a(I90
I447
tp1471
a(I86
I346
tp1472
a(I39
I127
tp1473
a(I75
I776
tp1474
aa(lp1475
(I185
I578
tp1476
a(I176
I566
tp1477
a(I1
I634
tp1478
a(I25
I394
tp1479
a(I85
I445
tp1480
a(I219
I584
tp1481
a(I264
I880
tp1482
a(I86
I390
tp1483
a(I4
I101
tp1484
a(I154
I949
tp1485
aa(lp1486
(I127
I614
tp1487
a(I16
I310
tp1488
a(I164
I853
tp1489
a(I227
I875
tp1490
a(I43
I344
tp1491
a(I7
I597
tp1492
a(I746
I855
tp1493
a(I19
I111
tp1494
a(I14
I320
tp1495
a(I44
I914
tp1496
aa(lp1497
(I71
I378
tp1498
a(I113
I771
tp1499
a(I31
I556
tp1500
a(I12
I492
tp1501
a(I34
I401
tp1502
a(I74
I843
tp1503
a(I5
I140
tp1504
a(I168
I509
tp1505
a(I540
I833
tp1506
a(I57
I148
tp1507
aa(lp1508
(I395
I628
tp1509
a(I148
I515
tp1510
a(I16
I725
tp1511
a(I29
I633
tp1512
a(I4
I854
tp1513
a(I46
I312
tp1514
a(I31
I411
tp1515
a(I378
I588
tp1516
a(I20
I240
tp1517
a(I23
I449
tp1518
aa(lp1519
(I324
I950
tp1520
a(I122
I981
tp1521
a(I6
I688
tp1522
a(I9
I186
tp1523
a(I430
I823
tp1524
a(I5
I709
tp1525
a(I273
I735
tp1526
a(I64
I739
tp1527
a(I70
I427
tp1528
a(I197
I627
tp1529
aa(lp1530
(I20
I265
tp1531
a(I53
I462
tp1532
a(I8
I336
tp1533
a(I154
I669
tp1534
a(I105
I862
tp1535
a(I3
I751
tp1536
a(I23
I806
tp1537
a(I26
I205
tp1538
a(I367
I586
tp1539
a(I517
I811
tp1540
aa(lp1541
(I106
I541
tp1542
a(I127
I805
tp1543
a(I196
I928
tp1544
a(I21
I218
tp1545
a(I69
I788
tp1546
a(I69
I522
tp1547
a(I155
I356
tp1548
a(I70
I657
tp1549
a(I174
I782
tp1550
a(I193
I564
tp1551
aa(lp1552
(I26
I593
tp1553
a(I63
I586
tp1554
a(I113
I472
tp1555
a(I16
I450
tp1556
a(I91
I868
tp1557
a(I18
I191
tp1558
a(I268
I580
tp1559
a(I40
I453
tp1560
a(I193
I684
tp1561
a(I500
I943
tp1562
aa(lp1563
(I9
I134
tp1564
a(I24
I497
tp1565
a(I5
I144
tp1566
a(I401
I439
tp1567
a(I9
I163
tp1568
a(I254
I923
tp1569
a(I17
I406
tp1570
a(I12
I357
tp1571
a(I155
I704
tp1572
a(I195
I685
tp1573
aa(lp1574
(I90
I775
tp1575
a(I16
I830
tp1576
a(I35
I293
tp1577
a(I32
I128
tp1578
a(I60
I183
tp1579
a(I63
I420
tp1580
a(I188
I413
tp1581
a(I26
I158
tp1582
a(I45
I149
tp1583
a(I41
I527
tp1584
aa(lp1585
(I157
I552
tp1586
a(I1
I831
tp1587
a(I307
I966
tp1588
a(I24
I358
tp1589
a(I104
I483
tp1590
a(I79
I752
tp1591
a(I134
I495
tp1592
a(I134
I628
tp1593
a(I372
I792
tp1594
a(I36
I745
tp1595
aa(lp1596
(I398
I839
tp1597
a(I497
I956
tp1598
a(I62
I781
tp1599
a(I52
I915
tp1600
a(I28
I118
tp1601
a(I67
I416
tp1602
a(I61
I367
tp1603
a(I40
I313
tp1604
a(I110
I683
tp1605
a(I6
I679
tp1606
aa(lp1607
(I84
I638
tp1608
a(I148
I665
tp1609
a(I1
I393
tp1610
a(I515
I962
tp1611
a(I38
I258
tp1612
a(I38
I212
tp1613
a(I41
I889
tp1614
a(I105
I227
tp1615
a(I179
I828
tp1616
a(I27
I570
tp1617
aa(lp1618
(I13
I186
tp1619
a(I281
I932
tp1620
a(I219
I914
tp1621
a(I265
I989
tp1622
a(I347
I697
tp1623
a(I33
I261
tp1624
a(I13
I311
tp1625
a(I91
I457
tp1626
a(I211
I885
tp1627
a(I2
I511
tp1628
aa(lp1629
(I80
I823
tp1630
a(I100
I886
tp1631
a(I188
I743
tp1632
a(I185
I550
tp1633
a(I203
I442
tp1634
a(I87
I229
tp1635
a(I2
I424
tp1636
a(I48
I514
tp1637
a(I220
I947
tp1638
a(I8
I339
tp1639
aa(lp1640
(I38
I607
tp1641
a(I1
I860
tp1642
a(I79
I471
tp1643
a(I35
I395
tp1644
a(I404
I850
tp1645
a(I190
I781
tp1646
a(I22
I485
tp1647
a(I402
I680
tp1648
a(I109
I366
tp1649
a(I12
I651
tp1650
aa(lp1651
(I59
I695
tp1652
a(I90
I716
tp1653
a(I42
I150
tp1654
a(I231
I572
tp1655
a(I94
I454
tp1656
a(I126
I560
tp1657
a(I199
I582
tp1658
a(I201
I943
tp1659
a(I62
I669
tp1660
a(I8
I711
tp1661
aa(lp1662
(I3
I187
tp1663
a(I32
I310
tp1664
a(I93
I289
tp1665
a(I90
I263
tp1666
a(I81
I297
tp1667
a(I261
I887
tp1668
a(I130
I325
tp1669
a(I111
I778
tp1670
a(I55
I624
tp1671
a(I5
I897
tp1672
aa(lp1673
(I61
I303
tp1674
a(I194
I963
tp1675
a(I174
I607
tp1676
a(I31
I430
tp1677
a(I31
I804
tp1678
a(I201
I617
tp1679
a(I146
I777
tp1680
a(I60
I987
tp1681
a(I186
I877
tp1682
a(I187
I460
tp1683
aa(lp1684
(I114
I477
tp1685
a(I19
I248
tp1686
a(I122
I285
tp1687
a(I99
I437
tp1688
a(I2
I778
tp1689
a(I108
I262
tp1690
a(I36
I401
tp1691
a(I240
I721
tp1692
a(I32
I993
tp1693
a(I63
I422
tp1694
aa(lp1695
(I92
I444
tp1696
a(I1
I440
tp1697
a(I20
I224
tp1698
a(I22
I282
tp1699
a(I156
I993
tp1700
a(I9
I249
tp1701
a(I40
I624
tp1702
a(I36
I881
tp1703
a(I257
I317
tp1704
a(I150
I300
tp1705
aa(lp1706
(I213
I565
tp1707
a(I8
I184
tp1708
a(I12
I386
tp1709
a(I39
I132
tp1710
a(I72
I357
tp1711
a(I48
I599
tp1712
a(I70
I242
tp1713
a(I109
I576
tp1714
a(I248
I539
tp1715
a(I8
I645
tp1716
aa(lp1717
(I104
I497
tp1718
a(I474
I965
tp1719
a(I147
I803
tp1720
a(I44
I416
tp1721
a(I2
I923
tp1722
a(I157
I818
tp1723
a(I4
I203
tp1724
a(I67
I418
tp1725
a(I16
I910
tp1726
a(I439
I721
tp1727
aa(lp1728
(I5
I102
tp1729
a(I22
I215
tp1730
a(I254
I785
tp1731
a(I121
I533
tp1732
a(I324
I965
tp1733
a(I102
I429
tp1734
a(I63
I183
tp1735
a(I154
I856
tp1736
a(I1
I901
tp1737
a(I148
I807
tp1738
aa(lp1739
(I37
I528
tp1740
a(I234
I276
tp1741
a(I126
I855
tp1742
a(I111
I588
tp1743
a(I17
I741
tp1744
a(I19
I107
tp1745
a(I14
I803
tp1746
a(I110
I426
tp1747
a(I14
I318
tp1748
a(I143
I680
tp1749
aa(lp1750
(I117
I677
tp1751
a(I36
I459
tp1752
a(I29
I139
tp1753
a(I121
I586
tp1754
a(I101
I610
tp1755
a(I341
I763
tp1756
a(I20
I488
tp1757
a(I44
I855
tp1758
a(I41
I109
tp1759
a(I93
I394
tp1760
aa(lp1761
(I39
I578
tp1762
a(I5
I125
tp1763
a(I23
I927
tp1764
a(I14
I193
tp1765
a(I56
I257
tp1766
a(I5
I185
tp1767
a(I147
I336
tp1768
a(I116
I803
tp1769
a(I27
I133
tp1770
a(I520
I698
tp1771
aa(lp1772
(I149
I783
tp1773
a(I133
I658
tp1774
a(I46
I150
tp1775
a(I1
I242
tp1776
a(I155
I531
tp1777
a(I113
I607
tp1778
a(I58
I133
tp1779
a(I145
I526
tp1780
a(I34
I898
tp1781
a(I14
I284
tp1782
aa(lp1783
(I10
I505
tp1784
a(I146
I241
tp1785
a(I135
I999
tp1786
a(I13
I466
tp1787
a(I371
I836
tp1788
a(I9
I428
tp1789
a(I161
I851
tp1790
a(I159
I457
tp1791
a(I135
I765
tp1792
a(I10
I485
tp1793
aa(lp1794
(I11
I400
tp1795
a(I70
I256
tp1796
a(I83
I598
tp1797
a(I3
I483
tp1798
a(I70
I357
tp1799
a(I93
I572
tp1800
a(I174
I664
tp1801
a(I171
I578
tp1802
a(I111
I509
tp1803
a(I207
I507
tp1804
aa(lp1805
(I179
I538
tp1806
a(I462
I824
tp1807
a(I215
I926
tp1808
a(I10
I200
tp1809
a(I76
I510
tp1810
a(I17
I490
tp1811
a(I74
I686
tp1812
a(I69
I618
tp1813
a(I143
I614
tp1814
a(I157
I887
tp1815
aa(lp1816
(I9
I235
tp1817
a(I82
I752
tp1818
a(I48
I592
tp1819
a(I114
I877
tp1820
a(I182
I842
tp1821
a(I165
I331
tp1822
a(I112
I631
tp1823
a(I437
I821
tp1824
a(I27
I269
tp1825
a(I96
I923
tp1826
aa(lp1827
(I15
I228
tp1828
a(I149
I741
tp1829
a(I63
I361
tp1830
a(I154
I303
tp1831
a(I25
I628
tp1832
a(I228
I600
tp1833
a(I14
I307
tp1834
a(I194
I958
tp1835
a(I121
I349
tp1836
a(I11
I532
tp1837
aa(lp1838
(I15
I401
tp1839
a(I188
I915
tp1840
a(I498
I692
tp1841
a(I230
I989
tp1842
a(I2
I306
tp1843
a(I11
I443
tp1844
a(I68
I128
tp1845
a(I168
I776
tp1846
a(I3
I270
tp1847
a(I1
I393
tp1848
aa(lp1849
(I106
I938
tp1850
a(I9
I669
tp1851
a(I136
I545
tp1852
a(I102
I904
tp1853
a(I183
I463
tp1854
a(I200
I578
tp1855
a(I37
I511
tp1856
a(I374
I909
tp1857
a(I83
I468
tp1858
a(I12
I124
tp1859
aa(lp1860
(I158
I665
tp1861
a(I36
I263
tp1862
a(I72
I588
tp1863
a(I519
I769
tp1864
a(I104
I737
tp1865
a(I28
I432
tp1866
a(I38
I324
tp1867
a(I146
I312
tp1868
a(I11
I683
tp1869
a(I1
I117
tp1870
aa(lp1871
(I19
I510
tp1872
a(I39
I571
tp1873
a(I26
I798
tp1874
a(I112
I823
tp1875
a(I64
I717
tp1876
a(I103
I948
tp1877
a(I74
I228
tp1878
a(I255
I384
tp1879
a(I165
I552
tp1880
a(I148
I639
tp1881
aa(lp1882
(I2
I165
tp1883
a(I484
I623
tp1884
a(I59
I892
tp1885
a(I1
I118
tp1886
a(I222
I419
tp1887
a(I1
I540
tp1888
a(I68
I651
tp1889
a(I214
I885
tp1890
a(I8
I171
tp1891
a(I105
I542
tp1892
aa(lp1893
(I35
I749
tp1894
a(I131
I196
tp1895
a(I249
I975
tp1896
a(I48
I646
tp1897
a(I210
I873
tp1898
a(I12
I306
tp1899
a(I108
I498
tp1900
a(I57
I258
tp1901
a(I96
I608
tp1902
a(I13
I200
tp1903
aa(lp1904
(I179
I537
tp1905
a(I41
I277
tp1906
a(I117
I427
tp1907
a(I370
I838
tp1908
a(I69
I954
tp1909
a(I41
I514
tp1910
a(I60
I294
tp1911
a(I272
I908
tp1912
a(I19
I383
tp1913
a(I56
I643
tp1914
aa(lp1915
(I159
I364
tp1916
a(I57
I674
tp1917
a(I116
I469
tp1918
a(I2
I353
tp1919
a(I9
I226
tp1920
a(I131
I866
tp1921
a(I357
I450
tp1922
a(I39
I198
tp1923
a(I4
I324
tp1924
a(I12
I752
tp1925
aa(lp1926
(I7
I303
tp1927
a(I147
I263
tp1928
a(I83
I504
tp1929
a(I89
I434
tp1930
a(I601
I903
tp1931
a(I62
I810
tp1932
a(I10
I787
tp1933
a(I38
I856
tp1934
a(I56
I264
tp1935
a(I13
I502
tp1936
aa(lp1937
(I6
I173
tp1938
a(I22
I187
tp1939
a(I396
I724
tp1940
a(I49
I340
tp1941
a(I196
I869
tp1942
a(I51
I670
tp1943
a(I172
I556
tp1944
a(I10
I190
tp1945
a(I99
I241
tp1946
a(I46
I665
tp1947
aa(lp1948
(I77
I961
tp1949
a(I142
I596
tp1950
a(I5
I330
tp1951
a(I83
I207
tp1952
a(I12
I255
tp1953
a(I268
I703
tp1954
a(I43
I237
tp1955
a(I3
I454
tp1956
a(I141
I276
tp1957
a(I85
I692
tp1958
aa(lp1959
(I66
I746
tp1960
a(I80
I969
tp1961
a(I34
I170
tp1962
a(I47
I633
tp1963
a(I145
I752
tp1964
a(I421
I481
tp1965
a(I26
I776
tp1966
a(I12
I773
tp1967
a(I79
I742
tp1968
a(I264
I816
tp1969
aa(lp1970
(I25
I652
tp1971
a(I177
I604
tp1972
a(I18
I450
tp1973
a(I476
I882
tp1974
a(I157
I717
tp1975
a(I1
I481
tp1976
a(I20
I337
tp1977
a(I317
I587
tp1978
a(I245
I971
tp1979
a(I10
I942
tp1980
aa(lp1981
(I27
I543
tp1982
a(I168
I837
tp1983
a(I74
I154
tp1984
a(I25
I129
tp1985
a(I100
I751
tp1986
a(I261
I903
tp1987
a(I9
I246
tp1988
a(I167
I552
tp1989
a(I110
I824
tp1990
a(I65
I391
tp1991
aa(lp1992
(I3
I296
tp1993
a(I222
I557
tp1994
a(I142
I352
tp1995
a(I3
I782
tp1996
a(I5
I136
tp1997
a(I206
I718
tp1998
a(I108
I508
tp1999
a(I51
I947
tp2000
a(I205
I507
tp2001
a(I103
I594
tp2002
aa(lp2003
(I32
I164
tp2004
a(I45
I138
tp2005
a(I167
I912
tp2006
a(I452
I915
tp2007
a(I25
I955
tp2008
a(I163
I902
tp2009
a(I33
I621
tp2010
a(I7
I339
tp2011
a(I111
I372
tp2012
a(I123
I601
tp2013
aa(lp2014
(I2
I236
tp2015
a(I3
I746
tp2016
a(I27
I216
tp2017
a(I221
I404
tp2018
a(I176
I676
tp2019
a(I152
I279
tp2020
a(I20
I257
tp2021
a(I195
I639
tp2022
a(I5
I332
tp2023
a(I41
I424
tp2024
aa(lp2025
(I19
I415
tp2026
a(I89
I658
tp2027
a(I36
I679
tp2028
a(I70
I208
tp2029
a(I271
I572
tp2030
a(I94
I851
tp2031
a(I166
I627
tp2032
a(I130
I922
tp2033
a(I3
I541
tp2034
a(I135
I322
tp2035
aa(lp2036
(I39
I189
tp2037
a(I134
I389
tp2038
a(I12
I812
tp2039
a(I38
I406
tp2040
a(I86
I435
tp2041
a(I44
I761
tp2042
a(I203
I445
tp2043
a(I190
I834
tp2044
a(I246
I637
tp2045
a(I1
I304
tp2046
aa(lp2047
(I21
I633
tp2048
a(I90
I439
tp2049
a(I118
I411
tp2050
a(I13
I587
tp2051
a(I21
I290
tp2052
a(I174
I693
tp2053
a(I203
I749
tp2054
a(I81
I279
tp2055
a(I111
I869
tp2056
a(I171
I397
tp2057
aa(lp2058
(I126
I184
tp2059
a(I96
I532
tp2060
a(I85
I377
tp2061
a(I33
I186
tp2062
a(I103
I586
tp2063
a(I44
I127
tp2064
a(I8
I697
tp2065
a(I149
I942
tp2066
a(I5
I303
tp2067
a(I4
I530
tp2068
aa(lp2069
(I6
I256
tp2070
a(I272
I923
tp2071
a(I417
I662
tp2072
a(I65
I398
tp2073
a(I59
I368
tp2074
a(I93
I372
tp2075
a(I3
I672
tp2076
a(I25
I167
tp2077
a(I2
I124
tp2078
a(I118
I399
tp2079
aa(lp2080
(I175
I609
tp2081
a(I89
I376
tp2082
a(I141
I472
tp2083
a(I85
I882
tp2084
a(I69
I240
tp2085
a(I154
I742
tp2086
a(I21
I538
tp2087
a(I128
I1000
tp2088
a(I131
I780
tp2089
a(I98
I408
tp2090
aa(lp2091
(I1
I675
tp2092
a(I31
I336
tp2093
a(I102
I574
tp2094
a(I15
I120
tp2095
a(I786
I815
tp2096
a(I18
I857
tp2097
a(I34
I249
tp2098
a(I203
I827
tp2099
a(I48
I468
tp2100
a(I41
I342
tp2101
aa(lp2102
(I151
I949
tp2103
a(I168
I783
tp2104
a(I4
I226
tp2105
a(I176
I664
tp2106
a(I79
I262
tp2107
a(I48
I354
tp2108
a(I110
I679
tp2109
a(I73
I390
tp2110
a(I159
I836
tp2111
a(I262
I743
tp2112
aa(lp2113
(I12
I792
tp2114
a(I17
I158
tp2115
a(I35
I428
tp2116
a(I58
I678
tp2117
a(I158
I985
tp2118
a(I159
I244
tp2119
a(I49
I448
tp2120
a(I423
I975
tp2121
a(I28
I206
tp2122
a(I79
I379
tp2123
aa(lp2124
(I178
I821
tp2125
a(I244
I673
tp2126
a(I45
I627
tp2127
a(I758
I901
tp2128
a(I33
I771
tp2129
a(I5
I261
tp2130
a(I121
I693
tp2131
a(I32
I540
tp2132
a(I53
I415
tp2133
a(I49
I635
tp2134
aa(lp2135
(I119
I669
tp2136
a(I84
I427
tp2137
a(I6
I386
tp2138
a(I117
I686
tp2139
a(I16
I130
tp2140
a(I68
I888
tp2141
a(I66
I376
tp2142
a(I234
I350
tp2143
a(I83
I317
tp2144
a(I53
I435
tp2145
aa(lp2146
(I95
I776
tp2147
a(I1
I214
tp2148
a(I87
I590
tp2149
a(I56
I201
tp2150
a(I383
I670
tp2151
a(I17
I485
tp2152
a(I272
I681
tp2153
a(I100
I589
tp2154
a(I92
I395
tp2155
a(I7
I207
tp2156
aa(lp2157
(I11
I683
tp2158
a(I100
I638
tp2159
a(I10
I994
tp2160
a(I201
I831
tp2161
a(I21
I111
tp2162
a(I88
I897
tp2163
a(I235
I919
tp2164
a(I96
I330
tp2165
a(I34
I115
tp2166
a(I143
I334
tp2167
aa(lp2168
(I144
I655
tp2169
a(I176
I934
tp2170
a(I20
I497
tp2171
a(I101
I561
tp2172
a(I20
I184
tp2173
a(I83
I510
tp2174
a(I15
I803
tp2175
a(I249
I410
tp2176
a(I14
I198
tp2177
a(I290
I741
tp2178
aa(lp2179
(I35
I121
tp2180
a(I184
I915
tp2181
a(I264
I899
tp2182
a(I202
I902
tp2183
a(I145
I588
tp2184
a(I112
I718
tp2185
a(I12
I727
tp2186
a(I26
I423
tp2187
a(I184
I958
tp2188
a(I302
I967
tp2189
aa(lp2190
(I122
I580
tp2191
a(I441
I890
tp2192
a(I194
I822
tp2193
a(I470
I811
tp2194
a(I25
I729
tp2195
a(I11
I165
tp2196
a(I52
I692
tp2197
a(I42
I500
tp2198
a(I24
I185
tp2199
a(I62
I827
tp2200
aa(lp2201
(I18
I210
tp2202
a(I403
I534
tp2203
a(I110
I588
tp2204
a(I25
I460
tp2205
a(I11
I124
tp2206
a(I8
I274
tp2207
a(I51
I456
tp2208
a(I72
I391
tp2209
a(I71
I266
tp2210
a(I95
I425
tp2211
aa(lp2212
(I20
I260
tp2213
a(I62
I204
tp2214
a(I5
I969
tp2215
a(I109
I377
tp2216
a(I241
I386
tp2217
a(I16
I473
tp2218
a(I26
I285
tp2219
a(I35
I601
tp2220
a(I222
I681
tp2221
a(I178
I991
tp2222
aa(lp2223
(I137
I692
tp2224
a(I21
I215
tp2225
a(I78
I812
tp2226
a(I474
I974
tp2227
a(I81
I968
tp2228
a(I37
I804
tp2229
a(I4
I349
tp2230
a(I69
I857
tp2231
a(I99
I165
tp2232
a(I260
I888
tp2233
aa(lp2234
(I1
I753
tp2235
a(I117
I428
tp2236
a(I84
I915
tp2237
a(I25
I799
tp2238
a(I130
I195
tp2239
a(I67
I467
tp2240
a(I107
I932
tp2241
a(I69
I306
tp2242
a(I190
I494
tp2243
a(I22
I406
tp2244
aa(lp2245
(I343
I671
tp2246
a(I58
I758
tp2247
a(I181
I856
tp2248
a(I33
I122
tp2249
a(I19
I194
tp2250
a(I142
I561
tp2251
a(I4
I282
tp2252
a(I155
I366
tp2253
a(I32
I508
tp2254
a(I57
I869
tp2255
aa(lp2256
(I37
I369
tp2257
a(I73
I291
tp2258
a(I40
I766
tp2259
a(I1
I699
tp2260
a(I22
I846
tp2261
a(I108
I306
tp2262
a(I214
I992
tp2263
a(I127
I594
tp2264
a(I319
I488
tp2265
a(I57
I465
tp2266
aa(lp2267
(I270
I678
tp2268
a(I66
I481
tp2269
a(I10
I117
tp2270
a(I13
I350
tp2271
a(I67
I905
tp2272
a(I193
I211
tp2273
a(I110
I994
tp2274
a(I1
I422
tp2275
a(I23
I546
tp2276
a(I26
I144
tp2277
aa(lp2278
(I151
I713
tp2279
a(I28
I571
tp2280
a(I23
I368
tp2281
a(I356
I710
tp2282
a(I212
I844
tp2283
a(I25
I109
tp2284
a(I94
I652
tp2285
a(I20
I238
tp2286
a(I401
I947
tp2287
a(I28
I851
tp2288
aa(lp2289
(I32
I226
tp2290
a(I20
I464
tp2291
a(I343
I952
tp2292
a(I80
I435
tp2293
a(I170
I761
tp2294
a(I39
I401
tp2295
a(I27
I129
tp2296
a(I47
I229
tp2297
a(I343
I939
tp2298
a(I21
I141
tp2299
aa(lp2300
(I79
I826
tp2301
a(I65
I359
tp2302
a(I2
I139
tp2303
a(I33
I226
tp2304
a(I105
I241
tp2305
a(I98
I762
tp2306
a(I13
I235
tp2307
a(I314
I672
tp2308
a(I9
I349
tp2309
a(I283
I649
tp2310
aa(lp2311
(I457
I863
tp2312
a(I12
I473
tp2313
a(I172
I721
tp2314
a(I97
I967
tp2315
a(I31
I459
tp2316
a(I25
I257
tp2317
a(I124
I930
tp2318
a(I144
I451
tp2319
a(I151
I894
tp2320
a(I212
I679
tp2321
aa(lp2322
(I73
I638
tp2323
a(I9
I289
tp2324
a(I19
I211
tp2325
a(I135
I687
tp2326
a(I102
I809
tp2327
a(I288
I344
tp2328
a(I42
I319
tp2329
a(I23
I383
tp2330
a(I4
I118
tp2331
a(I42
I117
tp2332
aa(lp2333
(I66
I915
tp2334
a(I25
I675
tp2335
a(I147
I545
tp2336
a(I334
I384
tp2337
a(I72
I973
tp2338
a(I139
I980
tp2339
a(I67
I912
tp2340
a(I82
I823
tp2341
a(I47
I148
tp2342
a(I9
I241
tp2343
aa(lp2344
(I87
I343
tp2345
a(I14
I300
tp2346
a(I2
I145
tp2347
a(I38
I684
tp2348
a(I56
I824
tp2349
a(I753
I938
tp2350
a(I45
I252
tp2351
a(I106
I900
tp2352
a(I187
I438
tp2353
a(I11
I410
tp2354
aa(lp2355
(I108
I487
tp2356
a(I508
I921
tp2357
a(I85
I548
tp2358
a(I59
I186
tp2359
a(I46
I229
tp2360
a(I31
I277
tp2361
a(I2
I649
tp2362
a(I73
I600
tp2363
a(I4
I185
tp2364
a(I174
I610
tp2365
aa(lp2366
(I23
I108
tp2367
a(I92
I804
tp2368
a(I311
I661
tp2369
a(I18
I679
tp2370
a(I72
I379
tp2371
a(I325
I649
tp2372
a(I162
I870
tp2373
a(I74
I337
tp2374
a(I2
I251
tp2375
a(I6
I122
tp2376
aa(lp2377
(I3
I170
tp2378
a(I168
I443
tp2379
a(I204
I621
tp2380
a(I42
I502
tp2381
a(I220
I892
tp2382
a(I64
I427
tp2383
a(I74
I563
tp2384
a(I74
I980
tp2385
a(I123
I460
tp2386
a(I103
I331
tp2387
aa(lp2388
(I35
I561
tp2389
a(I48
I871
tp2390
a(I22
I190
tp2391
a(I188
I400
tp2392
a(I266
I826
tp2393
a(I177
I661
tp2394
a(I85
I633
tp2395
a(I92
I983
tp2396
a(I117
I613
tp2397
a(I160
I573
tp2398
aa(lp2399
(I48
I705
tp2400
a(I128
I379
tp2401
a(I156
I216
tp2402
a(I86
I403
tp2403
a(I1
I883
tp2404
a(I3
I294
tp2405
a(I84
I301
tp2406
a(I4
I906
tp2407
a(I137
I426
tp2408
a(I19
I611
tp2409
aa(lp2410
(I18
I255
tp2411
a(I92
I326
tp2412
a(I112
I762
tp2413
a(I138
I267
tp2414
a(I114
I556
tp2415
a(I67
I257
tp2416
a(I219
I939
tp2417
a(I1
I123
tp2418
a(I31
I338
tp2419
a(I149
I889
tp2420
aa(lp2421
(I257
I546
tp2422
a(I37
I379
tp2423
a(I134
I492
tp2424
a(I20
I978
tp2425
a(I1
I417
tp2426
a(I7
I124
tp2427
a(I213
I466
tp2428
a(I98
I296
tp2429
a(I61
I563
tp2430
a(I101
I589
tp2431
aa(lp2432
(I112
I619
tp2433
a(I36
I944
tp2434
a(I188
I970
tp2435
a(I4
I793
tp2436
a(I93
I102
tp2437
a(I118
I651
tp2438
a(I20
I121
tp2439
a(I113
I794
tp2440
a(I51
I563
tp2441
a(I59
I801
tp2442
aa(lp2443
(I15
I360
tp2444
a(I85
I730
tp2445
a(I64
I291
tp2446
a(I28
I268
tp2447
a(I248
I489
tp2448
a(I177
I835
tp2449
a(I37
I141
tp2450
a(I137
I631
tp2451
a(I103
I526
tp2452
a(I32
I279
tp2453
aa(lp2454
(I179
I413
tp2455
a(I32
I393
tp2456
a(I49
I911
tp2457
a(I25
I391
tp2458
a(I61
I899
tp2459
a(I263
I321
tp2460
a(I19
I171
tp2461
a(I66
I741
tp2462
a(I26
I475
tp2463
a(I172
I796
tp2464
aa(lp2465
(I142
I996
tp2466
a(I151
I434
tp2467
a(I25
I517
tp2468
a(I50
I333
tp2469
a(I43
I430
tp2470
a(I51
I848
tp2471
a(I30
I243
tp2472
a(I26
I694
tp2473
a(I183
I603
tp2474
a(I525
I781
tp2475
aa(lp2476
(I20
I195
tp2477
a(I28
I206
tp2478
a(I8
I127
tp2479
a(I50
I315
tp2480
a(I23
I649
tp2481
a(I117
I552
tp2482
a(I118
I991
tp2483
a(I208
I370
tp2484
a(I230
I967
tp2485
a(I256
I723
tp2486
aa(lp2487
(I139
I741
tp2488
a(I45
I635
tp2489
a(I45
I125
tp2490
a(I239
I612
tp2491
a(I8
I418
tp2492
a(I79
I903
tp2493
a(I70
I172
tp2494
a(I10
I128
tp2495
a(I272
I982
tp2496
a(I79
I736
tp2497
aa(lp2498
(I26
I316
tp2499
a(I139
I375
tp2500
a(I3
I808
tp2501
a(I13
I973
tp2502
a(I31
I650
tp2503
a(I50
I206
tp2504
a(I78
I323
tp2505
a(I559
I977
tp2506
a(I70
I181
tp2507
a(I6
I218
tp2508
aa(lp2509
(I140
I632
tp2510
a(I9
I124
tp2511
a(I36
I182
tp2512
a(I44
I196
tp2513
a(I17
I137
tp2514
a(I169
I610
tp2515
a(I120
I523
tp2516
a(I2
I149
tp2517
a(I25
I928
tp2518
a(I67
I113
tp2519
aa(lp2520
(I238
I542
tp2521
a(I265
I800
tp2522
a(I210
I959
tp2523
a(I18
I300
tp2524
a(I33
I215
tp2525
a(I222
I952
tp2526
a(I107
I643
tp2527
a(I62
I230
tp2528
a(I34
I533
tp2529
a(I49
I990
tp2530
aa(lp2531
(I14
I643
tp2532
a(I90
I910
tp2533
a(I266
I928
tp2534
a(I57
I227
tp2535
a(I212
I912
tp2536
a(I47
I374
tp2537
a(I88
I713
tp2538
a(I171
I572
tp2539
a(I202
I683
tp2540
a(I48
I186
tp2541
aa(lp2542
(I169
I925
tp2543
a(I2
I871
tp2544
a(I298
I599
tp2545
a(I78
I714
tp2546
a(I112
I995
tp2547
a(I159
I472
tp2548
a(I54
I632
tp2549
a(I68
I165
tp2550
a(I180
I856
tp2551
a(I25
I584
tp2552
aa(lp2553
(I298
I653
tp2554
a(I33
I270
tp2555
a(I19
I255
tp2556
a(I57
I714
tp2557
a(I563
I978
tp2558
a(I63
I987
tp2559
a(I48
I509
tp2560
a(I83
I916
tp2561
a(I163
I932
tp2562
a(I253
I991
tp2563
aa(lp2564
(I235
I398
tp2565
a(I36
I528
tp2566
a(I69
I960
tp2567
a(I196
I777
tp2568
a(I299
I588
tp2569
a(I24
I643
tp2570
a(I19
I714
tp2571
a(I26
I752
tp2572
a(I233
I853
tp2573
a(I132
I999
tp2574
aa(lp2575
(I3
I466
tp2576
a(I151
I621
tp2577
a(I174
I921
tp2578
a(I162
I966
tp2579
a(I270
I488
tp2580
a(I4
I489
tp2581
a(I38
I509
tp2582
a(I106
I535
tp2583
a(I216
I806
tp2584
a(I204
I713
tp2585
aa(lp2586
(I344
I492
tp2587
a(I136
I608
tp2588
a(I2
I572
tp2589
a(I283
I847
tp2590
a(I184
I739
tp2591
a(I51
I208
tp2592
a(I32
I710
tp2593
a(I12
I322
tp2594
a(I3
I248
tp2595
a(I130
I937
tp2596
aa(lp2597
(I31
I120
tp2598
a(I37
I919
tp2599
a(I437
I811
tp2600
a(I102
I374
tp2601
a(I57
I293
tp2602
a(I52
I905
tp2603
a(I110
I956
tp2604
a(I105
I231
tp2605
a(I22
I873
tp2606
a(I17
I719
tp2607
aa(lp2608
(I7
I943
tp2609
a(I49
I732
tp2610
a(I129
I559
tp2611
a(I108
I501
tp2612
a(I243
I748
tp2613
a(I128
I400
tp2614
a(I104
I923
tp2615
a(I292
I619
tp2616
a(I155
I809
tp2617
a(I29
I538
tp2618
aa(lp2619
(I248
I863
tp2620
a(I239
I654
tp2621
a(I7
I679
tp2622
a(I105
I411
tp2623
a(I72
I539
tp2624
a(I44
I686
tp2625
a(I560
I755
tp2626
a(I7
I183
tp2627
a(I5
I475
tp2628
a(I56
I713
tp2629
aa(lp2630
(I60
I810
tp2631
a(I84
I269
tp2632
a(I19
I414
tp2633
a(I19
I127
tp2634
a(I102
I691
tp2635
a(I163
I229
tp2636
a(I4
I173
tp2637
a(I201
I570
tp2638
a(I40
I550
tp2639
a(I25
I268
tp2640
aa(lp2641
(I340
I977
tp2642
a(I26
I693
tp2643
a(I60
I195
tp2644
a(I83
I287
tp2645
a(I4
I185
tp2646
a(I52
I292
tp2647
a(I15
I727
tp2648
a(I78
I515
tp2649
a(I152
I923
tp2650
a(I263
I569
tp2651
aa(lp2652
(I124
I539
tp2653
a(I40
I472
tp2654
a(I85
I993
tp2655
a(I59
I378
tp2656
a(I166
I609
tp2657
a(I98
I865
tp2658
a(I82
I492
tp2659
a(I155
I705
tp2660
a(I396
I958
tp2661
a(I178
I712
tp2662
aa(lp2663
(I44
I427
tp2664
a(I1
I137
tp2665
a(I33
I140
tp2666
a(I256
I947
tp2667
a(I80
I449
tp2668
a(I121
I568
tp2669
a(I24
I302
tp2670
a(I92
I810
tp2671
a(I173
I903
tp2672
a(I223
I377
tp2673
aa(lp2674
(I251
I797
tp2675
a(I111
I222
tp2676
a(I26
I168
tp2677
a(I281
I908
tp2678
a(I43
I730
tp2679
a(I52
I928
tp2680
a(I65
I531
tp2681
a(I284
I987
tp2682
a(I11
I660
tp2683
a(I76
I462
tp2684
aa(lp2685
(I40
I797
tp2686
a(I522
I967
tp2687
a(I17
I996
tp2688
a(I52
I334
tp2689
a(I189
I484
tp2690
a(I100
I755
tp2691
a(I27
I166
tp2692
a(I13
I276
tp2693
a(I43
I293
tp2694
a(I91
I262
tp2695
aa(lp2696
(I10
I176
tp2697
a(I23
I709
tp2698
a(I61
I624
tp2699
a(I32
I335
tp2700
a(I116
I500
tp2701
a(I22
I433
tp2702
a(I24
I303
tp2703
a(I343
I457
tp2704
a(I95
I189
tp2705
a(I15
I180
tp2706
aa(lp2707
(I65
I475
tp2708
a(I68
I678
tp2709
a(I21
I236
tp2710
a(I52
I580
tp2711
a(I516
I874
tp2712
a(I1
I258
tp2713
a(I146
I729
tp2714
a(I103
I275
tp2715
a(I19
I273
tp2716
a(I100
I297
tp2717
aa(lp2718
(I37
I333
tp2719
a(I135
I739
tp2720
a(I31
I953
tp2721
a(I44
I230
tp2722
a(I63
I339
tp2723
a(I27
I308
tp2724
a(I211
I887
tp2725
a(I145
I263
tp2726
a(I94
I283
tp2727
a(I70
I897
tp2728
aa(lp2729
(I381
I831
tp2730
a(I20
I458
tp2731
a(I25
I277
tp2732
a(I60
I388
tp2733
a(I36
I382
tp2734
a(I121
I424
tp2735
a(I236
I996
tp2736
a(I19
I582
tp2737
a(I22
I176
tp2738
a(I301
I646
tp2739
aa(lp2740
(I56
I537
tp2741
a(I88
I536
tp2742
a(I19
I222
tp2743
a(I129
I563
tp2744
a(I29
I135
tp2745
a(I256
I662
tp2746
a(I48
I373
tp2747
a(I119
I829
tp2748
a(I163
I339
tp2749
a(I28
I572
tp2750
aa(lp2751
(I234
I975
tp2752
a(I61
I497
tp2753
a(I6
I405
tp2754
a(I24
I768
tp2755
a(I64
I1000
tp2756
a(I42
I250
tp2757
a(I764
I874
tp2758
a(I5
I166
tp2759
a(I22
I238
tp2760
a(I59
I170
tp2761
aa(lp2762
(I34
I666
tp2763
a(I191
I616
tp2764
a(I139
I745
tp2765
a(I9
I676
tp2766
a(I55
I522
tp2767
a(I276
I605
tp2768
a(I22
I771
tp2769
a(I88
I399
tp2770
a(I151
I653
tp2771
a(I42
I109
tp2772
aa(lp2773
(I108
I861
tp2774
a(I2
I438
tp2775
a(I88
I707
tp2776
a(I351
I735
tp2777
a(I74
I801
tp2778
a(I159
I782
tp2779
a(I116
I991
tp2780
a(I62
I252
tp2781
a(I147
I773
tp2782
a(I401
I976
tp2783
aa(lp2784
(I83
I184
tp2785
a(I247
I990
tp2786
a(I37
I138
tp2787
a(I9
I101
tp2788
a(I303
I587
tp2789
a(I69
I681
tp2790
a(I77
I649
tp2791
a(I7
I573
tp2792
a(I1
I610
tp2793
a(I27
I158
tp2794
aa(lp2795
(I216
I939
tp2796
a(I78
I518
tp2797
a(I149
I874
tp2798
a(I177
I910
tp2799
a(I121
I551
tp2800
a(I259
I683
tp2801
a(I176
I739
tp2802
a(I345
I883
tp2803
a(I3
I216
tp2804
a(I4
I762
tp2805
aa(lp2806
(I121
I321
tp2807
a(I164
I981
tp2808
a(I262
I550
tp2809
a(I131
I689
tp2810
a(I64
I814
tp2811
a(I12
I983
tp2812
a(I35
I511
tp2813
a(I144
I952
tp2814
a(I200
I774
tp2815
a(I141
I664
tp2816
aa(lp2817
(I50
I485
tp2818
a(I19
I999
tp2819
a(I99
I903
tp2820
a(I113
I996
tp2821
a(I18
I381
tp2822
a(I120
I512
tp2823
a(I131
I878
tp2824
a(I42
I187
tp2825
a(I833
I843
tp2826
a(I2
I559
tp2827
aa(lp2828
(I27
I610
tp2829
a(I570
I821
tp2830
a(I205
I618
tp2831
a(I4
I367
tp2832
a(I10
I632
tp2833
a(I10
I164
tp2834
a(I21
I309
tp2835
a(I132
I532
tp2836
a(I148
I413
tp2837
a(I62
I398
tp2838
aa(lp2839
(I53
I436
tp2840
a(I31
I250
tp2841
a(I11
I328
tp2842
a(I15
I812
tp2843
a(I276
I671
tp2844
a(I142
I605
tp2845
a(I711
I821
tp2846
a(I66
I856
tp2847
a(I1
I372
tp2848
a(I84
I814
tp2849
aa(lp2850
(I17
I958
tp2851
a(I43
I251
tp2852
a(I50
I726
tp2853
a(I162
I324
tp2854
a(I134
I396
tp2855
a(I353
I544
tp2856
a(I13
I384
tp2857
a(I30
I319
tp2858
a(I1
I205
tp2859
a(I21
I183
tp2860
aa(lp2861
(I19
I168
tp2862
a(I37
I106
tp2863
a(I94
I489
tp2864
a(I58
I785
tp2865
a(I111
I241
tp2866
a(I39
I257
tp2867
a(I62
I481
tp2868
a(I4
I125
tp2869
a(I39
I142
tp2870
a(I120
I583
tp2871
aa(lp2872
(I297
I967
tp2873
a(I127
I716
tp2874
a(I197
I336
tp2875
a(I70
I988
tp2876
a(I8
I519
tp2877
a(I2
I132
tp2878
a(I31
I822
tp2879
a(I91
I395
tp2880
a(I167
I372
tp2881
a(I50
I483
tp2882
aa(lp2883
(I108
I693
tp2884
a(I16
I884
tp2885
a(I222
I878
tp2886
a(I65
I932
tp2887
a(I101
I803
tp2888
a(I264
I442
tp2889
a(I32
I152
tp2890
a(I149
I888
tp2891
a(I68
I329
tp2892
a(I133
I707
tp2893
aa(lp2894
(I35
I333
tp2895
a(I33
I372
tp2896
a(I90
I746
tp2897
a(I505
I886
tp2898
a(I238
I876
tp2899
a(I25
I175
tp2900
a(I299
I614
tp2901
a(I18
I266
tp2902
a(I2
I161
tp2903
a(I99
I853
tp2904
aa(lp2905
(I32
I202
tp2906
a(I1
I120
tp2907
a(I75
I588
tp2908
a(I49
I155
tp2909
a(I190
I554
tp2910
a(I177
I800
tp2911
a(I23
I788
tp2912
a(I126
I484
tp2913
a(I145
I875
tp2914
a(I267
I736
tp2915
aa(lp2916
(I24
I259
tp2917
a(I42
I280
tp2918
a(I157
I862
tp2919
a(I95
I714
tp2920
a(I391
I783
tp2921
a(I94
I432
tp2922
a(I79
I930
tp2923
a(I57
I328
tp2924
a(I179
I825
tp2925
a(I30
I128
tp2926
aa(lp2927
(I5
I860
tp2928
a(I173
I441
tp2929
a(I40
I300
tp2930
a(I1
I177
tp2931
a(I11
I521
tp2932
a(I211
I399
tp2933
a(I51
I308
tp2934
a(I135
I255
tp2935
a(I60
I723
tp2936
a(I20
I173
tp2937
aa(lp2938
(I46
I568
tp2939
a(I453
I949
tp2940
a(I13
I305
tp2941
a(I124
I728
tp2942
a(I43
I267
tp2943
a(I76
I935
tp2944
a(I131
I227
tp2945
a(I99
I605
tp2946
a(I51
I726
tp2947
a(I109
I649
tp2948
aa(lp2949
(I217
I721
tp2950
a(I196
I457
tp2951
a(I4
I117
tp2952
a(I228
I872
tp2953
a(I11
I351
tp2954
a(I247
I477
tp2955
a(I250
I874
tp2956
a(I26
I853
tp2957
a(I83
I919
tp2958
a(I8
I841
tp2959
aa(lp2960
(I11
I167
tp2961
a(I69
I742
tp2962
a(I164
I372
tp2963
a(I20
I728
tp2964
a(I82
I748
tp2965
a(I63
I363
tp2966
a(I403
I556
tp2967
a(I160
I672
tp2968
a(I45
I681
tp2969
a(I22
I436
tp2970
aa(lp2971
(I97
I154
tp2972
a(I295
I953
tp2973
a(I61
I244
tp2974
a(I134
I603
tp2975
a(I174
I916
tp2976
a(I23
I369
tp2977
a(I23
I664
tp2978
a(I156
I980
tp2979
a(I96
I744
tp2980
a(I1
I407
tp2981
aa(lp2982
(I68
I428
tp2983
a(I29
I227
tp2984
a(I68
I138
tp2985
a(I36
I826
tp2986
a(I157
I909
tp2987
a(I355
I796
tp2988
a(I1
I313
tp2989
a(I27
I655
tp2990
a(I103
I462
tp2991
a(I227
I799
tp2992
aa(lp2993
(I6
I803
tp2994
a(I81
I761
tp2995
a(I38
I847
tp2996
a(I135
I976
tp2997
a(I85
I151
tp2998
a(I222
I396
tp2999
a(I2
I227
tp3000
a(I64
I977
tp3001
a(I316
I785
tp3002
a(I94
I973
tp3003
aa(lp3004
(I2
I149
tp3005
a(I147
I934
tp3006
a(I20
I894
tp3007
a(I67
I263
tp3008
a(I79
I223
tp3009
a(I176
I586
tp3010
a(I64
I537
tp3011
a(I73
I411
tp3012
a(I519
I928
tp3013
a(I4
I167
tp3014
aa(lp3015
(I152
I624
tp3016
a(I33
I105
tp3017
a(I85
I404
tp3018
a(I18
I250
tp3019
a(I115
I883
tp3020
a(I75
I439
tp3021
a(I7
I446
tp3022
a(I19
I955
tp3023
a(I361
I660
tp3024
a(I152
I579
tp3025
aa(lp3026
(I137
I981
tp3027
a(I34
I329
tp3028
a(I8
I208
tp3029
a(I45
I919
tp3030
a(I11
I706
tp3031
a(I10
I695
tp3032
a(I246
I968
tp3033
a(I398
I720
tp3034
a(I171
I246
tp3035
a(I32
I253
tp3036
aa(lp3037
(I15
I667
tp3038
a(I60
I582
tp3039
a(I5
I177
tp3040
a(I26
I349
tp3041
a(I8
I192
tp3042
a(I322
I908
tp3043
a(I365
I523
tp3044
a(I349
I829
tp3045
a(I140
I926
tp3046
a(I94
I995
tp3047
aa(lp3048
(I110
I462
tp3049
a(I14
I259
tp3050
a(I181
I771
tp3051
a(I80
I988
tp3052
a(I17
I491
tp3053
a(I98
I911
tp3054
a(I77
I772
tp3055
a(I123
I194
tp3056
a(I28
I864
tp3057
a(I279
I591
tp3058
aa(lp3059
(I68
I127
tp3060
a(I180
I954
tp3061
a(I4
I233
tp3062
a(I32
I154
tp3063
a(I215
I421
tp3064
a(I52
I214
tp3065
a(I22
I299
tp3066
a(I9
I898
tp3067
a(I4
I552
tp3068
a(I164
I856
tp3069
aa(lp3070
(I79
I723
tp3071
a(I87
I312
tp3072
a(I363
I832
tp3073
a(I71
I602
tp3074
a(I176
I614
tp3075
a(I100
I690
tp3076
a(I38
I568
tp3077
a(I119
I427
tp3078
a(I7
I515
tp3079
a(I145
I565
tp3080
aa(lp3081
(I16
I167
tp3082
a(I6
I161
tp3083
a(I181
I636
tp3084
a(I91
I199
tp3085
a(I31
I605
tp3086
a(I195
I861
tp3087
a(I41
I428
tp3088
a(I88
I228
tp3089
a(I170
I737
tp3090
a(I97
I817
tp3091
aa(lp3092
(I155
I593
tp3093
a(I18
I194
tp3094
a(I107
I837
tp3095
a(I65
I464
tp3096
a(I259
I337
tp3097
a(I77
I599
tp3098
a(I72
I859
tp3099
a(I28
I211
tp3100
a(I24
I281
tp3101
a(I110
I675
tp3102
aa(lp3103
(I205
I553
tp3104
a(I37
I657
tp3105
a(I104
I961
tp3106
a(I69
I205
tp3107
a(I326
I705
tp3108
a(I55
I583
tp3109
a(I44
I558
tp3110
a(I11
I374
tp3111
a(I128
I461
tp3112
a(I57
I329
tp3113
aa(lp3114
(I338
I914
tp3115
a(I23
I860
tp3116
a(I6
I619
tp3117
a(I356
I717
tp3118
a(I68
I677
tp3119
a(I59
I561
tp3120
a(I123
I270
tp3121
a(I13
I541
tp3122
a(I117
I506
tp3123
a(I120
I716
tp3124
aa(lp3125
(I4
I644
tp3126
a(I60
I902
tp3127
a(I136
I227
tp3128
a(I45
I391
tp3129
a(I27
I370
tp3130
a(I128
I701
tp3131
a(I23
I150
tp3132
a(I4
I432
tp3133
a(I144
I450
tp3134
a(I226
I486
tp3135
aa(lp3136
(I160
I768
tp3137
a(I13
I246
tp3138
a(I383
I646
tp3139
a(I73
I202
tp3140
a(I104
I546
tp3141
a(I21
I301
tp3142
a(I10
I285
tp3143
a(I29
I139
tp3144
a(I102
I456
tp3145
a(I6
I146
tp3146
aa(lp3147
(I90
I992
tp3148
a(I50
I342
tp3149
a(I41
I608
tp3150
a(I239
I689
tp3151
a(I35
I513
tp3152
a(I166
I439
tp3153
a(I451
I981
tp3154
a(I77
I619
tp3155
a(I174
I847
tp3156
a(I72
I689
tp3157
aa(lp3158
(I28
I136
tp3159
a(I41
I250
tp3160
a(I33
I561
tp3161
a(I14
I441
tp3162
a(I10
I337
tp3163
a(I141
I617
tp3164
a(I22
I638
tp3165
a(I285
I336
tp3166
a(I50
I167
tp3167
a(I78
I946
tp3168
aa(lp3169
(I111
I779
tp3170
a(I54
I886
tp3171
a(I34
I333
tp3172
a(I128
I728
tp3173
a(I431
I990
tp3174
a(I41
I260
tp3175
a(I302
I599
tp3176
a(I6
I362
tp3177
a(I200
I694
tp3178
a(I21
I196
tp3179
aa(lp3180
(I11
I239
tp3181
a(I30
I124
tp3182
a(I15
I239
tp3183
a(I100
I311
tp3184
a(I403
I653
tp3185
a(I60
I442
tp3186
a(I33
I305
tp3187
a(I29
I376
tp3188
a(I20
I730
tp3189
a(I324
I935
tp3190
aa(lp3191
(I139
I691
tp3192
a(I117
I808
tp3193
a(I105
I415
tp3194
a(I64
I265
tp3195
a(I25
I581
tp3196
a(I152
I580
tp3197
a(I20
I121
tp3198
a(I268
I657
tp3199
a(I162
I722
tp3200
a(I33
I759
tp3201
aa(lp3202
(I119
I495
tp3203
a(I254
I867
tp3204
a(I75
I950
tp3205
a(I200
I482
tp3206
a(I51
I362
tp3207
a(I62
I595
tp3208
a(I1
I173
tp3209
a(I2
I266
tp3210
a(I115
I556
tp3211
a(I431
I864
tp3212
aa(lp3213
(I17
I147
tp3214
a(I126
I902
tp3215
a(I20
I148
tp3216
a(I331
I999
tp3217
a(I51
I644
tp3218
a(I268
I809
tp3219
a(I154
I518
tp3220
a(I56
I119
tp3221
a(I19
I664
tp3222
a(I38
I718
tp3223
aa(lp3224
(I297
I979
tp3225
a(I64
I449
tp3226
a(I8
I168
tp3227
a(I60
I263
tp3228
a(I5
I316
tp3229
a(I61
I451
tp3230
a(I190
I569
tp3231
a(I25
I170
tp3232
a(I212
I639
tp3233
a(I194
I654
tp3234
aa(lp3235
(I325
I966
tp3236
a(I61
I253
tp3237
a(I48
I255
tp3238
a(I127
I648
tp3239
a(I149
I893
tp3240
a(I10
I598
tp3241
a(I23
I179
tp3242
a(I42
I393
tp3243
a(I188
I633
tp3244
a(I85
I273
tp3245
aa(lp3246
(I104
I680
tp3247
a(I14
I162
tp3248
a(I292
I853
tp3249
a(I304
I473
tp3250
a(I82
I599
tp3251
a(I34
I263
tp3252
a(I313
I972
tp3253
a(I80
I584
tp3254
a(I1
I150
tp3255
a(I11
I309
tp3256
aa(lp3257
(I13
I965
tp3258
a(I92
I789
tp3259
a(I88
I311
tp3260
a(I230
I962
tp3261
a(I46
I304
tp3262
a(I38
I405
tp3263
a(I222
I761
tp3264
a(I226
I507
tp3265
a(I168
I494
tp3266
a(I10
I633
tp3267
aa(lp3268
(I190
I953
tp3269
a(I100
I467
tp3270
a(I18
I237
tp3271
a(I183
I863
tp3272
a(I47
I437
tp3273
a(I16
I133
tp3274
a(I66
I673
tp3275
a(I169
I691
tp3276
a(I90
I745
tp3277
a(I113
I191
tp3278
aa(lp3279
(I162
I556
tp3280
a(I35
I785
tp3281
a(I2
I306
tp3282
a(I526
I899
tp3283
a(I11
I498
tp3284
a(I190
I907
tp3285
a(I12
I731
tp3286
a(I21
I466
tp3287
a(I321
I623
tp3288
a(I147
I575
tp3289
aa(lp3290
(I215
I539
tp3291
a(I330
I731
tp3292
a(I168
I702
tp3293
a(I49
I885
tp3294
a(I18
I258
tp3295
a(I94
I256
tp3296
a(I17
I561
tp3297
a(I10
I885
tp3298
a(I323
I883
tp3299
a(I1
I951
tp3300
aa(lp3301
(I50
I505
tp3302
a(I17
I183
tp3303
a(I3
I909
tp3304
a(I87
I932
tp3305
a(I205
I254
tp3306
a(I145
I816
tp3307
a(I23
I157
tp3308
a(I104
I653
tp3309
a(I159
I413
tp3310
a(I21
I792
tp3311
aa(lp3312
(I57
I659
tp3313
a(I442
I783
tp3314
a(I19
I224
tp3315
a(I4
I853
tp3316
a(I205
I624
tp3317
a(I27
I462
tp3318
a(I68
I299
tp3319
a(I28
I717
tp3320
a(I233
I529
tp3321
a(I64
I410
tp3322
aa(lp3323
(I535
I654
tp3324
a(I149
I783
tp3325
a(I98
I831
tp3326
a(I70
I810
tp3327
a(I7
I446
tp3328
a(I34
I996
tp3329
a(I154
I720
tp3330
a(I10
I306
tp3331
a(I316
I765
tp3332
a(I31
I445
tp3333
aa(lp3334
(I89
I783
tp3335
a(I292
I779
tp3336
a(I27
I309
tp3337
a(I526
I957
tp3338
a(I38
I250
tp3339
a(I228
I860
tp3340
a(I111
I772
tp3341
a(I44
I189
tp3342
a(I61
I876
tp3343
a(I1
I883
tp3344
aa(lp3345
(I106
I541
tp3346
a(I11
I103
tp3347
a(I2
I135
tp3348
a(I49
I497
tp3349
a(I45
I417
tp3350
a(I42
I577
tp3351
a(I415
I630
tp3352
a(I77
I284
tp3353
a(I283
I723
tp3354
a(I51
I762
tp3355
aa(lp3356
(I206
I524
tp3357
a(I283
I835
tp3358
a(I22
I862
tp3359
a(I229
I465
tp3360
a(I60
I946
tp3361
a(I70
I548
tp3362
a(I15
I208
tp3363
a(I86
I900
tp3364
a(I29
I334
tp3365
a(I62
I213
tp3366
aa(lp3367
(I9
I759
tp3368
a(I25
I110
tp3369
a(I198
I712
tp3370
a(I116
I675
tp3371
a(I231
I882
tp3372
a(I59
I609
tp3373
a(I278
I725
tp3374
a(I28
I200
tp3375
a(I245
I1000
tp3376
a(I118
I683
tp3377
aa(lp3378
(I105
I762
tp3379
a(I267
I805
tp3380
a(I66
I766
tp3381
a(I2
I573
tp3382
a(I308
I776
tp3383
a(I160
I939
tp3384
a(I26
I718
tp3385
a(I101
I449
tp3386
a(I14
I630
tp3387
a(I377
I645
tp3388
aa(lp3389
(I154
I780
tp3390
a(I169
I947
tp3391
a(I40
I669
tp3392
a(I15
I949
tp3393
a(I304
I938
tp3394
a(I198
I949
tp3395
a(I239
I785
tp3396
a(I47
I890
tp3397
a(I90
I188
tp3398
a(I120
I708
tp3399
aa(lp3400
(I53
I207
tp3401
a(I93
I334
tp3402
a(I576
I913
tp3403
a(I54
I621
tp3404
a(I154
I929
tp3405
a(I72
I711
tp3406
a(I221
I659
tp3407
a(I58
I440
tp3408
a(I1
I814
tp3409
a(I1
I324
tp3410
aa(lp3411
(I114
I368
tp3412
a(I208
I696
tp3413
a(I55
I642
tp3414
a(I57
I568
tp3415
a(I101
I272
tp3416
a(I166
I757
tp3417
a(I207
I568
tp3418
a(I6
I902
tp3419
a(I23
I148
tp3420
a(I45
I593
tp3421
aa(lp3422
(I27
I113
tp3423
a(I76
I613
tp3424
a(I34
I153
tp3425
a(I11
I111
tp3426
a(I48
I407
tp3427
a(I56
I230
tp3428
a(I103
I669
tp3429
a(I101
I323
tp3430
a(I75
I233
tp3431
a(I106
I760
tp3432
aa(lp3433
(I225
I546
tp3434
a(I109
I313
tp3435
a(I1
I169
tp3436
a(I30
I340
tp3437
a(I67
I834
tp3438
a(I303
I507
tp3439
a(I71
I431
tp3440
a(I59
I463
tp3441
a(I111
I703
tp3442
a(I1
I101
tp3443
aa(lp3444
(I51
I218
tp3445
a(I114
I513
tp3446
a(I54
I230
tp3447
a(I78
I610
tp3448
a(I165
I508
tp3449
a(I355
I806
tp3450
a(I189
I579
tp3451
a(I18
I910
tp3452
a(I18
I316
tp3453
a(I1
I604
tp3454
aa(lp3455
(I51
I728
tp3456
a(I24
I808
tp3457
a(I1
I324
tp3458
a(I393
I870
tp3459
a(I300
I572
tp3460
a(I211
I945
tp3461
a(I36
I526
tp3462
a(I7
I300
tp3463
a(I333
I912
tp3464
a(I34
I146
tp3465
aa(lp3466
(I23
I223
tp3467
a(I39
I502
tp3468
a(I584
I865
tp3469
a(I219
I656
tp3470
a(I85
I793
tp3471
a(I68
I849
tp3472
a(I19
I190
tp3473
a(I7
I875
tp3474
a(I60
I211
tp3475
a(I25
I120
tp3476
aa(lp3477
(I831
I917
tp3478
a(I7
I219
tp3479
a(I2
I762
tp3480
a(I41
I734
tp3481
a(I8
I277
tp3482
a(I15
I102
tp3483
a(I63
I696
tp3484
a(I605
I959
tp3485
a(I25
I281
tp3486
a(I1
I342
tp3487
aa(lp3488
(I60
I249
tp3489
a(I47
I629
tp3490
a(I5
I794
tp3491
a(I38
I385
tp3492
a(I39
I471
tp3493
a(I26
I234
tp3494
a(I522
I816
tp3495
a(I182
I871
tp3496
a(I43
I144
tp3497
a(I136
I593
tp3498
aa(lp3499
(I8
I121
tp3500
a(I36
I924
tp3501
a(I15
I546
tp3502
a(I358
I813
tp3503
a(I71
I391
tp3504
a(I47
I555
tp3505
a(I2
I689
tp3506
a(I265
I482
tp3507
a(I407
I804
tp3508
a(I70
I750
tp3509
aa(lp3510
(I123
I789
tp3511
a(I93
I659
tp3512
a(I176
I296
tp3513
a(I17
I433
tp3514
a(I26
I228
tp3515
a(I5
I834
tp3516
a(I19
I206
tp3517
a(I105
I950
tp3518
a(I78
I321
tp3519
a(I235
I481
tp3520
aa(lp3521
(I57
I936
tp3522
a(I40
I535
tp3523
a(I138
I471
tp3524
a(I111
I212
tp3525
a(I51
I466
tp3526
a(I179
I760
tp3527
a(I91
I732
tp3528
a(I56
I683
tp3529
a(I18
I322
tp3530
a(I234
I547
tp3531
aa(lp3532
(I36
I523
tp3533
a(I175
I669
tp3534
a(I376
I803
tp3535
a(I1
I687
tp3536
a(I26
I416
tp3537
a(I214
I709
tp3538
a(I215
I820
tp3539
a(I36
I895
tp3540
a(I9
I849
tp3541
a(I410
I794
tp3542
aa(lp3543
(I49
I883
tp3544
a(I24
I473
tp3545
a(I83
I722
tp3546
a(I232
I670
tp3547
a(I272
I499
tp3548
a(I26
I391
tp3549
a(I77
I784
tp3550
a(I161
I951
tp3551
a(I176
I968
tp3552
a(I353
I974
tp3553
aa(lp3554
(I221
I901
tp3555
a(I187
I860
tp3556
a(I117
I186
tp3557
a(I148
I779
tp3558
a(I477
I943
tp3559
a(I18
I384
tp3560
a(I8
I272
tp3561
a(I1
I108
tp3562
a(I27
I254
tp3563
a(I3
I584
tp3564
aa(lp3565
(I39
I166
tp3566
a(I767
I804
tp3567
a(I6
I501
tp3568
a(I2
I297
tp3569
a(I22
I349
tp3570
a(I9
I297
tp3571
a(I52
I327
tp3572
a(I21
I142
tp3573
a(I61
I465
tp3574
a(I112
I467
tp3575
aa(lp3576
(I1
I211
tp3577
a(I511
I701
tp3578
a(I42
I268
tp3579
a(I57
I984
tp3580
a(I57
I717
tp3581
a(I24
I418
tp3582
a(I85
I280
tp3583
a(I158
I433
tp3584
a(I35
I975
tp3585
a(I57
I289
tp3586
aa(lp3587
(I158
I295
tp3588
a(I12
I183
tp3589
a(I156
I960
tp3590
a(I4
I705
tp3591
a(I42
I611
tp3592
a(I2
I571
tp3593
a(I5
I307
tp3594
a(I398
I892
tp3595
a(I237
I959
tp3596
a(I176
I403
tp3597
aa(lp3598
(I20
I540
tp3599
a(I89
I419
tp3600
a(I30
I505
tp3601
a(I87
I527
tp3602
a(I274
I768
tp3603
a(I32
I253
tp3604
a(I66
I483
tp3605
a(I74
I600
tp3606
a(I3
I191
tp3607
a(I615
I814
tp3608
aa(lp3609
(I3
I638
tp3610
a(I170
I380
tp3611
a(I102
I160
tp3612
a(I17
I683
tp3613
a(I44
I210
tp3614
a(I102
I291
tp3615
a(I11
I484
tp3616
a(I49
I441
tp3617
a(I78
I788
tp3618
a(I76
I996
tp3619
aa(lp3620
(I97
I572
tp3621
a(I34
I233
tp3622
a(I1
I317
tp3623
a(I95
I435
tp3624
a(I212
I724
tp3625
a(I147
I583
tp3626
a(I16
I453
tp3627
a(I300
I484
tp3628
a(I85
I553
tp3629
a(I92
I927
tp3630
aa(lp3631
(I27
I178
tp3632
a(I207
I373
tp3633
a(I42
I868
tp3634
a(I133
I392
tp3635
a(I37
I552
tp3636
a(I158
I661
tp3637
a(I36
I280
tp3638
a(I4
I163
tp3639
a(I246
I867
tp3640
a(I80
I523
tp3641
aa(lp3642
(I32
I632
tp3643
a(I10
I369
tp3644
a(I415
I844
tp3645
a(I41
I623
tp3646
a(I29
I150
tp3647
a(I421
I848
tp3648
a(I85
I757
tp3649
a(I33
I773
tp3650
a(I83
I966
tp3651
a(I65
I152
tp3652
aa(lp3653
(I164
I284
tp3654
a(I68
I610
tp3655
a(I593
I917
tp3656
a(I1
I956
tp3657
a(I186
I695
tp3658
a(I20
I346
tp3659
a(I35
I801
tp3660
a(I1
I145
tp3661
a(I16
I265
tp3662
a(I108
I488
tp3663
aa(lp3664
(I64
I676
tp3665
a(I289
I703
tp3666
a(I26
I830
tp3667
a(I7
I854
tp3668
a(I79
I493
tp3669
a(I88
I575
tp3670
a(I170
I891
tp3671
a(I286
I570
tp3672
a(I117
I536
tp3673
a(I117
I526
tp3674
aa(lp3675
(I91
I727
tp3676
a(I21
I273
tp3677
a(I33
I501
tp3678
a(I49
I512
tp3679
a(I12
I928
tp3680
a(I9
I109
tp3681
a(I226
I420
tp3682
a(I542
I637
tp3683
a(I13
I101
tp3684
a(I6
I896
tp3685
aa(lp3686
(I24
I588
tp3687
a(I31
I235
tp3688
a(I70
I982
tp3689
a(I58
I245
tp3690
a(I8
I112
tp3691
a(I304
I742
tp3692
a(I459
I947
tp3693
a(I11
I162
tp3694
a(I227
I689
tp3695
a(I82
I576
tp3696
aa(lp3697
(I37
I182
tp3698
a(I267
I666
tp3699
a(I54
I586
tp3700
a(I33
I237
tp3701
a(I131
I944
tp3702
a(I8
I173
tp3703
a(I49
I188
tp3704
a(I112
I762
tp3705
a(I149
I364
tp3706
a(I108
I716
tp3707
aa(lp3708
(I1
I384
tp3709
a(I145
I728
tp3710
a(I15
I715
tp3711
a(I27
I241
tp3712
a(I527
I830
tp3713
a(I157
I667
tp3714
a(I113
I918
tp3715
a(I159
I809
tp3716
a(I106
I304
tp3717
a(I25
I218
tp3718
aa(lp3719
(I26
I367
tp3720
a(I78
I871
tp3721
a(I405
I750
tp3722
a(I35
I201
tp3723
a(I38
I300
tp3724
a(I173
I739
tp3725
a(I32
I891
tp3726
a(I317
I863
tp3727
a(I94
I400
tp3728
a(I69
I587
tp3729
aa(lp3730
(I20
I257
tp3731
a(I33
I268
tp3732
a(I155
I482
tp3733
a(I1
I594
tp3734
a(I5
I843
tp3735
a(I450
I639
tp3736
a(I164
I971
tp3737
a(I18
I456
tp3738
a(I178
I472
tp3739
a(I102
I603
tp3740
aa(lp3741
(I171
I751
tp3742
a(I189
I563
tp3743
a(I153
I641
tp3744
a(I423
I835
tp3745
a(I3
I174
tp3746
a(I114
I862
tp3747
a(I77
I961
tp3748
a(I129
I574
tp3749
a(I53
I756
tp3750
a(I19
I122
tp3751
aa(lp3752
(I203
I403
tp3753
a(I4
I119
tp3754
a(I388
I740
tp3755
a(I55
I516
tp3756
a(I43
I359
tp3757
a(I6
I293
tp3758
a(I8
I904
tp3759
a(I7
I879
tp3760
a(I52
I370
tp3761
a(I61
I119
tp3762
aa(lp3763
(I105
I242
tp3764
a(I95
I278
tp3765
a(I112
I444
tp3766
a(I73
I661
tp3767
a(I6
I415
tp3768
a(I22
I459
tp3769
a(I41
I425
tp3770
a(I474
I986
tp3771
a(I72
I371
tp3772
a(I12
I682
tp3773
aa(lp3774
(I14
I837
tp3775
a(I185
I956
tp3776
a(I727
I859
tp3777
a(I23
I134
tp3778
a(I52
I415
tp3779
a(I9
I161
tp3780
a(I16
I490
tp3781
a(I31
I423
tp3782
a(I48
I387
tp3783
a(I56
I165
tp3784
aa(lp3785
(I152
I599
tp3786
a(I9
I941
tp3787
a(I183
I974
tp3788
a(I61
I230
tp3789
a(I340
I790
tp3790
a(I7
I294
tp3791
a(I34
I243
tp3792
a(I38
I132
tp3793
a(I192
I660
tp3794
a(I17
I185
tp3795
aa(lp3796
(I703
I931
tp3797
a(I65
I333
tp3798
a(I3
I109
tp3799
a(I41
I182
tp3800
a(I112
I972
tp3801
a(I16
I801
tp3802
a(I30
I707
tp3803
a(I136
I868
tp3804
a(I166
I509
tp3805
a(I121
I993
tp3806
aa(lp3807
(I80
I837
tp3808
a(I5
I334
tp3809
a(I267
I889
tp3810
a(I36
I798
tp3811
a(I339
I450
tp3812
a(I360
I804
tp3813
a(I4
I380
tp3814
a(I3
I350
tp3815
a(I134
I590
tp3816
a(I33
I374
tp3817
aa(lp3818
(I41
I316
tp3819
a(I31
I461
tp3820
a(I171
I586
tp3821
a(I280
I941
tp3822
a(I7
I503
tp3823
a(I51
I231
tp3824
a(I401
I655
tp3825
a(I15
I899
tp3826
a(I73
I299
tp3827
a(I77
I820
tp3828
aa(lp3829
(I343
I429
tp3830
a(I418
I966
tp3831
a(I16
I239
tp3832
a(I145
I973
tp3833
a(I31
I229
tp3834
a(I42
I267
tp3835
a(I93
I909
tp3836
a(I1
I746
tp3837
a(I53
I802
tp3838
a(I57
I715
tp3839
aa(lp3840
(I41
I914
tp3841
a(I25
I267
tp3842
a(I36
I218
tp3843
a(I121
I425
tp3844
a(I1
I229
tp3845
a(I87
I512
tp3846
a(I171
I240
tp3847
a(I113
I362
tp3848
a(I1
I108
tp3849
a(I126
I675
tp3850
aa(lp3851
(I80
I725
tp3852
a(I34
I805
tp3853
a(I122
I688
tp3854
a(I408
I616
tp3855
a(I51
I374
tp3856
a(I224
I964
tp3857
a(I31
I439
tp3858
a(I21
I177
tp3859
a(I49
I134
tp3860
a(I50
I720
tp3861
aa(lp3862
(I79
I308
tp3863
a(I72
I461
tp3864
a(I124
I862
tp3865
a(I48
I661
tp3866
a(I288
I837
tp3867
a(I134
I571
tp3868
a(I111
I535
tp3869
a(I3
I615
tp3870
a(I68
I266
tp3871
a(I155
I490
tp3872
aa(lp3873
(I21
I233
tp3874
a(I3
I303
tp3875
a(I207
I600
tp3876
a(I478
I953
tp3877
a(I225
I779
tp3878
a(I77
I943
tp3879
a(I62
I136
tp3880
a(I104
I757
tp3881
a(I2
I150
tp3882
a(I57
I916
tp3883
aa(lp3884
(I70
I183
tp3885
a(I264
I411
tp3886
a(I2
I487
tp3887
a(I102
I529
tp3888
a(I17
I841
tp3889
a(I37
I711
tp3890
a(I10
I402
tp3891
a(I574
I889
tp3892
a(I19
I788
tp3893
a(I1
I487
tp3894
aa(lp3895
(I8
I527
tp3896
a(I36
I836
tp3897
a(I108
I713
tp3898
a(I7
I802
tp3899
a(I484
I894
tp3900
a(I47
I732
tp3901
a(I19
I326
tp3902
a(I6
I707
tp3903
a(I362
I370
tp3904
a(I41
I337
tp3905
aa(lp3906
(I33
I199
tp3907
a(I1
I464
tp3908
a(I110
I507
tp3909
a(I126
I291
tp3910
a(I257
I675
tp3911
a(I68
I265
tp3912
a(I189
I819
tp3913
a(I23
I424
tp3914
a(I157
I727
tp3915
a(I27
I872
tp3916
aa(lp3917
(I79
I832
tp3918
a(I78
I480
tp3919
a(I166
I766
tp3920
a(I123
I473
tp3921
a(I188
I879
tp3922
a(I121
I403
tp3923
a(I113
I607
tp3924
a(I12
I674
tp3925
a(I23
I347
tp3926
a(I359
I761
tp3927
aa(lp3928
(I277
I555
tp3929
a(I51
I677
tp3930
a(I36
I296
tp3931
a(I31
I713
tp3932
a(I278
I815
tp3933
a(I16
I153
tp3934
a(I27
I213
tp3935
a(I50
I123
tp3936
a(I64
I781
tp3937
a(I167
I916
tp3938
aa(lp3939
(I27
I817
tp3940
a(I98
I268
tp3941
a(I89
I529
tp3942
a(I33
I734
tp3943
a(I1
I264
tp3944
a(I81
I231
tp3945
a(I5
I187
tp3946
a(I316
I693
tp3947
a(I256
I843
tp3948
a(I238
I977
tp3949
aa(lp3950
(I379
I571
tp3951
a(I72
I580
tp3952
a(I101
I920
tp3953
a(I22
I545
tp3954
a(I33
I330
tp3955
a(I47
I220
tp3956
a(I64
I724
tp3957
a(I59
I584
tp3958
a(I182
I969
tp3959
a(I103
I284
tp3960
aa(lp3961
(I6
I849
tp3962
a(I114
I887
tp3963
a(I100
I487
tp3964
a(I69
I969
tp3965
a(I325
I923
tp3966
a(I19
I193
tp3967
a(I241
I736
tp3968
a(I105
I721
tp3969
a(I243
I480
tp3970
a(I46
I312
tp3971
aa(lp3972
(I16
I161
tp3973
a(I4
I402
tp3974
a(I168
I456
tp3975
a(I6
I413
tp3976
a(I8
I496
tp3977
a(I1
I507
tp3978
a(I56
I141
tp3979
a(I129
I439
tp3980
a(I469
I614
tp3981
a(I24
I913
tp3982
aa(lp3983
(I185
I543
tp3984
a(I101
I336
tp3985
a(I4
I604
tp3986
a(I36
I293
tp3987
a(I40
I298
tp3988
a(I42
I919
tp3989
a(I100
I500
tp3990
a(I112
I227
tp3991
a(I65
I629
tp3992
a(I73
I309
tp3993
aa(lp3994
(I101
I372
tp3995
a(I92
I714
tp3996
a(I65
I519
tp3997
a(I91
I531
tp3998
a(I99
I505
tp3999
a(I7
I181
tp4000
a(I17
I776
tp4001
a(I15
I504
tp4002
a(I236
I690
tp4003
a(I536
I803
tp4004
aa(lp4005
(I2
I231
tp4006
a(I38
I168
tp4007
a(I95
I871
tp4008
a(I15
I773
tp4009
a(I95
I266
tp4010
a(I18
I624
tp4011
a(I94
I125
tp4012
a(I9
I120
tp4013
a(I141
I437
tp4014
a(I38
I470
tp4015
aa(lp4016
(I102
I926
tp4017
a(I56
I323
tp4018
a(I112
I141
tp4019
a(I11
I515
tp4020
a(I10
I820
tp4021
a(I10
I112
tp4022
a(I154
I912
tp4023
a(I207
I649
tp4024
a(I101
I350
tp4025
a(I1
I759
tp4026
aa(lp4027
(I290
I770
tp4028
a(I42
I297
tp4029
a(I245
I786
tp4030
a(I232
I635
tp4031
a(I5
I305
tp4032
a(I11
I179
tp4033
a(I41
I123
tp4034
a(I8
I131
tp4035
a(I228
I856
tp4036
a(I7
I146
tp4037
aa(lp4038
(I467
I842
tp4039
a(I136
I492
tp4040
a(I17
I267
tp4041
a(I138
I625
tp4042
a(I253
I889
tp4043
a(I34
I176
tp4044
a(I2
I379
tp4045
a(I20
I454
tp4046
a(I63
I213
tp4047
a(I23
I533
tp4048
aa(lp4049
(I127
I488
tp4050
a(I32
I878
tp4051
a(I176
I526
tp4052
a(I200
I500
tp4053
a(I150
I972
tp4054
a(I11
I835
tp4055
a(I153
I896
tp4056
a(I351
I997
tp4057
a(I191
I850
tp4058
a(I19
I423
tp4059
aa(lp4060
(I77
I893
tp4061
a(I19
I782
tp4062
a(I160
I519
tp4063
a(I32
I211
tp4064
a(I26
I230
tp4065
a(I138
I856
tp4066
a(I163
I470
tp4067
a(I105
I530
tp4068
a(I421
I806
tp4069
a(I20
I248
tp4070
aa(lp4071
(I92
I631
tp4072
a(I11
I572
tp4073
a(I280
I699
tp4074
a(I133
I604
tp4075
a(I158
I276
tp4076
a(I77
I404
tp4077
a(I149
I691
tp4078
a(I16
I769
tp4079
a(I143
I890
tp4080
a(I20
I472
tp4081
aa(lp4082
(I43
I927
tp4083
a(I245
I722
tp4084
a(I17
I135
tp4085
a(I212
I622
tp4086
a(I38
I763
tp4087
a(I2
I286
tp4088
a(I26
I348
tp4089
a(I103
I638
tp4090
a(I91
I131
tp4091
a(I27
I191
tp4092
aa(lp4093
(I287
I863
tp4094
a(I4
I652
tp4095
a(I470
I841
tp4096
a(I81
I927
tp4097
a(I288
I882
tp4098
a(I9
I797
tp4099
a(I117
I875
tp4100
a(I145
I873
tp4101
a(I7
I646
tp4102
a(I297
I826
tp4103
aa(lp4104
(I23
I463
tp4105
a(I222
I493
tp4106
a(I249
I798
tp4107
a(I82
I764
tp4108
a(I40
I154
tp4109
a(I65
I143
tp4110
a(I56
I820
tp4111
a(I12
I150
tp4112
a(I26
I766
tp4113
a(I101
I607
tp4114
aa(lp4115
(I19
I943
tp4116
a(I486
I628
tp4117
a(I66
I235
tp4118
a(I24
I974
tp4119
a(I30
I498
tp4120
a(I13
I521
tp4121
a(I279
I847
tp4122
a(I60
I283
tp4123
a(I114
I457
tp4124
a(I9
I681
tp4125
aa(lp4126
(I62
I535
tp4127
a(I3
I245
tp4128
a(I171
I890
tp4129
a(I169
I493
tp4130
a(I55
I971
tp4131
a(I6
I321
tp4132
a(I23
I107
tp4133
a(I172
I896
tp4134
a(I358
I840
tp4135
a(I394
I957
tp4136
aa(lp4137
(I9
I993
tp4138
a(I191
I485
tp4139
a(I123
I240
tp4140
a(I123
I814
tp4141
a(I47
I468
tp4142
a(I170
I528
tp4143
a(I32
I223
tp4144
a(I4
I567
tp4145
a(I79
I380
tp4146
a(I116
I824
tp4147
aa(lp4148
(I5
I289
tp4149
a(I26
I188
tp4150
a(I160
I427
tp4151
a(I2
I211
tp4152
a(I46
I585
tp4153
a(I3
I159
tp4154
a(I869
I952
tp4155
a(I79
I941
tp4156
a(I104
I454
tp4157
a(I118
I974
tp4158
aa(lp4159
(I38
I226
tp4160
a(I46
I921
tp4161
a(I73
I395
tp4162
a(I9
I718
tp4163
a(I164
I980
tp4164
a(I5
I180
tp4165
a(I401
I834
tp4166
a(I308
I359
tp4167
a(I1
I167
tp4168
a(I9
I309
tp4169
aa(lp4170
(I233
I792
tp4171
a(I324
I795
tp4172
a(I31
I768
tp4173
a(I84
I990
tp4174
a(I96
I250
tp4175
a(I198
I901
tp4176
a(I141
I729
tp4177
a(I16
I180
tp4178
a(I77
I783
tp4179
a(I121
I679
tp4180
aa(lp4181
(I88
I978
tp4182
a(I48
I521
tp4183
a(I98
I453
tp4184
a(I301
I706
tp4185
a(I1
I435
tp4186
a(I131
I655
tp4187
a(I30
I375
tp4188
a(I88
I154
tp4189
a(I35
I148
tp4190
a(I21
I300
tp4191
aa(lp4192
(I67
I817
tp4193
a(I345
I822
tp4194
a(I112
I974
tp4195
a(I77
I393
tp4196
a(I2
I141
tp4197
a(I57
I545
tp4198
a(I51
I202
tp4199
a(I91
I523
tp4200
a(I58
I431
tp4201
a(I164
I333
tp4202
aa(lp4203
(I119
I539
tp4204
a(I7
I212
tp4205
a(I312
I849
tp4206
a(I11
I135
tp4207
a(I1
I701
tp4208
a(I149
I808
tp4209
a(I61
I400
tp4210
a(I85
I269
tp4211
a(I177
I713
tp4212
a(I276
I715
tp4213
aa(lp4214
(I127
I592
tp4215
a(I526
I815
tp4216
a(I218
I462
tp4217
a(I138
I884
tp4218
a(I19
I888
tp4219
a(I6
I881
tp4220
a(I189
I929
tp4221
a(I10
I207
tp4222
a(I74
I595
tp4223
a(I44
I444
tp4224
aa(lp4225
(I601
I663
tp4226
a(I3
I268
tp4227
a(I2
I673
tp4228
a(I63
I232
tp4229
a(I40
I225
tp4230
a(I7
I557
tp4231
a(I114
I577
tp4232
a(I22
I982
tp4233
a(I206
I811
tp4234
a(I25
I192
tp4235
aa(lp4236
(I20
I266
tp4237
a(I75
I585
tp4238
a(I80
I536
tp4239
a(I59
I215
tp4240
a(I128
I576
tp4241
a(I47
I151
tp4242
a(I122
I434
tp4243
a(I59
I422
tp4244
a(I60
I737
tp4245
a(I102
I312
tp4246
aa(lp4247
(I11
I738
tp4248
a(I8
I184
tp4249
a(I2
I290
tp4250
a(I49
I563
tp4251
a(I487
I954
tp4252
a(I575
I849
tp4253
a(I26
I322
tp4254
a(I140
I820
tp4255
a(I364
I962
tp4256
a(I14
I652
tp4257
aa(lp4258
(I184
I923
tp4259
a(I10
I263
tp4260
a(I143
I519
tp4261
a(I126
I885
tp4262
a(I28
I824
tp4263
a(I104
I316
tp4264
a(I114
I819
tp4265
a(I237
I643
tp4266
a(I31
I130
tp4267
a(I71
I319
tp4268
aa(lp4269
(I40
I175
tp4270
a(I13
I176
tp4271
a(I57
I656
tp4272
a(I350
I844
tp4273
a(I107
I921
tp4274
a(I19
I851
tp4275
a(I189
I548
tp4276
a(I119
I550
tp4277
a(I74
I303
tp4278
a(I151
I625
tp4279
aa(lp4280
(I118
I177
tp4281
a(I184
I552
tp4282
a(I21
I318
tp4283
a(I5
I805
tp4284
a(I39
I544
tp4285
a(I13
I843
tp4286
a(I80
I549
tp4287
a(I10
I683
tp4288
a(I41
I192
tp4289
a(I181
I404
tp4290
aa(lp4291
(I34
I682
tp4292
a(I2
I726
tp4293
a(I22
I332
tp4294
a(I170
I571
tp4295
a(I23
I504
tp4296
a(I174
I800
tp4297
a(I94
I177
tp4298
a(I227
I882
tp4299
a(I129
I299
tp4300
a(I69
I773
tp4301
aa(lp4302
(I341
I997
tp4303
a(I34
I266
tp4304
a(I171
I324
tp4305
a(I148
I370
tp4306
a(I53
I255
tp4307
a(I34
I722
tp4308
a(I38
I475
tp4309
a(I8
I136
tp4310
a(I1
I211
tp4311
a(I137
I717
tp4312
aa(lp4313
(I75
I742
tp4314
a(I174
I656
tp4315
a(I69
I508
tp4316
a(I21
I201
tp4317
a(I15
I960
tp4318
a(I40
I203
tp4319
a(I84
I800
tp4320
a(I502
I858
tp4321
a(I206
I973
tp4322
a(I118
I443
tp4323
aa(lp4324
(I10
I906
tp4325
a(I124
I354
tp4326
a(I368
I781
tp4327
a(I100
I857
tp4328
a(I9
I383
tp4329
a(I62
I327
tp4330
a(I13
I176
tp4331
a(I252
I728
tp4332
a(I158
I759
tp4333
a(I135
I692
tp4334
aa(lp4335
(I278
I975
tp4336
a(I43
I539
tp4337
a(I161
I671
tp4338
a(I311
I834
tp4339
a(I23
I858
tp4340
a(I36
I357
tp4341
a(I351
I865
tp4342
a(I78
I450
tp4343
a(I24
I291
tp4344
a(I147
I653
tp4345
aa(lp4346
(I73
I897
tp4347
a(I44
I166
tp4348
a(I147
I791
tp4349
a(I109
I337
tp4350
a(I400
I873
tp4351
a(I114
I885
tp4352
a(I37
I182
tp4353
a(I84
I484
tp4354
a(I53
I382
tp4355
a(I17
I655
tp4356
aa(lp4357
(I12
I233
tp4358
a(I477
I749
tp4359
a(I10
I635
tp4360
a(I245
I799
tp4361
a(I56
I430
tp4362
a(I67
I108
tp4363
a(I38
I662
tp4364
a(I31
I914
tp4365
a(I8
I919
tp4366
a(I22
I180
tp4367
aa(lp4368
(I42
I197
tp4369
a(I39
I751
tp4370
a(I61
I268
tp4371
a(I90
I687
tp4372
a(I113
I676
tp4373
a(I18
I235
tp4374
a(I220
I497
tp4375
a(I182
I686
tp4376
a(I31
I265
tp4377
a(I213
I731
tp4378
aa(lp4379
(I48
I507
tp4380
a(I203
I266
tp4381
a(I269
I996
tp4382
a(I44
I920
tp4383
a(I12
I279
tp4384
a(I27
I349
tp4385
a(I7
I155
tp4386
a(I70
I943
tp4387
a(I76
I260
tp4388
a(I198
I715
tp4389
aa(lp4390
(I119
I426
tp4391
a(I95
I401
tp4392
a(I119
I302
tp4393
a(I24
I820
tp4394
a(I7
I103
tp4395
a(I97
I341
tp4396
a(I27
I335
tp4397
a(I29
I141
tp4398
a(I35
I895
tp4399
a(I254
I686
tp4400
aa(lp4401
(I1
I428
tp4402
a(I1
I181
tp4403
a(I641
I696
tp4404
a(I16
I166
tp4405
a(I94
I141
tp4406
a(I39
I239
tp4407
a(I13
I560
tp4408
a(I2
I187
tp4409
a(I48
I936
tp4410
a(I8
I210
tp4411
aa(lp4412
(I200
I444
tp4413
a(I321
I643
tp4414
a(I125
I459
tp4415
a(I11
I954
tp4416
a(I32
I390
tp4417
a(I152
I430
tp4418
a(I5
I150
tp4419
a(I8
I356
tp4420
a(I33
I363
tp4421
a(I122
I704
tp4422
aa(lp4423
(I247
I519
tp4424
a(I80
I411
tp4425
a(I104
I355
tp4426
a(I32
I580
tp4427
a(I137
I567
tp4428
a(I2
I955
tp4429
a(I313
I556
tp4430
a(I8
I933
tp4431
a(I43
I356
tp4432
a(I5
I164
tp4433
aa(lp4434
(I116
I737
tp4435
a(I53
I331
tp4436
a(I127
I217
tp4437
a(I339
I939
tp4438
a(I159
I795
tp4439
a(I4
I275
tp4440
a(I92
I816
tp4441
a(I85
I713
tp4442
a(I66
I480
tp4443
a(I124
I865
tp4444
aa(lp4445
(I186
I494
tp4446
a(I14
I243
tp4447
a(I593
I736
tp4448
a(I5
I281
tp4449
a(I92
I652
tp4450
a(I3
I248
tp4451
a(I30
I215
tp4452
a(I23
I359
tp4453
a(I181
I863
tp4454
a(I88
I531
tp4455
aa(lp4456
(I140
I626
tp4457
a(I208
I611
tp4458
a(I73
I693
tp4459
a(I170
I234
tp4460
a(I65
I995
tp4461
a(I33
I927
tp4462
a(I25
I395
tp4463
a(I238
I649
tp4464
a(I26
I731
tp4465
a(I5
I191
tp4466
aa(lp4467
(I17
I805
tp4468
a(I264
I913
tp4469
a(I175
I834
tp4470
a(I93
I408
tp4471
a(I212
I631
tp4472
a(I169
I790
tp4473
a(I112
I767
tp4474
a(I9
I136
tp4475
a(I67
I344
tp4476
a(I103
I361
tp4477
aa(lp4478
(I602
I938
tp4479
a(I51
I770
tp4480
a(I1
I269
tp4481
a(I110
I616
tp4482
a(I23
I479
tp4483
a(I52
I736
tp4484
a(I5
I361
tp4485
a(I173
I577
tp4486
a(I112
I392
tp4487
a(I271
I707
tp4488
aa(lp4489
(I148
I898
tp4490
a(I67
I350
tp4491
a(I33
I452
tp4492
a(I158
I429
tp4493
a(I256
I767
tp4494
a(I71
I182
tp4495
a(I108
I800
tp4496
a(I23
I253
tp4497
a(I86
I907
tp4498
a(I50
I337
tp4499
aa(lp4500
(I16
I359
tp4501
a(I52
I454
tp4502
a(I340
I682
tp4503
a(I249
I844
tp4504
a(I4
I531
tp4505
a(I48
I635
tp4506
a(I318
I785
tp4507
a(I37
I660
tp4508
a(I46
I110
tp4509
a(I63
I861
tp4510
aa(lp4511
(I7
I313
tp4512
a(I45
I235
tp4513
a(I41
I531
tp4514
a(I6
I504
tp4515
a(I30
I996
tp4516
a(I536
I903
tp4517
a(I110
I278
tp4518
a(I43
I764
tp4519
a(I19
I152
tp4520
a(I143
I295
tp4521
aa(lp4522
(I78
I863
tp4523
a(I218
I917
tp4524
a(I70
I274
tp4525
a(I245
I769
tp4526
a(I201
I554
tp4527
a(I47
I128
tp4528
a(I53
I302
tp4529
a(I18
I529
tp4530
a(I7
I150
tp4531
a(I82
I824
tp4532
aa(lp4533
(I6
I547
tp4534
a(I135
I825
tp4535
a(I49
I154
tp4536
a(I116
I935
tp4537
a(I30
I183
tp4538
a(I37
I132
tp4539
a(I236
I958
tp4540
a(I141
I579
tp4541
a(I131
I857
tp4542
a(I182
I646
tp4543
aa(lp4544
(I162
I318
tp4545
a(I1
I685
tp4546
a(I38
I124
tp4547
a(I167
I936
tp4548
a(I99
I648
tp4549
a(I35
I396
tp4550
a(I36
I214
tp4551
a(I2
I149
tp4552
a(I109
I815
tp4553
a(I144
I336
tp4554
aa(lp4555
(I717
I993
tp4556
a(I81
I581
tp4557
a(I20
I356
tp4558
a(I19
I319
tp4559
a(I187
I936
tp4560
a(I6
I191
tp4561
a(I234
I468
tp4562
a(I31
I383
tp4563
a(I23
I205
tp4564
a(I14
I161
tp4565
aa(lp4566
(I358
I816
tp4567
a(I47
I456
tp4568
a(I1
I661
tp4569
a(I225
I818
tp4570
a(I20
I515
tp4571
a(I48
I956
tp4572
a(I7
I924
tp4573
a(I16
I657
tp4574
a(I211
I558
tp4575
a(I426
I629
tp4576
aa(lp4577
(I204
I359
tp4578
a(I8
I113
tp4579
a(I196
I573
tp4580
a(I92
I843
tp4581
a(I85
I712
tp4582
a(I10
I300
tp4583
a(I53
I674
tp4584
a(I136
I970
tp4585
a(I437
I864
tp4586
a(I18
I805
tp4587
aa(lp4588
(I5
I124
tp4589
a(I64
I246
tp4590
a(I24
I108
tp4591
a(I127
I534
tp4592
a(I393
I886
tp4593
a(I52
I600
tp4594
a(I228
I532
tp4595
a(I48
I513
tp4596
a(I88
I605
tp4597
a(I23
I996
tp4598
aa(lp4599
(I98
I499
tp4600
a(I175
I998
tp4601
a(I158
I494
tp4602
a(I76
I439
tp4603
a(I27
I190
tp4604
a(I185
I802
tp4605
a(I335
I980
tp4606
a(I79
I415
tp4607
a(I38
I181
tp4608
a(I4
I622
tp4609
aa(lp4610
(I106
I794
tp4611
a(I73
I654
tp4612
a(I32
I699
tp4613
a(I56
I286
tp4614
a(I147
I766
tp4615
a(I232
I511
tp4616
a(I142
I317
tp4617
a(I173
I785
tp4618
a(I104
I967
tp4619
a(I21
I256
tp4620
aa(lp4621
(I48
I175
tp4622
a(I6
I216
tp4623
a(I103
I512
tp4624
a(I97
I619
tp4625
a(I168
I558
tp4626
a(I79
I186
tp4627
a(I101
I731
tp4628
a(I42
I270
tp4629
a(I84
I316
tp4630
a(I19
I570
tp4631
aa(lp4632
(I75
I432
tp4633
a(I121
I470
tp4634
a(I40
I834
tp4635
a(I238
I945
tp4636
a(I874
I986
tp4637
a(I25
I505
tp4638
a(I22
I822
tp4639
a(I60
I917
tp4640
a(I26
I405
tp4641
a(I144
I849
tp4642
aa(lp4643
(I68
I916
tp4644
a(I210
I653
tp4645
a(I101
I453
tp4646
a(I91
I278
tp4647
a(I56
I740
tp4648
a(I68
I890
tp4649
a(I39
I308
tp4650
a(I113
I224
tp4651
a(I83
I499
tp4652
a(I83
I903
tp4653
aa(lp4654
(I74
I757
tp4655
a(I18
I857
tp4656
a(I57
I597
tp4657
a(I365
I947
tp4658
a(I91
I863
tp4659
a(I3
I275
tp4660
a(I367
I605
tp4661
a(I71
I197
tp4662
a(I118
I821
tp4663
a(I45
I280
tp4664
aa(lp4665
(I117
I353
tp4666
a(I124
I795
tp4667
a(I113
I381
tp4668
a(I5
I241
tp4669
a(I160
I842
tp4670
a(I99
I457
tp4671
a(I174
I938
tp4672
a(I155
I659
tp4673
a(I9
I337
tp4674
a(I47
I145
tp4675
aa(lp4676
(I123
I367
tp4677
a(I66
I697
tp4678
a(I331
I845
tp4679
a(I358
I985
tp4680
a(I41
I889
tp4681
a(I121
I505
tp4682
a(I206
I765
tp4683
a(I43
I255
tp4684
a(I14
I179
tp4685
a(I1
I973
tp4686
aa(lp4687
(I26
I651
tp4688
a(I168
I568
tp4689
a(I24
I112
tp4690
a(I271
I925
tp4691
a(I62
I835
tp4692
a(I203
I572
tp4693
a(I224
I643
tp4694
a(I13
I453
tp4695
a(I93
I459
tp4696
a(I95
I678
tp4697
aa(lp4698
(I14
I356
tp4699
a(I239
I971
tp4700
a(I95
I449
tp4701
a(I259
I465
tp4702
a(I78
I733
tp4703
a(I42
I637
tp4704
a(I3
I407
tp4705
a(I254
I437
tp4706
a(I27
I755
tp4707
a(I91
I645
tp4708
aa(lp4709
(I4
I350
tp4710
a(I129
I672
tp4711
a(I75
I594
tp4712
a(I318
I539
tp4713
a(I209
I461
tp4714
a(I72
I576
tp4715
a(I6
I255
tp4716
a(I163
I983
tp4717
a(I88
I731
tp4718
a(I24
I132
tp4719
aa(lp4720
(I73
I370
tp4721
a(I367
I941
tp4722
a(I50
I608
tp4723
a(I1
I921
tp4724
a(I597
I822
tp4725
a(I3
I121
tp4726
a(I38
I894
tp4727
a(I13
I734
tp4728
a(I176
I763
tp4729
a(I44
I158
tp4730
aa(lp4731
(I13
I218
tp4732
a(I49
I294
tp4733
a(I1
I348
tp4734
a(I114
I235
tp4735
a(I29
I220
tp4736
a(I284
I951
tp4737
a(I2
I732
tp4738
a(I142
I661
tp4739
a(I463
I747
tp4740
a(I1
I442
tp4741
aa(lp4742
(I53
I276
tp4743
a(I80
I764
tp4744
a(I10
I331
tp4745
a(I39
I289
tp4746
a(I87
I430
tp4747
a(I29
I220
tp4748
a(I457
I700
tp4749
a(I9
I808
tp4750
a(I1
I130
tp4751
a(I466
I887
tp4752
aa(lp4753
(I27
I852
tp4754
a(I158
I840
tp4755
a(I78
I454
tp4756
a(I26
I194
tp4757
a(I9
I464
tp4758
a(I337
I632
tp4759
a(I77
I635
tp4760
a(I53
I824
tp4761
a(I218
I575
tp4762
a(I227
I649
tp4763
aa(lp4764
(I9
I436
tp4765
a(I62
I218
tp4766
a(I197
I884
tp4767
a(I22
I153
tp4768
a(I19
I593
tp4769
a(I301
I706
tp4770
a(I37
I801
tp4771
a(I87
I429
tp4772
a(I365
I995
tp4773
a(I82
I342
tp4774
aa(lp4775
(I34
I313
tp4776
a(I20
I501
tp4777
a(I405
I962
tp4778
a(I1
I131
tp4779
a(I224
I629
tp4780
a(I19
I833
tp4781
a(I36
I836
tp4782
a(I105
I471
tp4783
a(I349
I820
tp4784
a(I139
I404
tp4785
aa(lp4786
(I16
I952
tp4787
a(I44
I511
tp4788
a(I26
I157
tp4789
a(I309
I845
tp4790
a(I35
I439
tp4791
a(I10
I148
tp4792
a(I518
I983
tp4793
a(I413
I713
tp4794
a(I1
I173
tp4795
a(I33
I349
tp4796
aa(lp4797
(I359
I605
tp4798
a(I21
I814
tp4799
a(I346
I907
tp4800
a(I145
I761
tp4801
a(I172
I530
tp4802
a(I35
I719
tp4803
a(I19
I543
tp4804
a(I92
I815
tp4805
a(I57
I317
tp4806
a(I33
I335
tp4807
aa(lp4808
(I158
I649
tp4809
a(I41
I170
tp4810
a(I123
I581
tp4811
a(I3
I815
tp4812
a(I34
I216
tp4813
a(I11
I273
tp4814
a(I381
I643
tp4815
a(I33
I115
tp4816
a(I22
I142
tp4817
a(I24
I482
tp4818
aa(lp4819
(I16
I764
tp4820
a(I4
I439
tp4821
a(I96
I718
tp4822
a(I58
I195
tp4823
a(I432
I761
tp4824
a(I57
I230
tp4825
a(I62
I396
tp4826
a(I52
I191
tp4827
a(I17
I225
tp4828
a(I36
I181
tp4829
aa(lp4830
(I83
I488
tp4831
a(I258
I400
tp4832
a(I39
I383
tp4833
a(I6
I210
tp4834
a(I71
I307
tp4835
a(I145
I909
tp4836
a(I40
I518
tp4837
a(I277
I790
tp4838
a(I112
I695
tp4839
a(I47
I677
tp4840
aa(lp4841
(I309
I917
tp4842
a(I141
I597
tp4843
a(I11
I373
tp4844
a(I55
I371
tp4845
a(I78
I149
tp4846
a(I19
I269
tp4847
a(I45
I193
tp4848
a(I60
I281
tp4849
a(I130
I789
tp4850
a(I28
I978
tp4851
aa(lp4852
(I177
I762
tp4853
a(I321
I743
tp4854
a(I22
I686
tp4855
a(I78
I943
tp4856
a(I52
I775
tp4857
a(I39
I651
tp4858
a(I273
I426
tp4859
a(I131
I831
tp4860
a(I80
I720
tp4861
a(I158
I888
tp4862
aa(lp4863
(I64
I157
tp4864
a(I43
I429
tp4865
a(I19
I763
tp4866
a(I106
I180
tp4867
a(I52
I742
tp4868
a(I48
I738
tp4869
a(I5
I229
tp4870
a(I14
I232
tp4871
a(I250
I717
tp4872
a(I99
I342
tp4873
aa(lp4874
(I60
I472
tp4875
a(I61
I326
tp4876
a(I251
I985
tp4877
a(I220
I632
tp4878
a(I192
I421
tp4879
a(I27
I913
tp4880
a(I16
I491
tp4881
a(I124
I924
tp4882
a(I100
I367
tp4883
a(I122
I822
tp4884
aa(lp4885
(I79
I594
tp4886
a(I31
I679
tp4887
a(I101
I843
tp4888
a(I1
I933
tp4889
a(I211
I766
tp4890
a(I3
I216
tp4891
a(I145
I459
tp4892
a(I377
I505
tp4893
a(I281
I883
tp4894
a(I19
I967
tp4895
aa(lp4896
(I40
I919
tp4897
a(I157
I817
tp4898
a(I372
I843
tp4899
a(I84
I731
tp4900
a(I107
I412
tp4901
a(I128
I703
tp4902
a(I88
I212
tp4903
a(I102
I633
tp4904
a(I28
I402
tp4905
a(I31
I282
tp4906
aa(lp4907
(I48
I512
tp4908
a(I1
I569
tp4909
a(I118
I556
tp4910
a(I16
I158
tp4911
a(I301
I917
tp4912
a(I46
I151
tp4913
a(I574
I824
tp4914
a(I88
I940
tp4915
a(I1
I562
tp4916
a(I21
I141
tp4917
aa(lp4918
(I268
I940
tp4919
a(I11
I112
tp4920
a(I7
I795
tp4921
a(I52
I215
tp4922
a(I643
I753
tp4923
a(I23
I460
tp4924
a(I9
I243
tp4925
a(I4
I135
tp4926
a(I295
I785
tp4927
a(I5
I939
tp4928
aa(lp4929
(I71
I605
tp4930
a(I162
I976
tp4931
a(I24
I878
tp4932
a(I31
I528
tp4933
a(I35
I701
tp4934
a(I274
I742
tp4935
a(I33
I314
tp4936
a(I466
I999
tp4937
a(I171
I303
tp4938
a(I34
I512
tp4939
aa(lp4940
(I96
I198
tp4941
a(I15
I441
tp4942
a(I126
I909
tp4943
a(I9
I259
tp4944
a(I164
I540
tp4945
a(I12
I990
tp4946
a(I479
I822
tp4947
a(I213
I822
tp4948
a(I12
I330
tp4949
a(I58
I582
tp4950
aa(lp4951
(I7
I659
tp4952
a(I42
I422
tp4953
a(I253
I852
tp4954
a(I255
I583
tp4955
a(I32
I682
tp4956
a(I487
I989
tp4957
a(I138
I803
tp4958
a(I55
I170
tp4959
a(I11
I246
tp4960
a(I35
I544
tp4961
aa(lp4962
(I73
I549
tp4963
a(I24
I202
tp4964
a(I26
I501
tp4965
a(I452
I869
tp4966
a(I57
I719
tp4967
a(I166
I671
tp4968
a(I188
I450
tp4969
a(I109
I720
tp4970
a(I89
I766
tp4971
a(I52
I342
tp4972
aa(lp4973
(I57
I417
tp4974
a(I230
I654
tp4975
a(I149
I483
tp4976
a(I213
I850
tp4977
a(I68
I334
tp4978
a(I144
I776
tp4979
a(I2
I582
tp4980
a(I102
I891
tp4981
a(I130
I718
tp4982
a(I56
I220
tp4983
aa(lp4984
(I9
I305
tp4985
a(I12
I326
tp4986
a(I4
I101
tp4987
a(I84
I456
tp4988
a(I128
I820
tp4989
a(I203
I252
tp4990
a(I123
I285
tp4991
a(I11
I262
tp4992
a(I51
I291
tp4993
a(I75
I881
tp4994
aa(lp4995
(I204
I807
tp4996
a(I137
I549
tp4997
a(I85
I239
tp4998
a(I182
I556
tp4999
a(I20
I970
tp5000
a(I21
I804
tp5001
a(I90
I426
tp5002
a(I13
I362
tp5003
a(I239
I884
tp5004
a(I233
I976
tp5005
aa(lp5006
(I6
I528
tp5007
a(I131
I340
tp5008
a(I145
I798
tp5009
a(I20
I300
tp5010
a(I244
I939
tp5011
a(I9
I302
tp5012
a(I46
I402
tp5013
a(I326
I830
tp5014
a(I30
I358
tp5015
a(I284
I616
tp5016
aa(lp5017
(I68
I675
tp5018
a(I106
I385
tp5019
a(I167
I759
tp5020
a(I97
I861
tp5021
a(I23
I347
tp5022
a(I249
I949
tp5023
a(I221
I615
tp5024
a(I443
I815
tp5025
a(I1
I726
tp5026
a(I13
I269
tp5027
aa(lp5028
(I141
I885
tp5029
a(I391
I921
tp5030
a(I49
I365
tp5031
a(I324
I499
tp5032
a(I61
I833
tp5033
a(I34
I938
tp5034
a(I5
I349
tp5035
a(I15
I757
tp5036
a(I96
I299
tp5037
a(I108
I676
tp5038
aa(lp5039
(I30
I149
tp5040
a(I73
I486
tp5041
a(I8
I217
tp5042
a(I20
I111
tp5043
a(I112
I244
tp5044
a(I1
I212
tp5045
a(I20
I143
tp5046
a(I36
I254
tp5047
a(I256
I884
tp5048
a(I95
I252
tp5049
aa(lp5050
(I157
I783
tp5051
a(I361
I807
tp5052
a(I275
I638
tp5053
a(I119
I916
tp5054
a(I97
I735
tp5055
a(I45
I594
tp5056
a(I29
I295
tp5057
a(I249
I772
tp5058
a(I80
I700
tp5059
a(I27
I679
tp5060
aa(lp5061
(I134
I573
tp5062
a(I1
I866
tp5063
a(I274
I661
tp5064
a(I129
I808
tp5065
a(I123
I782
tp5066
a(I312
I546
tp5067
a(I14
I463
tp5068
a(I99
I412
tp5069
a(I28
I259
tp5070
a(I57
I792
tp5071
aa(lp5072
(I9
I118
tp5073
a(I85
I921
tp5074
a(I31
I140
tp5075
a(I61
I691
tp5076
a(I183
I367
tp5077
a(I68
I839
tp5078
a(I16
I272
tp5079
a(I1
I627
tp5080
a(I526
I943
tp5081
a(I158
I517
tp5082
aa(lp5083
(I24
I304
tp5084
a(I43
I465
tp5085
a(I218
I641
tp5086
a(I106
I317
tp5087
a(I469
I948
tp5088
a(I2
I221
tp5089
a(I38
I296
tp5090
a(I5
I491
tp5091
a(I91
I884
tp5092
a(I155
I395
tp5093
aa(lp5094
(I85
I804
tp5095
a(I620
I715
tp5096
a(I31
I207
tp5097
a(I5
I321
tp5098
a(I20
I452
tp5099
a(I74
I654
tp5100
a(I1
I110
tp5101
a(I193
I730
tp5102
a(I64
I191
tp5103
a(I48
I529
tp5104
aa(lp5105
(I108
I823
tp5106
a(I43
I507
tp5107
a(I62
I230
tp5108
a(I1
I126
tp5109
a(I266
I517
tp5110
a(I18
I199
tp5111
a(I45
I959
tp5112
a(I12
I112
tp5113
a(I329
I455
tp5114
a(I1
I709
tp5115
aa(lp5116
(I70
I434
tp5117
a(I16
I502
tp5118
a(I190
I708
tp5119
a(I4
I307
tp5120
a(I126
I978
tp5121
a(I29
I209
tp5122
a(I285
I871
tp5123
a(I156
I320
tp5124
a(I26
I310
tp5125
a(I254
I731
tp5126
aa(lp5127
(I99
I355
tp5128
a(I237
I451
tp5129
a(I27
I307
tp5130
a(I133
I496
tp5131
a(I26
I301
tp5132
a(I301
I980
tp5133
a(I37
I404
tp5134
a(I260
I903
tp5135
a(I30
I895
tp5136
a(I7
I338
tp5137
aa(lp5138
(I83
I548
tp5139
a(I201
I589
tp5140
a(I80
I413
tp5141
a(I114
I834
tp5142
a(I135
I444
tp5143
a(I127
I553
tp5144
a(I19
I721
tp5145
a(I184
I544
tp5146
a(I34
I545
tp5147
a(I100
I486
tp5148
aa(lp5149
(I50
I851
tp5150
a(I113
I429
tp5151
a(I56
I430
tp5152
a(I105
I314
tp5153
a(I143
I345
tp5154
a(I145
I539
tp5155
a(I31
I217
tp5156
a(I151
I764
tp5157
a(I97
I663
tp5158
a(I19
I676
tp5159
aa(lp5160
(I23
I932
tp5161
a(I60
I353
tp5162
a(I49
I215
tp5163
a(I144
I811
tp5164
a(I108
I906
tp5165
a(I82
I669
tp5166
a(I58
I318
tp5167
a(I404
I519
tp5168
a(I67
I454
tp5169
a(I27
I738
tp5170
aa(lp5171
(I21
I616
tp5172
a(I34
I161
tp5173
a(I10
I310
tp5174
a(I44
I191
tp5175
a(I6
I447
tp5176
a(I29
I618
tp5177
a(I74
I165
tp5178
a(I121
I158
tp5179
a(I77
I387
tp5180
a(I1
I587
tp5181
aa(lp5182
(I84
I474
tp5183
a(I107
I339
tp5184
a(I72
I371
tp5185
a(I195
I884
tp5186
a(I157
I432
tp5187
a(I100
I774
tp5188
a(I225
I869
tp5189
a(I28
I771
tp5190
a(I18
I154
tp5191
a(I25
I145
tp5192
aa(lp5193
(I117
I654
tp5194
a(I31
I153
tp5195
a(I104
I255
tp5196
a(I37
I193
tp5197
a(I15
I205
tp5198
a(I49
I471
tp5199
a(I89
I686
tp5200
a(I46
I199
tp5201
a(I122
I409
tp5202
a(I82
I487
tp5203
aa(lp5204
(I41
I290
tp5205
a(I230
I643
tp5206
a(I45
I225
tp5207
a(I77
I176
tp5208
a(I132
I476
tp5209
a(I126
I798
tp5210
a(I84
I819
tp5211
a(I2
I493
tp5212
a(I27
I489
tp5213
a(I127
I503
tp5214
aa(lp5215
(I26
I294
tp5216
a(I127
I295
tp5217
a(I43
I937
tp5218
a(I4
I245
tp5219
a(I4
I807
tp5220
a(I43
I251
tp5221
a(I62
I507
tp5222
a(I186
I371
tp5223
a(I273
I767
tp5224
a(I163
I658
tp5225
aa(lp5226
(I10
I170
tp5227
a(I24
I180
tp5228
a(I94
I388
tp5229
a(I309
I677
tp5230
a(I22
I366
tp5231
a(I75
I487
tp5232
a(I27
I714
tp5233
a(I182
I603
tp5234
a(I40
I218
tp5235
a(I182
I515
tp5236
aa(lp5237
(I1
I897
tp5238
a(I290
I876
tp5239
a(I319
I819
tp5240
a(I144
I893
tp5241
a(I453
I639
tp5242
a(I1
I124
tp5243
a(I58
I456
tp5244
a(I31
I923
tp5245
a(I35
I522
tp5246
a(I29
I181
tp5247
aa(lp5248
(I86
I880
tp5249
a(I152
I997
tp5250
a(I32
I495
tp5251
a(I177
I478
tp5252
a(I4
I369
tp5253
a(I457
I889
tp5254
a(I24
I330
tp5255
a(I266
I890
tp5256
a(I100
I963
tp5257
a(I238
I772
tp5258
aa(lp5259
(I146
I682
tp5260
a(I179
I754
tp5261
a(I67
I948
tp5262
a(I13
I174
tp5263
a(I48
I350
tp5264
a(I78
I889
tp5265
a(I426
I683
tp5266
a(I30
I150
tp5267
a(I35
I367
tp5268
a(I209
I841
tp5269
aa(lp5270
(I12
I304
tp5271
a(I596
I791
tp5272
a(I24
I293
tp5273
a(I43
I534
tp5274
a(I26
I357
tp5275
a(I96
I605
tp5276
a(I136
I816
tp5277
a(I1
I854
tp5278
a(I10
I108
tp5279
a(I329
I609
tp5280
aa(lp5281
(I116
I553
tp5282
a(I193
I921
tp5283
a(I127
I763
tp5284
a(I44
I844
tp5285
a(I53
I704
tp5286
a(I136
I335
tp5287
a(I27
I932
tp5288
a(I85
I532
tp5289
a(I19
I845
tp5290
a(I431
I648
tp5291
aa(lp5292
(I106
I566
tp5293
a(I44
I160
tp5294
a(I24
I482
tp5295
a(I44
I466
tp5296
a(I190
I629
tp5297
a(I220
I422
tp5298
a(I53
I643
tp5299
a(I14
I298
tp5300
a(I57
I737
tp5301
a(I210
I592
tp5302
aa(lp5303
(I67
I961
tp5304
a(I14
I211
tp5305
a(I289
I361
tp5306
a(I107
I987
tp5307
a(I9
I109
tp5308
a(I399
I960
tp5309
a(I47
I365
tp5310
a(I112
I691
tp5311
a(I37
I698
tp5312
a(I43
I422
tp5313
aa(lp5314
(I306
I817
tp5315
a(I36
I225
tp5316
a(I130
I290
tp5317
a(I10
I269
tp5318
a(I11
I638
tp5319
a(I136
I932
tp5320
a(I191
I786
tp5321
a(I72
I743
tp5322
a(I42
I112
tp5323
a(I57
I643
tp5324
aa(lp5325
(I48
I175
tp5326
a(I48
I165
tp5327
a(I53
I609
tp5328
a(I29
I405
tp5329
a(I39
I755
tp5330
a(I375
I575
tp5331
a(I92
I344
tp5332
a(I37
I758
tp5333
a(I87
I550
tp5334
a(I71
I840
tp5335
aa(lp5336
(I77
I201
tp5337
a(I116
I772
tp5338
a(I77
I605
tp5339
a(I51
I880
tp5340
a(I436
I800
tp5341
a(I2
I206
tp5342
a(I173
I726
tp5343
a(I140
I655
tp5344
a(I1
I117
tp5345
a(I57
I221
tp5346
aa(lp5347
(I5
I162
tp5348
a(I387
I866
tp5349
a(I204
I755
tp5350
a(I253
I974
tp5351
a(I24
I864
tp5352
a(I8
I165
tp5353
a(I112
I514
tp5354
a(I31
I725
tp5355
a(I97
I377
tp5356
a(I51
I132
tp5357
aa(lp5358
(I136
I260
tp5359
a(I2
I209
tp5360
a(I70
I324
tp5361
a(I155
I272
tp5362
a(I256
I999
tp5363
a(I21
I893
tp5364
a(I58
I684
tp5365
a(I32
I688
tp5366
a(I44
I187
tp5367
a(I15
I645
tp5368
aa(lp5369
(I200
I566
tp5370
a(I105
I699
tp5371
a(I22
I420
tp5372
a(I10
I595
tp5373
a(I556
I940
tp5374
a(I24
I259
tp5375
a(I47
I133
tp5376
a(I156
I880
tp5377
a(I77
I454
tp5378
a(I12
I350
tp5379
aa(lp5380
(I415
I793
tp5381
a(I41
I348
tp5382
a(I3
I312
tp5383
a(I260
I523
tp5384
a(I59
I779
tp5385
a(I248
I920
tp5386
a(I105
I995
tp5387
a(I107
I625
tp5388
a(I96
I484
tp5389
a(I19
I782
tp5390
aa(lp5391
(I17
I449
tp5392
a(I244
I885
tp5393
a(I37
I974
tp5394
a(I4
I112
tp5395
a(I23
I690
tp5396
a(I284
I317
tp5397
a(I41
I483
tp5398
a(I73
I656
tp5399
a(I38
I399
tp5400
a(I244
I646
tp5401
aa(lp5402
(I76
I797
tp5403
a(I15
I720
tp5404
a(I91
I563
tp5405
a(I27
I333
tp5406
a(I50
I327
tp5407
a(I61
I154
tp5408
a(I154
I348
tp5409
a(I151
I303
tp5410
a(I65
I585
tp5411
a(I3
I117
tp5412
aa(lp5413
(I22
I547
tp5414
a(I35
I932
tp5415
a(I323
I670
tp5416
a(I87
I233
tp5417
a(I130
I344
tp5418
a(I20
I143
tp5419
a(I168
I644
tp5420
a(I4
I242
tp5421
a(I14
I223
tp5422
a(I37
I197
tp5423
aa(lp5424
(I33
I886
tp5425
a(I106
I516
tp5426
a(I159
I694
tp5427
a(I38
I710
tp5428
a(I183
I305
tp5429
a(I38
I988
tp5430
a(I20
I113
tp5431
a(I28
I384
tp5432
a(I337
I844
tp5433
a(I50
I291
tp5434
aa(lp5435
(I71
I697
tp5436
a(I98
I737
tp5437
a(I39
I154
tp5438
a(I263
I571
tp5439
a(I24
I365
tp5440
a(I10
I824
tp5441
a(I85
I235
tp5442
a(I64
I338
tp5443
a(I344
I999
tp5444
a(I55
I853
tp5445
aa(lp5446
(I359
I584
tp5447
a(I140
I580
tp5448
a(I8
I550
tp5449
a(I69
I564
tp5450
a(I176
I501
tp5451
a(I1
I658
tp5452
a(I78
I285
tp5453
a(I15
I366
tp5454
a(I197
I815
tp5455
a(I44
I487
tp5456
aa(lp5457
(I166
I353
tp5458
a(I10
I108
tp5459
a(I24
I303
tp5460
a(I258
I967
tp5461
a(I43
I221
tp5462
a(I97
I912
tp5463
a(I57
I159
tp5464
a(I14
I357
tp5465
a(I115
I302
tp5466
a(I1
I419
tp5467
aa(lp5468
(I41
I730
tp5469
a(I406
I901
tp5470
a(I68
I912
tp5471
a(I178
I644
tp5472
a(I125
I261
tp5473
a(I10
I172
tp5474
a(I29
I953
tp5475
a(I9
I620
tp5476
a(I282
I836
tp5477
a(I170
I804
tp5478
aa(lp5479
(I28
I268
tp5480
a(I56
I103
tp5481
a(I21
I438
tp5482
a(I233
I762
tp5483
a(I85
I206
tp5484
a(I19
I203
tp5485
a(I55
I800
tp5486
a(I35
I379
tp5487
a(I176
I794
tp5488
a(I47
I513
tp5489
aa(lp5490
(I60
I238
tp5491
a(I74
I727
tp5492
a(I60
I840
tp5493
a(I385
I966
tp5494
a(I10
I670
tp5495
a(I27
I441
tp5496
a(I97
I107
tp5497
a(I25
I186
tp5498
a(I27
I752
tp5499
a(I4
I642
tp5500
aa(lp5501
(I303
I929
tp5502
a(I42
I149
tp5503
a(I77
I123
tp5504
a(I99
I605
tp5505
a(I87
I994
tp5506
a(I1
I139
tp5507
a(I37
I647
tp5508
a(I95
I343
tp5509
a(I15
I711
tp5510
a(I63
I452
tp5511
aa(lp5512
(I206
I610
tp5513
a(I9
I400
tp5514
a(I116
I395
tp5515
a(I86
I321
tp5516
a(I17
I264
tp5517
a(I114
I320
tp5518
a(I213
I998
tp5519
a(I173
I566
tp5520
a(I83
I794
tp5521
a(I11
I474
tp5522
aa(lp5523
(I71
I346
tp5524
a(I93
I894
tp5525
a(I107
I773
tp5526
a(I238
I815
tp5527
a(I19
I201
tp5528
a(I78
I152
tp5529
a(I159
I459
tp5530
a(I27
I761
tp5531
a(I18
I153
tp5532
a(I105
I737
tp5533
aa(lp5534
(I9
I381
tp5535
a(I204
I348
tp5536
a(I32
I894
tp5537
a(I14
I458
tp5538
a(I107
I776
tp5539
a(I405
I819
tp5540
a(I58
I933
tp5541
a(I40
I708
tp5542
a(I255
I901
tp5543
a(I190
I663
tp5544
aa(lp5545
(I68
I438
tp5546
a(I60
I403
tp5547
a(I29
I408
tp5548
a(I308
I442
tp5549
a(I44
I725
tp5550
a(I3
I161
tp5551
a(I174
I924
tp5552
a(I302
I779
tp5553
a(I23
I195
tp5554
a(I96
I684
tp5555
aa(lp5556
(I90
I850
tp5557
a(I95
I756
tp5558
a(I9
I643
tp5559
a(I12
I149
tp5560
a(I195
I912
tp5561
a(I431
I931
tp5562
a(I84
I997
tp5563
a(I287
I868
tp5564
a(I99
I608
tp5565
a(I314
I761
tp5566
aa(lp5567
(I68
I418
tp5568
a(I30
I299
tp5569
a(I4
I158
tp5570
a(I141
I346
tp5571
a(I64
I670
tp5572
a(I259
I537
tp5573
a(I218
I845
tp5574
a(I200
I945
tp5575
a(I99
I485
tp5576
a(I12
I282
tp5577
aa(lp5578
(I40
I407
tp5579
a(I116
I654
tp5580
a(I84
I539
tp5581
a(I44
I433
tp5582
a(I103
I151
tp5583
a(I4
I707
tp5584
a(I18
I242
tp5585
a(I53
I864
tp5586
a(I269
I977
tp5587
a(I265
I749
tp5588
aa(lp5589
(I396
I822
tp5590
a(I106
I418
tp5591
a(I189
I888
tp5592
a(I189
I601
tp5593
a(I78
I560
tp5594
a(I132
I966
tp5595
a(I70
I767
tp5596
a(I23
I478
tp5597
a(I10
I344
tp5598
a(I80
I282
tp5599
aa(lp5600
(I106
I991
tp5601
a(I200
I320
tp5602
a(I12
I188
tp5603
a(I28
I205
tp5604
a(I150
I739
tp5605
a(I39
I161
tp5606
a(I37
I678
tp5607
a(I181
I976
tp5608
a(I48
I534
tp5609
a(I254
I929
tp5610
aa(lp5611
(I39
I549
tp5612
a(I37
I904
tp5613
a(I387
I492
tp5614
a(I305
I677
tp5615
a(I5
I200
tp5616
a(I37
I719
tp5617
a(I14
I274
tp5618
a(I265
I669
tp5619
a(I44
I612
tp5620
a(I34
I749
tp5621
aa(lp5622
(I27
I338
tp5623
a(I13
I383
tp5624
a(I8
I372
tp5625
a(I50
I217
tp5626
a(I347
I717
tp5627
a(I54
I424
tp5628
a(I39
I472
tp5629
a(I344
I491
tp5630
a(I67
I648
tp5631
a(I78
I616
tp5632
aa(lp5633
(I196
I848
tp5634
a(I305
I831
tp5635
a(I59
I457
tp5636
a(I7
I781
tp5637
a(I320
I791
tp5638
a(I38
I631
tp5639
a(I195
I521
tp5640
a(I69
I812
tp5641
a(I158
I545
tp5642
a(I6
I149
tp5643
aa(lp5644
(I328
I734
tp5645
a(I156
I693
tp5646
a(I21
I859
tp5647
a(I2
I241
tp5648
a(I41
I328
tp5649
a(I135
I470
tp5650
a(I47
I250
tp5651
a(I42
I251
tp5652
a(I35
I645
tp5653
a(I284
I614
tp5654
aa(lp5655
(I144
I479
tp5656
a(I111
I314
tp5657
a(I321
I989
tp5658
a(I43
I207
tp5659
a(I4
I101
tp5660
a(I87
I427
tp5661
a(I24
I615
tp5662
a(I42
I237
tp5663
a(I219
I693
tp5664
a(I17
I711
tp5665
aa(lp5666
(I21
I154
tp5667
a(I299
I535
tp5668
a(I11
I393
tp5669
a(I103
I408
tp5670
a(I9
I775
tp5671
a(I90
I374
tp5672
a(I135
I264
tp5673
a(I139
I837
tp5674
a(I27
I516
tp5675
a(I31
I867
tp5676
aa(lp5677
(I73
I114
tp5678
a(I10
I233
tp5679
a(I22
I343
tp5680
a(I32
I192
tp5681
a(I50
I671
tp5682
a(I151
I471
tp5683
a(I9
I263
tp5684
a(I142
I675
tp5685
a(I58
I476
tp5686
a(I259
I851
tp5687
aa(lp5688
(I112
I558
tp5689
a(I194
I757
tp5690
a(I41
I235
tp5691
a(I43
I489
tp5692
a(I8
I373
tp5693
a(I49
I321
tp5694
a(I220
I645
tp5695
a(I120
I654
tp5696
a(I71
I461
tp5697
a(I169
I406
tp5698
aa(lp5699
(I14
I126
tp5700
a(I132
I808
tp5701
a(I121
I415
tp5702
a(I21
I133
tp5703
a(I143
I885
tp5704
a(I19
I123
tp5705
a(I69
I273
tp5706
a(I65
I923
tp5707
a(I32
I870
tp5708
a(I443
I759
tp5709
aa(lp5710
(I277
I771
tp5711
a(I25
I368
tp5712
a(I226
I931
tp5713
a(I278
I679
tp5714
a(I406
I936
tp5715
a(I15
I296
tp5716
a(I95
I491
tp5717
a(I40
I494
tp5718
a(I10
I217
tp5719
a(I87
I815
tp5720
aa(lp5721
(I3
I392
tp5722
a(I14
I592
tp5723
a(I511
I603
tp5724
a(I102
I252
tp5725
a(I136
I599
tp5726
a(I46
I954
tp5727
a(I88
I529
tp5728
a(I78
I621
tp5729
a(I35
I287
tp5730
a(I3
I220
tp5731
aa(lp5732
(I259
I677
tp5733
a(I29
I672
tp5734
a(I2
I791
tp5735
a(I27
I454
tp5736
a(I21
I226
tp5737
a(I55
I591
tp5738
a(I406
I940
tp5739
a(I529
I964
tp5740
a(I253
I766
tp5741
a(I6
I789
tp5742
aa(lp5743
(I176
I299
tp5744
a(I63
I127
tp5745
a(I4
I784
tp5746
a(I17
I203
tp5747
a(I76
I783
tp5748
a(I78
I289
tp5749
a(I313
I876
tp5750
a(I18
I581
tp5751
a(I3
I160
tp5752
a(I22
I618
tp5753
aa(lp5754
(I200
I850
tp5755
a(I53
I347
tp5756
a(I1
I472
tp5757
a(I342
I690
tp5758
a(I15
I174
tp5759
a(I311
I841
tp5760
a(I354
I774
tp5761
a(I5
I276
tp5762
a(I98
I619
tp5763
a(I10
I617
tp5764
aa(lp5765
(I12
I888
tp5766
a(I91
I515
tp5767
a(I98
I911
tp5768
a(I110
I747
tp5769
a(I355
I742
tp5770
a(I23
I527
tp5771
a(I321
I998
tp5772
a(I42
I166
tp5773
a(I16
I655
tp5774
a(I364
I867
tp5775
aa(lp5776
(I1
I191
tp5777
a(I97
I363
tp5778
a(I14
I459
tp5779
a(I136
I588
tp5780
a(I118
I467
tp5781
a(I63
I148
tp5782
a(I198
I942
tp5783
a(I28
I131
tp5784
a(I31
I270
tp5785
a(I136
I583
tp5786
aa(lp5787
(I206
I729
tp5788
a(I120
I617
tp5789
a(I163
I201
tp5790
a(I1
I186
tp5791
a(I39
I997
tp5792
a(I73
I919
tp5793
a(I247
I783
tp5794
a(I59
I831
tp5795
a(I42
I283
tp5796
a(I16
I369
tp5797
aa(lp5798
(I209
I599
tp5799
a(I42
I472
tp5800
a(I190
I513
tp5801
a(I36
I209
tp5802
a(I226
I747
tp5803
a(I120
I887
tp5804
a(I30
I773
tp5805
a(I33
I403
tp5806
a(I70
I903
tp5807
a(I308
I817
tp5808
aa(lp5809
(I31
I502
tp5810
a(I4
I121
tp5811
a(I54
I688
tp5812
a(I51
I170
tp5813
a(I209
I563
tp5814
a(I4
I166
tp5815
a(I169
I530
tp5816
a(I171
I342
tp5817
a(I102
I671
tp5818
a(I29
I211
tp5819
aa(lp5820
(I15
I365
tp5821
a(I18
I385
tp5822
a(I331
I692
tp5823
a(I20
I147
tp5824
a(I43
I631
tp5825
a(I14
I114
tp5826
a(I112
I664
tp5827
a(I706
I986
tp5828
a(I18
I226
tp5829
a(I39
I319
tp5830
aa(lp5831
(I9
I469
tp5832
a(I52
I640
tp5833
a(I118
I603
tp5834
a(I219
I748
tp5835
a(I30
I998
tp5836
a(I195
I460
tp5837
a(I21
I935
tp5838
a(I153
I342
tp5839
a(I68
I173
tp5840
a(I7
I101
tp5841
aa(lp5842
(I17
I244
tp5843
a(I138
I480
tp5844
a(I20
I267
tp5845
a(I134
I305
tp5846
a(I16
I302
tp5847
a(I136
I484
tp5848
a(I38
I475
tp5849
a(I79
I888
tp5850
a(I60
I245
tp5851
a(I180
I488
tp5852
aa(lp5853
(I225
I908
tp5854
a(I141
I631
tp5855
a(I149
I669
tp5856
a(I135
I405
tp5857
a(I30
I348
tp5858
a(I179
I330
tp5859
a(I39
I266
tp5860
a(I39
I365
tp5861
a(I8
I488
tp5862
a(I55
I802
tp5863
aa(lp5864
(I38
I214
tp5865
a(I52
I262
tp5866
a(I49
I669
tp5867
a(I215
I923
tp5868
a(I184
I707
tp5869
a(I42
I827
tp5870
a(I62
I409
tp5871
a(I44
I382
tp5872
a(I50
I153
tp5873
a(I289
I727
tp5874
aa(lp5875
(I70
I827
tp5876
a(I414
I453
tp5877
a(I14
I129
tp5878
a(I57
I882
tp5879
a(I23
I228
tp5880
a(I35
I949
tp5881
a(I83
I294
tp5882
a(I39
I232
tp5883
a(I4
I907
tp5884
a(I109
I491
tp5885
aa(lp5886
(I14
I251
tp5887
a(I365
I434
tp5888
a(I10
I613
tp5889
a(I28
I562
tp5890
a(I91
I558
tp5891
a(I13
I811
tp5892
a(I109
I615
tp5893
a(I96
I737
tp5894
a(I278
I543
tp5895
a(I12
I419
tp5896
aa(lp5897
(I51
I275
tp5898
a(I95
I984
tp5899
a(I306
I904
tp5900
a(I83
I625
tp5901
a(I11
I467
tp5902
a(I29
I264
tp5903
a(I25
I131
tp5904
a(I114
I398
tp5905
a(I262
I650
tp5906
a(I82
I365
tp5907
aa(lp5908
(I18
I142
tp5909
a(I72
I345
tp5910
a(I51
I925
tp5911
a(I68
I505
tp5912
a(I16
I120
tp5913
a(I108
I677
tp5914
a(I6
I180
tp5915
a(I14
I186
tp5916
a(I447
I818
tp5917
a(I376
I738
tp5918
aa(lp5919
(I538
I754
tp5920
a(I18
I650
tp5921
a(I225
I970
tp5922
a(I41
I457
tp5923
a(I137
I931
tp5924
a(I30
I235
tp5925
a(I91
I696
tp5926
a(I8
I460
tp5927
a(I95
I905
tp5928
a(I134
I337
tp5929
aa(lp5930
(I327
I973
tp5931
a(I191
I766
tp5932
a(I20
I665
tp5933
a(I20
I887
tp5934
a(I116
I490
tp5935
a(I13
I403
tp5936
a(I6
I368
tp5937
a(I423
I751
tp5938
a(I278
I835
tp5939
a(I147
I855
tp5940
aa(lp5941
(I128
I862
tp5942
a(I169
I612
tp5943
a(I31
I396
tp5944
a(I25
I837
tp5945
a(I389
I595
tp5946
a(I8
I165
tp5947
a(I62
I898
tp5948
a(I14
I414
tp5949
a(I322
I513
tp5950
a(I7
I304
tp5951
aa(lp5952
(I57
I658
tp5953
a(I75
I272
tp5954
a(I466
I958
tp5955
a(I119
I512
tp5956
a(I19
I392
tp5957
a(I127
I415
tp5958
a(I44
I628
tp5959
a(I8
I840
tp5960
a(I222
I819
tp5961
a(I52
I254
tp5962
aa(lp5963
(I214
I988
tp5964
a(I9
I192
tp5965
a(I6
I420
tp5966
a(I242
I440
tp5967
a(I90
I385
tp5968
a(I145
I637
tp5969
a(I10
I707
tp5970
a(I118
I270
tp5971
a(I63
I825
tp5972
a(I62
I361
tp5973
aa(lp5974
(I34
I599
tp5975
a(I281
I660
tp5976
a(I47
I283
tp5977
a(I112
I888
tp5978
a(I63
I451
tp5979
a(I28
I772
tp5980
a(I251
I992
tp5981
a(I55
I476
tp5982
a(I325
I823
tp5983
a(I219
I790
tp5984
aa(lp5985
(I42
I454
tp5986
a(I45
I832
tp5987
a(I150
I256
tp5988
a(I26
I708
tp5989
a(I73
I465
tp5990
a(I234
I857
tp5991
a(I7
I311
tp5992
a(I338
I982
tp5993
a(I208
I879
tp5994
a(I95
I508
tp5995
aa(lp5996
(I82
I378
tp5997
a(I74
I439
tp5998
a(I273
I886
tp5999
a(I8
I133
tp6000
a(I22
I294
tp6001
a(I33
I525
tp6002
a(I159
I621
tp6003
a(I78
I874
tp6004
a(I36
I523
tp6005
a(I578
I841
tp6006
aa(lp6007
(I85
I775
tp6008
a(I32
I202
tp6009
a(I14
I388
tp6010
a(I28
I307
tp6011
a(I56
I252
tp6012
a(I167
I967
tp6013
a(I801
I961
tp6014
a(I66
I536
tp6015
a(I14
I411
tp6016
a(I129
I629
tp6017
aa(lp6018
(I186
I741
tp6019
a(I5
I892
tp6020
a(I31
I524
tp6021
a(I5
I466
tp6022
a(I300
I997
tp6023
a(I76
I906
tp6024
a(I108
I902
tp6025
a(I26
I299
tp6026
a(I455
I805
tp6027
a(I463
I911
tp6028
aa(lp6029
(I207
I562
tp6030
a(I31
I310
tp6031
a(I67
I522
tp6032
a(I277
I684
tp6033
a(I95
I668
tp6034
a(I21
I435
tp6035
a(I88
I266
tp6036
a(I57
I982
tp6037
a(I11
I253
tp6038
a(I349
I968
tp6039
aa(lp6040
(I8
I117
tp6041
a(I209
I612
tp6042
a(I2
I419
tp6043
a(I93
I320
tp6044
a(I63
I184
tp6045
a(I24
I539
tp6046
a(I52
I236
tp6047
a(I347
I987
tp6048
a(I205
I726
tp6049
a(I13
I321
tp6050
aa(lp6051
(I27
I201
tp6052
a(I30
I147
tp6053
a(I305
I746
tp6054
a(I291
I802
tp6055
a(I80
I595
tp6056
a(I71
I787
tp6057
a(I127
I376
tp6058
a(I193
I920
tp6059
a(I71
I679
tp6060
a(I1
I444
tp6061
aa(lp6062
(I194
I852
tp6063
a(I61
I224
tp6064
a(I58
I348
tp6065
a(I8
I610
tp6066
a(I9
I109
tp6067
a(I83
I474
tp6068
a(I157
I782
tp6069
a(I173
I639
tp6070
a(I103
I730
tp6071
a(I357
I827
tp6072
aa(lp6073
(I21
I117
tp6074
a(I18
I447
tp6075
a(I17
I271
tp6076
a(I237
I853
tp6077
a(I147
I989
tp6078
a(I73
I253
tp6079
a(I167
I398
tp6080
a(I138
I453
tp6081
a(I7
I546
tp6082
a(I99
I395
tp6083
aa(lp6084
(I58
I213
tp6085
a(I29
I147
tp6086
a(I51
I894
tp6087
a(I33
I150
tp6088
a(I3
I323
tp6089
a(I271
I805
tp6090
a(I8
I314
tp6091
a(I3
I515
tp6092
a(I1
I697
tp6093
a(I431
I504
tp6094
aa(lp6095
(I52
I125
tp6096
a(I10
I740
tp6097
a(I283
I758
tp6098
a(I104
I398
tp6099
a(I13
I199
tp6100
a(I160
I863
tp6101
a(I36
I367
tp6102
a(I143
I839
tp6103
a(I31
I261
tp6104
a(I192
I677
tp6105
aa(lp6106
(I118
I632
tp6107
a(I545
I759
tp6108
a(I45
I209
tp6109
a(I208
I952
tp6110
a(I187
I826
tp6111
a(I56
I738
tp6112
a(I56
I482
tp6113
a(I110
I983
tp6114
a(I3
I176
tp6115
a(I78
I782
tp6116
aa(lp6117
(I27
I553
tp6118
a(I150
I657
tp6119
a(I29
I354
tp6120
a(I131
I731
tp6121
a(I186
I673
tp6122
a(I51
I179
tp6123
a(I50
I350
tp6124
a(I151
I919
tp6125
a(I24
I683
tp6126
a(I269
I492
tp6127
aa(lp6128
(I13
I340
tp6129
a(I127
I918
tp6130
a(I387
I637
tp6131
a(I6
I447
tp6132
a(I26
I101
tp6133
a(I301
I530
tp6134
a(I84
I408
tp6135
a(I5
I388
tp6136
a(I13
I180
tp6137
a(I9
I146
tp6138
aa(lp6139
(I218
I600
tp6140
a(I46
I977
tp6141
a(I64
I274
tp6142
a(I26
I113
tp6143
a(I170
I804
tp6144
a(I43
I203
tp6145
a(I35
I556
tp6146
a(I10
I240
tp6147
a(I393
I806
tp6148
a(I82
I854
tp6149
aa(lp6150
(I4
I627
tp6151
a(I100
I404
tp6152
a(I166
I438
tp6153
a(I115
I680
tp6154
a(I88
I965
tp6155
a(I99
I326
tp6156
a(I29
I318
tp6157
a(I214
I635
tp6158
a(I253
I765
tp6159
a(I20
I574
tp6160
aa(lp6161
(I41
I181
tp6162
a(I35
I413
tp6163
a(I7
I746
tp6164
a(I187
I488
tp6165
a(I40
I313
tp6166
a(I60
I897
tp6167
a(I41
I734
tp6168
a(I263
I506
tp6169
a(I240
I983
tp6170
a(I88
I326
tp6171
aa(lp6172
(I29
I610
tp6173
a(I52
I569
tp6174
a(I2
I427
tp6175
a(I661
I764
tp6176
a(I114
I342
tp6177
a(I63
I640
tp6178
a(I95
I612
tp6179
a(I30
I210
tp6180
a(I48
I219
tp6181
a(I8
I284
tp6182
aa(lp6183
(I9
I180
tp6184
a(I99
I611
tp6185
a(I43
I373
tp6186
a(I295
I841
tp6187
a(I21
I543
tp6188
a(I119
I560
tp6189
a(I268
I663
tp6190
a(I64
I445
tp6191
a(I123
I564
tp6192
a(I284
I973
tp6193
aa(lp6194
(I469
I682
tp6195
a(I56
I415
tp6196
a(I20
I133
tp6197
a(I50
I954
tp6198
a(I204
I733
tp6199
a(I57
I653
tp6200
a(I11
I170
tp6201
a(I3
I884
tp6202
a(I38
I136
tp6203
a(I234
I954
tp6204
aa(lp6205
(I29
I920
tp6206
a(I61
I460
tp6207
a(I204
I565
tp6208
a(I72
I597
tp6209
a(I81
I523
tp6210
a(I256
I687
tp6211
a(I272
I706
tp6212
a(I88
I540
tp6213
a(I69
I400
tp6214
a(I45
I464
tp6215
aa(lp6216
(I10
I156
tp6217
a(I154
I416
tp6218
a(I138
I1000
tp6219
a(I48
I655
tp6220
a(I30
I209
tp6221
a(I164
I836
tp6222
a(I11
I913
tp6223
a(I145
I998
tp6224
a(I175
I885
tp6225
a(I203
I314
tp6226
aa(lp6227
(I56
I733
tp6228
a(I76
I392
tp6229
a(I105
I961
tp6230
a(I27
I194
tp6231
a(I67
I137
tp6232
a(I20
I122
tp6233
a(I164
I840
tp6234
a(I355
I928
tp6235
a(I67
I932
tp6236
a(I170
I993
tp6237
aa(lp6238
(I320
I958
tp6239
a(I31
I884
tp6240
a(I159
I351
tp6241
a(I174
I830
tp6242
a(I70
I902
tp6243
a(I163
I361
tp6244
a(I47
I663
tp6245
a(I51
I737
tp6246
a(I102
I701
tp6247
a(I107
I746
tp6248
aa(lp6249
(I24
I146
tp6250
a(I209
I371
tp6251
a(I31
I745
tp6252
a(I9
I761
tp6253
a(I49
I435
tp6254
a(I134
I730
tp6255
a(I57
I711
tp6256
a(I116
I284
tp6257
a(I109
I526
tp6258
a(I97
I456
tp6259
aa(lp6260
(I214
I752
tp6261
a(I53
I840
tp6262
a(I33
I107
tp6263
a(I124
I467
tp6264
a(I202
I832
tp6265
a(I123
I609
tp6266
a(I84
I558
tp6267
a(I111
I930
tp6268
a(I21
I458
tp6269
a(I121
I397
tp6270
aa(lp6271
(I77
I664
tp6272
a(I2
I113
tp6273
a(I173
I956
tp6274
a(I272
I451
tp6275
a(I11
I194
tp6276
a(I200
I350
tp6277
a(I27
I849
tp6278
a(I6
I265
tp6279
a(I33
I178
tp6280
a(I96
I494
tp6281
aa(lp6282
(I354
I944
tp6283
a(I284
I584
tp6284
a(I91
I252
tp6285
a(I16
I980
tp6286
a(I3
I589
tp6287
a(I24
I427
tp6288
a(I17
I852
tp6289
a(I344
I905
tp6290
a(I6
I169
tp6291
a(I105
I415
tp6292
aa(lp6293
(I23
I110
tp6294
a(I122
I424
tp6295
a(I3
I438
tp6296
a(I224
I435
tp6297
a(I22
I265
tp6298
a(I44
I136
tp6299
a(I27
I144
tp6300
a(I34
I228
tp6301
a(I53
I930
tp6302
a(I157
I974
tp6303
aa(lp6304
(I143
I783
tp6305
a(I71
I874
tp6306
a(I91
I295
tp6307
a(I19
I465
tp6308
a(I355
I707
tp6309
a(I100
I682
tp6310
a(I219
I797
tp6311
a(I17
I831
tp6312
a(I120
I355
tp6313
a(I35
I367
tp6314
aa(lp6315
(I1
I366
tp6316
a(I9
I941
tp6317
a(I74
I255
tp6318
a(I3
I757
tp6319
a(I364
I809
tp6320
a(I160
I504
tp6321
a(I110
I731
tp6322
a(I120
I271
tp6323
a(I100
I907
tp6324
a(I96
I447
tp6325
aa(lp6326
(I35
I418
tp6327
a(I477
I514
tp6328
a(I1
I631
tp6329
a(I2
I390
tp6330
a(I144
I999
tp6331
a(I166
I711
tp6332
a(I160
I977
tp6333
a(I209
I847
tp6334
a(I15
I237
tp6335
a(I98
I812
tp6336
aa(lp6337
(I11
I232
tp6338
a(I111
I642
tp6339
a(I796
I992
tp6340
a(I1
I163
tp6341
a(I57
I746
tp6342
a(I149
I442
tp6343
a(I34
I156
tp6344
a(I5
I138
tp6345
a(I87
I408
tp6346
a(I9
I144
tp6347
aa(lp6348
(I221
I918
tp6349
a(I8
I797
tp6350
a(I6
I530
tp6351
a(I465
I652
tp6352
a(I35
I402
tp6353
a(I1
I295
tp6354
a(I209
I401
tp6355
a(I18
I139
tp6356
a(I70
I417
tp6357
a(I18
I179
tp6358
aa(lp6359
(I104
I348
tp6360
a(I36
I876
tp6361
a(I216
I887
tp6362
a(I377
I688
tp6363
a(I71
I244
tp6364
a(I71
I615
tp6365
a(I104
I954
tp6366
a(I207
I857
tp6367
a(I58
I608
tp6368
a(I5
I584
tp6369
aa(lp6370
(I30
I496
tp6371
a(I289
I765
tp6372
a(I121
I862
tp6373
a(I170
I609
tp6374
a(I84
I802
tp6375
a(I16
I390
tp6376
a(I91
I589
tp6377
a(I191
I696
tp6378
a(I104
I774
tp6379
a(I175
I410
tp6380
aa(lp6381
(I138
I752
tp6382
a(I210
I368
tp6383
a(I167
I836
tp6384
a(I199
I750
tp6385
a(I228
I777
tp6386
a(I30
I636
tp6387
a(I192
I627
tp6388
a(I14
I179
tp6389
a(I20
I473
tp6390
a(I2
I761
tp6391
aa(lp6392
(I12
I180
tp6393
a(I72
I380
tp6394
a(I79
I492
tp6395
a(I97
I481
tp6396
a(I21
I582
tp6397
a(I214
I630
tp6398
a(I109
I320
tp6399
a(I19
I124
tp6400
a(I200
I810
tp6401
a(I110
I433
tp6402
aa(lp6403
(I30
I117
tp6404
a(I29
I493
tp6405
a(I69
I197
tp6406
a(I105
I376
tp6407
a(I188
I576
tp6408
a(I35
I744
tp6409
a(I92
I725
tp6410
a(I341
I864
tp6411
a(I39
I285
tp6412
a(I9
I690
tp6413
aa(lp6414
(I61
I320
tp6415
a(I30
I373
tp6416
a(I144
I842
tp6417
a(I78
I386
tp6418
a(I370
I556
tp6419
a(I5
I641
tp6420
a(I45
I413
tp6421
a(I31
I365
tp6422
a(I49
I159
tp6423
a(I27
I164
tp6424
aa(lp6425
(I9
I221
tp6426
a(I6
I122
tp6427
a(I70
I186
tp6428
a(I38
I946
tp6429
a(I253
I546
tp6430
a(I289
I701
tp6431
a(I18
I965
tp6432
a(I124
I390
tp6433
a(I17
I869
tp6434
a(I53
I213
tp6435
aa(lp6436
(I81
I554
tp6437
a(I411
I905
tp6438
a(I14
I117
tp6439
a(I105
I423
tp6440
a(I85
I534
tp6441
a(I43
I758
tp6442
a(I47
I774
tp6443
a(I63
I617
tp6444
a(I78
I173
tp6445
a(I182
I940
tp6446
aa(lp6447
(I74
I956
tp6448
a(I59
I318
tp6449
a(I227
I840
tp6450
a(I93
I648
tp6451
a(I66
I596
tp6452
a(I282
I424
tp6453
a(I114
I322
tp6454
a(I27
I489
tp6455
a(I19
I187
tp6456
a(I21
I772
tp6457
aa(lp6458
(I173
I594
tp6459
a(I14
I647
tp6460
a(I267
I595
tp6461
a(I20
I140
tp6462
a(I32
I170
tp6463
a(I16
I372
tp6464
a(I23
I516
tp6465
a(I67
I218
tp6466
a(I210
I764
tp6467
a(I132
I576
tp6468
aa(lp6469
(I334
I943
tp6470
a(I51
I549
tp6471
a(I153
I967
tp6472
a(I92
I343
tp6473
a(I33
I571
tp6474
a(I4
I106
tp6475
a(I90
I781
tp6476
a(I48
I358
tp6477
a(I37
I631
tp6478
a(I346
I486
tp6479
aa(lp6480
(I46
I392
tp6481
a(I13
I405
tp6482
a(I52
I359
tp6483
a(I46
I131
tp6484
a(I210
I501
tp6485
a(I239
I790
tp6486
a(I84
I840
tp6487
a(I42
I708
tp6488
a(I171
I552
tp6489
a(I74
I485
tp6490
aa(lp6491
(I63
I614
tp6492
a(I6
I911
tp6493
a(I13
I178
tp6494
a(I1
I185
tp6495
a(I154
I304
tp6496
a(I270
I337
tp6497
a(I1
I597
tp6498
a(I287
I944
tp6499
a(I4
I573
tp6500
a(I133
I725
tp6501
aa(lp6502
(I33
I360
tp6503
a(I86
I313
tp6504
a(I43
I566
tp6505
a(I178
I422
tp6506
a(I236
I579
tp6507
a(I4
I566
tp6508
a(I168
I607
tp6509
a(I17
I808
tp6510
a(I9
I202
tp6511
a(I323
I880
tp6512
aa(lp6513
(I105
I888
tp6514
a(I165
I966
tp6515
a(I11
I330
tp6516
a(I5
I121
tp6517
a(I121
I762
tp6518
a(I6
I432
tp6519
a(I66
I839
tp6520
a(I47
I964
tp6521
a(I345
I862
tp6522
a(I354
I385
tp6523
aa(lp6524
(I177
I863
tp6525
a(I33
I718
tp6526
a(I7
I244
tp6527
a(I109
I696
tp6528
a(I1
I130
tp6529
a(I102
I344
tp6530
a(I21
I290
tp6531
a(I229
I359
tp6532
a(I286
I994
tp6533
a(I234
I940
tp6534
aa(lp6535
(I29
I681
tp6536
a(I219
I497
tp6537
a(I5
I189
tp6538
a(I161
I566
tp6539
a(I231
I799
tp6540
a(I125
I334
tp6541
a(I15
I692
tp6542
a(I138
I718
tp6543
a(I251
I988
tp6544
a(I50
I799
tp6545
aa(lp6546
(I43
I463
tp6547
a(I95
I401
tp6548
a(I4
I388
tp6549
a(I145
I827
tp6550
a(I67
I832
tp6551
a(I81
I602
tp6552
a(I7
I160
tp6553
a(I355
I973
tp6554
a(I668
I972
tp6555
a(I165
I992
tp6556
aa(lp6557
(I33
I101
tp6558
a(I162
I989
tp6559
a(I87
I257
tp6560
a(I8
I671
tp6561
a(I16
I319
tp6562
a(I17
I201
tp6563
a(I164
I587
tp6564
a(I36
I375
tp6565
a(I181
I422
tp6566
a(I199
I982
tp6567
aa(lp6568
(I93
I317
tp6569
a(I32
I803
tp6570
a(I101
I726
tp6571
a(I30
I858
tp6572
a(I160
I700
tp6573
a(I30
I104
tp6574
a(I16
I229
tp6575
a(I190
I283
tp6576
a(I208
I993
tp6577
a(I11
I834
tp6578
aa(lp6579
(I20
I419
tp6580
a(I94
I446
tp6581
a(I287
I835
tp6582
a(I98
I775
tp6583
a(I7
I519
tp6584
a(I77
I115
tp6585
a(I58
I547
tp6586
a(I123
I446
tp6587
a(I35
I230
tp6588
a(I37
I871
tp6589
aa(lp6590
(I49
I545
tp6591
a(I122
I985
tp6592
a(I101
I158
tp6593
a(I157
I680
tp6594
a(I3
I202
tp6595
a(I21
I340
tp6596
a(I255
I894
tp6597
a(I203
I914
tp6598
a(I138
I468
tp6599
a(I13
I418
tp6600
aa(lp6601
(I203
I279
tp6602
a(I112
I671
tp6603
a(I38
I963
tp6604
a(I8
I240
tp6605
a(I168
I693
tp6606
a(I118
I390
tp6607
a(I30
I365
tp6608
a(I25
I574
tp6609
a(I119
I565
tp6610
a(I133
I966
tp6611
aa(lp6612
(I8
I683
tp6613
a(I7
I849
tp6614
a(I53
I910
tp6615
a(I100
I266
tp6616
a(I11
I102
tp6617
a(I8
I707
tp6618
a(I517
I798
tp6619
a(I406
I857
tp6620
a(I180
I810
tp6621
a(I59
I900
tp6622
aa(lp6623
(I7
I335
tp6624
a(I116
I575
tp6625
a(I225
I793
tp6626
a(I129
I771
tp6627
a(I157
I792
tp6628
a(I8
I738
tp6629
a(I82
I900
tp6630
a(I282
I648
tp6631
a(I52
I964
tp6632
a(I171
I323
tp6633
aa(lp6634
(I199
I999
tp6635
a(I20
I456
tp6636
a(I44
I439
tp6637
a(I47
I105
tp6638
a(I1
I795
tp6639
a(I48
I989
tp6640
a(I362
I987
tp6641
a(I10
I533
tp6642
a(I74
I140
tp6643
a(I134
I574
tp6644
aa(lp6645
(I25
I720
tp6646
a(I1
I334
tp6647
a(I158
I795
tp6648
a(I275
I861
tp6649
a(I75
I862
tp6650
a(I96
I768
tp6651
a(I96
I840
tp6652
a(I217
I831
tp6653
a(I310
I451
tp6654
a(I128
I799
tp6655
aa(lp6656
(I90
I783
tp6657
a(I45
I994
tp6658
a(I147
I899
tp6659
a(I62
I781
tp6660
a(I185
I894
tp6661
a(I391
I725
tp6662
a(I522
I865
tp6663
a(I45
I825
tp6664
a(I182
I994
tp6665
a(I2
I489
tp6666
aa(lp6667
(I36
I386
tp6668
a(I188
I768
tp6669
a(I24
I447
tp6670
a(I231
I425
tp6671
a(I156
I692
tp6672
a(I146
I399
tp6673
a(I12
I258
tp6674
a(I17
I270
tp6675
a(I87
I621
tp6676
a(I32
I150
tp6677
aa(lp6678
(I35
I257
tp6679
a(I7
I438
tp6680
a(I723
I956
tp6681
a(I68
I805
tp6682
a(I13
I789
tp6683
a(I86
I236
tp6684
a(I35
I851
tp6685
a(I100
I789
tp6686
a(I120
I625
tp6687
a(I154
I599
tp6688
aa(lp6689
(I34
I656
tp6690
a(I21
I704
tp6691
a(I40
I619
tp6692
a(I69
I195
tp6693
a(I593
I995
tp6694
a(I9
I436
tp6695
a(I256
I403
tp6696
a(I25
I442
tp6697
a(I5
I396
tp6698
a(I118
I713
tp6699
aa(lp6700
(I4
I119
tp6701
a(I75
I841
tp6702
a(I176
I461
tp6703
a(I179
I829
tp6704
a(I53
I445
tp6705
a(I62
I391
tp6706
a(I93
I967
tp6707
a(I561
I723
tp6708
a(I74
I649
tp6709
a(I2
I449
tp6710
aa(lp6711
(I73
I812
tp6712
a(I153
I753
tp6713
a(I76
I558
tp6714
a(I129
I625
tp6715
a(I500
I899
tp6716
a(I78
I408
tp6717
a(I28
I470
tp6718
a(I52
I231
tp6719
a(I84
I344
tp6720
a(I46
I577
tp6721
aa(lp6722
(I12
I536
tp6723
a(I197
I402
tp6724
a(I10
I923
tp6725
a(I38
I345
tp6726
a(I121
I713
tp6727
a(I28
I563
tp6728
a(I57
I455
tp6729
a(I15
I261
tp6730
a(I305
I646
tp6731
a(I279
I578
tp6732
aa(lp6733
(I200
I483
tp6734
a(I154
I827
tp6735
a(I39
I192
tp6736
a(I151
I715
tp6737
a(I17
I460
tp6738
a(I226
I854
tp6739
a(I110
I901
tp6740
a(I21
I100
tp6741
a(I146
I571
tp6742
a(I31
I373
tp6743
aa(lp6744
(I65
I261
tp6745
a(I129
I414
tp6746
a(I66
I403
tp6747
a(I76
I469
tp6748
a(I20
I437
tp6749
a(I9
I483
tp6750
a(I230
I318
tp6751
a(I15
I179
tp6752
a(I21
I220
tp6753
a(I93
I729
tp6754
aa(lp6755
(I120
I597
tp6756
a(I177
I800
tp6757
a(I23
I186
tp6758
a(I4
I544
tp6759
a(I93
I396
tp6760
a(I429
I701
tp6761
a(I300
I957
tp6762
a(I1
I745
tp6763
a(I19
I123
tp6764
a(I56
I484
tp6765
aa(lp6766
(I5
I246
tp6767
a(I284
I828
tp6768
a(I2
I280
tp6769
a(I96
I421
tp6770
a(I5
I123
tp6771
a(I150
I870
tp6772
a(I93
I303
tp6773
a(I403
I604
tp6774
a(I17
I553
tp6775
a(I94
I564
tp6776
aa(lp6777
(I44
I103
tp6778
a(I18
I610
tp6779
a(I4
I106
tp6780
a(I114
I401
tp6781
a(I139
I385
tp6782
a(I120
I823
tp6783
a(I40
I433
tp6784
a(I71
I942
tp6785
a(I263
I722
tp6786
a(I52
I310
tp6787
aa(lp6788
(I9
I694
tp6789
a(I72
I275
tp6790
a(I7
I242
tp6791
a(I7
I765
tp6792
a(I102
I407
tp6793
a(I587
I952
tp6794
a(I76
I644
tp6795
a(I348
I683
tp6796
a(I20
I283
tp6797
a(I19
I176
tp6798
aa(lp6799
(I173
I885
tp6800
a(I42
I889
tp6801
a(I266
I664
tp6802
a(I33
I352
tp6803
a(I115
I948
tp6804
a(I37
I263
tp6805
a(I152
I328
tp6806
a(I10
I271
tp6807
a(I96
I307
tp6808
a(I25
I144
tp6809
aa(lp6810
(I16
I382
tp6811
a(I273
I789
tp6812
a(I19
I198
tp6813
a(I106
I301
tp6814
a(I15
I777
tp6815
a(I7
I520
tp6816
a(I11
I196
tp6817
a(I274
I828
tp6818
a(I18
I524
tp6819
a(I470
I673
tp6820
aa(lp6821
(I57
I461
tp6822
a(I262
I890
tp6823
a(I103
I780
tp6824
a(I109
I832
tp6825
a(I99
I178
tp6826
a(I1
I180
tp6827
a(I59
I571
tp6828
a(I86
I940
tp6829
a(I50
I183
tp6830
a(I150
I544
tp6831
aa(lp6832
(I32
I223
tp6833
a(I67
I734
tp6834
a(I201
I673
tp6835
a(I121
I252
tp6836
a(I74
I736
tp6837
a(I7
I420
tp6838
a(I173
I419
tp6839
a(I18
I784
tp6840
a(I68
I562
tp6841
a(I115
I380
tp6842
aa(lp6843
(I125
I679
tp6844
a(I121
I779
tp6845
a(I343
I674
tp6846
a(I44
I233
tp6847
a(I112
I798
tp6848
a(I3
I110
tp6849
a(I66
I479
tp6850
a(I24
I223
tp6851
a(I135
I522
tp6852
a(I49
I176
tp6853
aa(lp6854
(I25
I690
tp6855
a(I28
I818
tp6856
a(I210
I437
tp6857
a(I89
I786
tp6858
a(I69
I382
tp6859
a(I255
I777
tp6860
a(I31
I272
tp6861
a(I171
I884
tp6862
a(I290
I700
tp6863
a(I64
I679
tp6864
aa(lp6865
(I9
I599
tp6866
a(I10
I557
tp6867
a(I99
I230
tp6868
a(I2
I646
tp6869
a(I152
I604
tp6870
a(I92
I471
tp6871
a(I59
I482
tp6872
a(I79
I189
tp6873
a(I36
I269
tp6874
a(I392
I986
tp6875
aa(lp6876
(I44
I194
tp6877
a(I26
I264
tp6878
a(I1
I784
tp6879
a(I272
I963
tp6880
a(I132
I643
tp6881
a(I68
I278
tp6882
a(I163
I611
tp6883
a(I287
I980
tp6884
a(I110
I999
tp6885
a(I39
I148
tp6886
aa(lp6887
(I311
I821
tp6888
a(I43
I497
tp6889
a(I40
I257
tp6890
a(I118
I327
tp6891
a(I51
I600
tp6892
a(I60
I280
tp6893
a(I14
I552
tp6894
a(I40
I523
tp6895
a(I224
I730
tp6896
a(I247
I816
tp6897
aa(lp6898
(I169
I241
tp6899
a(I236
I597
tp6900
a(I158
I654
tp6901
a(I32
I347
tp6902
a(I11
I861
tp6903
a(I17
I546
tp6904
a(I42
I727
tp6905
a(I30
I321
tp6906
a(I79
I724
tp6907
a(I84
I331
tp6908
aa(lp6909
(I59
I365
tp6910
a(I32
I372
tp6911
a(I24
I345
tp6912
a(I42
I407
tp6913
a(I14
I120
tp6914
a(I227
I599
tp6915
a(I128
I328
tp6916
a(I47
I702
tp6917
a(I38
I127
tp6918
a(I168
I538
tp6919
aa(lp6920
(I88
I427
tp6921
a(I25
I337
tp6922
a(I104
I669
tp6923
a(I110
I926
tp6924
a(I418
I574
tp6925
a(I137
I946
tp6926
a(I12
I343
tp6927
a(I41
I690
tp6928
a(I249
I856
tp6929
a(I116
I647
tp6930
aa(lp6931
(I316
I952
tp6932
a(I114
I175
tp6933
a(I104
I765
tp6934
a(I61
I883
tp6935
a(I66
I807
tp6936
a(I61
I763
tp6937
a(I224
I973
tp6938
a(I18
I521
tp6939
a(I26
I371
tp6940
a(I161
I524
tp6941
aa(lp6942
(I271
I989
tp6943
a(I166
I347
tp6944
a(I35
I646
tp6945
a(I3
I410
tp6946
a(I19
I447
tp6947
a(I5
I267
tp6948
a(I100
I736
tp6949
a(I15
I913
tp6950
a(I190
I815
tp6951
a(I707
I969
tp6952
aa(lp6953
(I86
I730
tp6954
a(I116
I256
tp6955
a(I12
I592
tp6956
a(I1
I192
tp6957
a(I35
I390
tp6958
a(I206
I594
tp6959
a(I312
I905
tp6960
a(I188
I755
tp6961
a(I237
I675
tp6962
a(I10
I741
tp6963
aa(lp6964
(I231
I936
tp6965
a(I14
I735
tp6966
a(I40
I352
tp6967
a(I43
I675
tp6968
a(I52
I455
tp6969
a(I10
I171
tp6970
a(I63
I348
tp6971
a(I394
I632
tp6972
a(I131
I901
tp6973
a(I54
I129
tp6974
aa(lp6975
(I179
I684
tp6976
a(I177
I351
tp6977
a(I250
I991
tp6978
a(I1
I277
tp6979
a(I13
I326
tp6980
a(I359
I783
tp6981
a(I45
I606
tp6982
a(I35
I311
tp6983
a(I38
I455
tp6984
a(I183
I904
tp6985
aa(lp6986
(I100
I530
tp6987
a(I220
I896
tp6988
a(I136
I486
tp6989
a(I224
I449
tp6990
a(I70
I727
tp6991
a(I56
I113
tp6992
a(I3
I115
tp6993
a(I57
I517
tp6994
a(I10
I230
tp6995
a(I4
I795
tp6996
aa(lp6997
(I41
I171
tp6998
a(I48
I352
tp6999
a(I406
I927
tp7000
a(I17
I373
tp7001
a(I40
I455
tp7002
a(I176
I865
tp7003
a(I377
I810
tp7004
a(I34
I728
tp7005
a(I32
I105
tp7006
a(I19
I892
tp7007
aa(lp7008
(I166
I817
tp7009
a(I76
I893
tp7010
a(I61
I340
tp7011
a(I249
I667
tp7012
a(I45
I320
tp7013
a(I6
I407
tp7014
a(I367
I801
tp7015
a(I48
I627
tp7016
a(I51
I160
tp7017
a(I133
I982
tp7018
aa(lp7019
(I67
I541
tp7020
a(I6
I244
tp7021
a(I287
I718
tp7022
a(I12
I282
tp7023
a(I184
I720
tp7024
a(I56
I325
tp7025
a(I31
I272
tp7026
a(I100
I286
tp7027
a(I75
I207
tp7028
a(I106
I747
tp7029
aa(lp7030
(I36
I223
tp7031
a(I46
I501
tp7032
a(I194
I697
tp7033
a(I242
I711
tp7034
a(I319
I475
tp7035
a(I4
I231
tp7036
a(I26
I951
tp7037
a(I136
I457
tp7038
a(I60
I591
tp7039
a(I1
I476
tp7040
aa(lp7041
(I8
I296
tp7042
a(I104
I910
tp7043
a(I51
I902
tp7044
a(I174
I354
tp7045
a(I22
I895
tp7046
a(I171
I699
tp7047
a(I222
I484
tp7048
a(I37
I201
tp7049
a(I34
I295
tp7050
a(I43
I159
tp7051
aa(lp7052
(I25
I375
tp7053
a(I608
I915
tp7054
a(I116
I806
tp7055
a(I33
I239
tp7056
a(I52
I222
tp7057
a(I1
I303
tp7058
a(I76
I926
tp7059
a(I236
I954
tp7060
a(I279
I763
tp7061
a(I10
I246
tp7062
aa(lp7063
(I40
I627
tp7064
a(I170
I492
tp7065
a(I77
I307
tp7066
a(I421
I822
tp7067
a(I402
I962
tp7068
a(I15
I438
tp7069
a(I31
I398
tp7070
a(I115
I963
tp7071
a(I26
I271
tp7072
a(I37
I521
tp7073
aa(lp7074
(I31
I759
tp7075
a(I50
I477
tp7076
a(I129
I360
tp7077
a(I76
I421
tp7078
a(I40
I373
tp7079
a(I92
I179
tp7080
a(I172
I372
tp7081
a(I6
I215
tp7082
a(I12
I172
tp7083
a(I94
I849
tp7084
aa(lp7085
(I68
I448
tp7086
a(I53
I569
tp7087
a(I36
I912
tp7088
a(I142
I612
tp7089
a(I62
I749
tp7090
a(I3
I308
tp7091
a(I43
I548
tp7092
a(I67
I158
tp7093
a(I563
I736
tp7094
a(I90
I819
tp7095
aa(lp7096
(I75
I777
tp7097
a(I18
I323
tp7098
a(I197
I354
tp7099
a(I34
I677
tp7100
a(I230
I936
tp7101
a(I81
I579
tp7102
a(I49
I334
tp7103
a(I231
I886
tp7104
a(I309
I834
tp7105
a(I49
I720
tp7106
aa(lp7107
(I22
I339
tp7108
a(I49
I356
tp7109
a(I97
I342
tp7110
a(I44
I883
tp7111
a(I662
I911
tp7112
a(I383
I972
tp7113
a(I118
I593
tp7114
a(I17
I484
tp7115
a(I6
I788
tp7116
a(I36
I388
tp7117
aa(lp7118
(I2
I570
tp7119
a(I255
I994
tp7120
a(I598
I925
tp7121
a(I20
I376
tp7122
a(I498
I749
tp7123
a(I6
I108
tp7124
a(I10
I249
tp7125
a(I17
I420
tp7126
a(I18
I123
tp7127
a(I49
I584
tp7128
aa(lp7129
(I121
I328
tp7130
a(I316
I817
tp7131
a(I7
I177
tp7132
a(I106
I912
tp7133
a(I12
I132
tp7134
a(I29
I151
tp7135
a(I245
I427
tp7136
a(I1
I164
tp7137
a(I51
I641
tp7138
a(I67
I499
tp7139
aa(lp7140
(I115
I301
tp7141
a(I328
I731
tp7142
a(I66
I298
tp7143
a(I65
I915
tp7144
a(I46
I491
tp7145
a(I1
I520
tp7146
a(I23
I661
tp7147
a(I321
I971
tp7148
a(I298
I957
tp7149
a(I82
I853
tp7150
aa(lp7151
(I228
I397
tp7152
a(I12
I315
tp7153
a(I146
I942
tp7154
a(I118
I425
tp7155
a(I28
I655
tp7156
a(I374
I716
tp7157
a(I65
I362
tp7158
a(I60
I655
tp7159
a(I44
I911
tp7160
a(I24
I393
tp7161
aa(lp7162
(I89
I855
tp7163
a(I291
I965
tp7164
a(I150
I670
tp7165
a(I129
I977
tp7166
a(I109
I594
tp7167
a(I67
I254
tp7168
a(I28
I545
tp7169
a(I183
I527
tp7170
a(I12
I111
tp7171
a(I148
I546
tp7172
aa(lp7173
(I38
I178
tp7174
a(I9
I310
tp7175
a(I231
I655
tp7176
a(I85
I902
tp7177
a(I4
I205
tp7178
a(I63
I245
tp7179
a(I115
I281
tp7180
a(I6
I440
tp7181
a(I446
I842
tp7182
a(I44
I646
tp7183
aa(lp7184
(I186
I991
tp7185
a(I96
I233
tp7186
a(I76
I305
tp7187
a(I85
I803
tp7188
a(I28
I469
tp7189
a(I146
I239
tp7190
a(I100
I360
tp7191
a(I8
I202
tp7192
a(I24
I699
tp7193
a(I6
I737
tp7194
aa(lp7195
(I97
I759
tp7196
a(I27
I224
tp7197
a(I279
I651
tp7198
a(I61
I912
tp7199
a(I54
I299
tp7200
a(I448
I849
tp7201
a(I13
I111
tp7202
a(I50
I225
tp7203
a(I7
I366
tp7204
a(I98
I551
tp7205
aa(lp7206
(I24
I239
tp7207
a(I31
I796
tp7208
a(I233
I500
tp7209
a(I13
I113
tp7210
a(I93
I791
tp7211
a(I208
I722
tp7212
a(I48
I901
tp7213
a(I137
I310
tp7214
a(I236
I873
tp7215
a(I73
I835
tp7216
aa(lp7217
(I91
I401
tp7218
a(I29
I556
tp7219
a(I82
I553
tp7220
a(I31
I143
tp7221
a(I261
I910
tp7222
a(I490
I817
tp7223
a(I90
I604
tp7224
a(I5
I571
tp7225
a(I256
I902
tp7226
a(I18
I924
tp7227
aa(lp7228
(I21
I799
tp7229
a(I339
I767
tp7230
a(I111
I513
tp7231
a(I178
I466
tp7232
a(I139
I454
tp7233
a(I25
I773
tp7234
a(I137
I624
tp7235
a(I1
I143
tp7236
a(I26
I143
tp7237
a(I173
I952
tp7238
aa(lp7239
(I91
I579
tp7240
a(I59
I578
tp7241
a(I20
I420
tp7242
a(I69
I709
tp7243
a(I204
I974
tp7244
a(I94
I312
tp7245
a(I26
I128
tp7246
a(I222
I327
tp7247
a(I97
I649
tp7248
a(I30
I753
tp7249
aa(lp7250
(I44
I993
tp7251
a(I86
I136
tp7252
a(I70
I667
tp7253
a(I8
I908
tp7254
a(I22
I343
tp7255
a(I120
I677
tp7256
a(I139
I910
tp7257
a(I39
I234
tp7258
a(I54
I120
tp7259
a(I123
I665
tp7260
aa(lp7261
(I1
I212
tp7262
a(I140
I599
tp7263
a(I61
I263
tp7264
a(I137
I811
tp7265
a(I53
I624
tp7266
a(I127
I272
tp7267
a(I1
I261
tp7268
a(I43
I154
tp7269
a(I141
I561
tp7270
a(I111
I424
tp7271
aa(lp7272
(I23
I238
tp7273
a(I111
I589
tp7274
a(I26
I492
tp7275
a(I151
I659
tp7276
a(I97
I394
tp7277
a(I24
I264
tp7278
a(I31
I221
tp7279
a(I25
I320
tp7280
a(I48
I109
tp7281
a(I284
I675
tp7282
aa(lp7283
(I154
I861
tp7284
a(I40
I220
tp7285
a(I350
I844
tp7286
a(I40
I437
tp7287
a(I149
I501
tp7288
a(I229
I834
tp7289
a(I266
I776
tp7290
a(I30
I768
tp7291
a(I4
I103
tp7292
a(I50
I399
tp7293
aa(lp7294
(I54
I951
tp7295
a(I30
I209
tp7296
a(I314
I423
tp7297
a(I90
I634
tp7298
a(I51
I975
tp7299
a(I19
I358
tp7300
a(I43
I293
tp7301
a(I46
I739
tp7302
a(I54
I214
tp7303
a(I199
I592
tp7304
aa(lp7305
(I5
I255
tp7306
a(I120
I916
tp7307
a(I22
I446
tp7308
a(I25
I383
tp7309
a(I634
I955
tp7310
a(I55
I521
tp7311
a(I150
I822
tp7312
a(I50
I308
tp7313
a(I29
I981
tp7314
a(I332
I572
tp7315
aa(lp7316
(I60
I483
tp7317
a(I245
I737
tp7318
a(I362
I983
tp7319
a(I9
I583
tp7320
a(I35
I765
tp7321
a(I77
I471
tp7322
a(I336
I967
tp7323
a(I47
I167
tp7324
a(I5
I993
tp7325
a(I211
I692
tp7326
aa(lp7327
(I1
I108
tp7328
a(I105
I659
tp7329
a(I53
I764
tp7330
a(I343
I918
tp7331
a(I66
I462
tp7332
a(I17
I108
tp7333
a(I86
I872
tp7334
a(I131
I896
tp7335
a(I446
I629
tp7336
a(I100
I801
tp7337
aa(lp7338
(I60
I762
tp7339
a(I122
I821
tp7340
a(I7
I115
tp7341
a(I85
I456
tp7342
a(I8
I376
tp7343
a(I190
I346
tp7344
a(I75
I636
tp7345
a(I48
I297
tp7346
a(I15
I629
tp7347
a(I382
I597
tp7348
aa(lp7349
(I128
I485
tp7350
a(I120
I423
tp7351
a(I212
I813
tp7352
a(I18
I529
tp7353
a(I247
I879
tp7354
a(I80
I812
tp7355
a(I68
I377
tp7356
a(I22
I671
tp7357
a(I156
I481
tp7358
a(I60
I264
tp7359
aa(lp7360
(I55
I727
tp7361
a(I40
I265
tp7362
a(I238
I684
tp7363
a(I26
I314
tp7364
a(I81
I541
tp7365
a(I81
I974
tp7366
a(I149
I437
tp7367
a(I310
I576
tp7368
a(I10
I338
tp7369
a(I179
I952
tp7370
aa(lp7371
(I77
I335
tp7372
a(I24
I187
tp7373
a(I61
I672
tp7374
a(I113
I871
tp7375
a(I103
I832
tp7376
a(I245
I606
tp7377
a(I284
I710
tp7378
a(I98
I601
tp7379
a(I8
I840
tp7380
a(I227
I735
tp7381
aa(lp7382
(I83
I294
tp7383
a(I56
I511
tp7384
a(I16
I200
tp7385
a(I1
I754
tp7386
a(I150
I937
tp7387
a(I335
I673
tp7388
a(I29
I311
tp7389
a(I39
I480
tp7390
a(I217
I924
tp7391
a(I381
I852
tp7392
aa(lp7393
(I161
I794
tp7394
a(I40
I600
tp7395
a(I28
I269
tp7396
a(I160
I971
tp7397
a(I22
I311
tp7398
a(I515
I774
tp7399
a(I115
I553
tp7400
a(I36
I171
tp7401
a(I49
I877
tp7402
a(I79
I327
tp7403
aa(lp7404
(I65
I607
tp7405
a(I22
I677
tp7406
a(I249
I744
tp7407
a(I89
I576
tp7408
a(I269
I533
tp7409
a(I48
I723
tp7410
a(I37
I817
tp7411
a(I2
I540
tp7412
a(I95
I341
tp7413
a(I310
I669
tp7414
aa(lp7415
(I166
I900
tp7416
a(I103
I642
tp7417
a(I101
I584
tp7418
a(I39
I784
tp7419
a(I110
I216
tp7420
a(I18
I170
tp7421
a(I185
I539
tp7422
a(I37
I544
tp7423
a(I5
I245
tp7424
a(I250
I670
tp7425
aa(lp7426
(I43
I621
tp7427
a(I21
I421
tp7428
a(I45
I557
tp7429
a(I113
I339
tp7430
a(I287
I664
tp7431
a(I2
I340
tp7432
a(I592
I986
tp7433
a(I56
I525
tp7434
a(I12
I850
tp7435
a(I221
I740
tp7436
aa(lp7437
(I581
I728
tp7438
a(I6
I763
tp7439
a(I104
I375
tp7440
a(I29
I342
tp7441
a(I14
I966
tp7442
a(I82
I714
tp7443
a(I431
I757
tp7444
a(I50
I625
tp7445
a(I4
I135
tp7446
a(I2
I301
tp7447
aa(lp7448
(I258
I958
tp7449
a(I97
I426
tp7450
a(I11
I262
tp7451
a(I16
I299
tp7452
a(I177
I597
tp7453
a(I175
I663
tp7454
a(I22
I154
tp7455
a(I91
I218
tp7456
a(I59
I756
tp7457
a(I48
I242
tp7458
aa(lp7459
(I12
I615
tp7460
a(I13
I254
tp7461
a(I428
I836
tp7462
a(I24
I604
tp7463
a(I183
I414
tp7464
a(I95
I473
tp7465
a(I199
I909
tp7466
a(I36
I166
tp7467
a(I43
I243
tp7468
a(I106
I961
tp7469
aa(lp7470
(I26
I153
tp7471
a(I16
I299
tp7472
a(I141
I922
tp7473
a(I11
I184
tp7474
a(I263
I881
tp7475
a(I40
I887
tp7476
a(I170
I670
tp7477
a(I11
I834
tp7478
a(I220
I319
tp7479
a(I43
I171
tp7480
aa(lp7481
(I24
I563
tp7482
a(I163
I854
tp7483
a(I210
I534
tp7484
a(I114
I720
tp7485
a(I153
I668
tp7486
a(I56
I587
tp7487
a(I323
I636
tp7488
a(I83
I527
tp7489
a(I41
I475
tp7490
a(I127
I976
tp7491
aa(lp7492
(I68
I622
tp7493
a(I3
I370
tp7494
a(I7
I108
tp7495
a(I56
I298
tp7496
a(I137
I530
tp7497
a(I277
I798
tp7498
a(I29
I361
tp7499
a(I64
I144
tp7500
a(I125
I876
tp7501
a(I84
I246
tp7502
aa(lp7503
(I7
I163
tp7504
a(I78
I133
tp7505
a(I4
I574
tp7506
a(I652
I931
tp7507
a(I50
I673
tp7508
a(I116
I930
tp7509
a(I22
I739
tp7510
a(I67
I943
tp7511
a(I21
I102
tp7512
a(I60
I423
tp7513
aa(lp7514
(I2
I923
tp7515
a(I136
I213
tp7516
a(I51
I197
tp7517
a(I46
I549
tp7518
a(I77
I492
tp7519
a(I8
I534
tp7520
a(I61
I705
tp7521
a(I10
I342
tp7522
a(I213
I796
tp7523
a(I120
I266
tp7524
aa(lp7525
(I76
I641
tp7526
a(I8
I225
tp7527
a(I53
I302
tp7528
a(I75
I353
tp7529
a(I12
I310
tp7530
a(I561
I822
tp7531
a(I31
I506
tp7532
a(I180
I482
tp7533
a(I73
I768
tp7534
a(I31
I159
tp7535
aa(lp7536
(I229
I795
tp7537
a(I59
I766
tp7538
a(I23
I136
tp7539
a(I184
I823
tp7540
a(I73
I642
tp7541
a(I314
I983
tp7542
a(I138
I339
tp7543
a(I6
I167
tp7544
a(I13
I164
tp7545
a(I42
I158
tp7546
aa(lp7547
(I15
I339
tp7548
a(I246
I669
tp7549
a(I23
I113
tp7550
a(I156
I572
tp7551
a(I8
I701
tp7552
a(I72
I151
tp7553
a(I29
I221
tp7554
a(I7
I109
tp7555
a(I141
I390
tp7556
a(I16
I365
tp7557
aa(lp7558
(I2
I902
tp7559
a(I1
I168
tp7560
a(I127
I209
tp7561
a(I130
I506
tp7562
a(I6
I100
tp7563
a(I163
I994
tp7564
a(I279
I914
tp7565
a(I123
I288
tp7566
a(I41
I333
tp7567
a(I30
I841
tp7568
aa(lp7569
(I44
I342
tp7570
a(I174
I583
tp7571
a(I100
I370
tp7572
a(I52
I403
tp7573
a(I101
I772
tp7574
a(I408
I941
tp7575
a(I141
I531
tp7576
a(I31
I697
tp7577
a(I117
I747
tp7578
a(I74
I545
tp7579
aa(lp7580
(I132
I628
tp7581
a(I34
I430
tp7582
a(I72
I342
tp7583
a(I2
I512
tp7584
a(I165
I620
tp7585
a(I33
I188
tp7586
a(I11
I146
tp7587
a(I164
I594
tp7588
a(I202
I751
tp7589
a(I297
I703
tp7590
aa(lp7591
(I41
I363
tp7592
a(I20
I982
tp7593
a(I92
I448
tp7594
a(I149
I323
tp7595
a(I55
I531
tp7596
a(I16
I124
tp7597
a(I206
I616
tp7598
a(I159
I985
tp7599
a(I88
I347
tp7600
a(I166
I815
tp7601
aa(lp7602
(I127
I310
tp7603
a(I24
I377
tp7604
a(I323
I977
tp7605
a(I126
I669
tp7606
a(I63
I801
tp7607
a(I15
I491
tp7608
a(I204
I550
tp7609
a(I320
I942
tp7610
a(I145
I989
tp7611
a(I34
I994
tp7612
aa(lp7613
(I14
I569
tp7614
a(I30
I256
tp7615
a(I183
I621
tp7616
a(I180
I746
tp7617
a(I112
I342
tp7618
a(I28
I820
tp7619
a(I335
I574
tp7620
a(I23
I323
tp7621
a(I161
I790
tp7622
a(I28
I307
tp7623
aa(lp7624
(I32
I120
tp7625
a(I32
I757
tp7626
a(I57
I760
tp7627
a(I73
I833
tp7628
a(I120
I837
tp7629
a(I214
I890
tp7630
a(I53
I610
tp7631
a(I216
I536
tp7632
a(I69
I187
tp7633
a(I76
I282
tp7634
aa(lp7635
(I168
I496
tp7636
a(I33
I309
tp7637
a(I53
I866
tp7638
a(I60
I479
tp7639
a(I100
I799
tp7640
a(I51
I382
tp7641
a(I102
I992
tp7642
a(I1
I207
tp7643
a(I680
I726
tp7644
a(I52
I944
tp7645
aa(lp7646
(I318
I903
tp7647
a(I336
I867
tp7648
a(I86
I280
tp7649
a(I10
I434
tp7650
a(I44
I686
tp7651
a(I66
I986
tp7652
a(I87
I403
tp7653
a(I100
I355
tp7654
a(I143
I570
tp7655
a(I15
I381
tp7656
aa(lp7657
(I3
I678
tp7658
a(I16
I123
tp7659
a(I66
I646
tp7660
a(I414
I994
tp7661
a(I55
I310
tp7662
a(I122
I541
tp7663
a(I90
I408
tp7664
a(I174
I944
tp7665
a(I179
I377
tp7666
a(I36
I740
tp7667
aa(lp7668
(I329
I803
tp7669
a(I33
I435
tp7670
a(I81
I831
tp7671
a(I285
I776
tp7672
a(I15
I677
tp7673
a(I38
I275
tp7674
a(I34
I411
tp7675
a(I31
I529
tp7676
a(I8
I225
tp7677
a(I438
I623
tp7678
aa(lp7679
(I1
I116
tp7680
a(I329
I947
tp7681
a(I138
I775
tp7682
a(I13
I154
tp7683
a(I30
I933
tp7684
a(I164
I406
tp7685
a(I531
I957
tp7686
a(I13
I355
tp7687
a(I172
I552
tp7688
a(I21
I660
tp7689
aa(lp7690
(I226
I616
tp7691
a(I4
I929
tp7692
a(I259
I434
tp7693
a(I48
I463
tp7694
a(I8
I413
tp7695
a(I76
I205
tp7696
a(I22
I853
tp7697
a(I84
I478
tp7698
a(I131
I688
tp7699
a(I15
I111
tp7700
aa(lp7701
(I113
I260
tp7702
a(I72
I817
tp7703
a(I24
I788
tp7704
a(I140
I597
tp7705
a(I129
I246
tp7706
a(I147
I753
tp7707
a(I13
I998
tp7708
a(I146
I814
tp7709
a(I133
I712
tp7710
a(I67
I648
tp7711
aa(lp7712
(I122
I959
tp7713
a(I77
I204
tp7714
a(I167
I433
tp7715
a(I151
I764
tp7716
a(I64
I903
tp7717
a(I16
I520
tp7718
a(I65
I188
tp7719
a(I67
I196
tp7720
a(I54
I493
tp7721
a(I1
I697
tp7722
aa(lp7723
(I14
I416
tp7724
a(I100
I913
tp7725
a(I35
I661
tp7726
a(I107
I577
tp7727
a(I94
I324
tp7728
a(I145
I547
tp7729
a(I477
I581
tp7730
a(I69
I778
tp7731
a(I31
I267
tp7732
a(I8
I270
tp7733
aa(lp7734
(I285
I597
tp7735
a(I78
I213
tp7736
a(I61
I343
tp7737
a(I19
I202
tp7738
a(I281
I885
tp7739
a(I4
I674
tp7740
a(I20
I340
tp7741
a(I9
I341
tp7742
a(I171
I659
tp7743
a(I140
I679
tp7744
aa(lp7745
(I53
I317
tp7746
a(I58
I136
tp7747
a(I28
I871
tp7748
a(I362
I960
tp7749
a(I128
I492
tp7750
a(I23
I818
tp7751
a(I2
I203
tp7752
a(I220
I757
tp7753
a(I219
I555
tp7754
a(I1
I798
tp7755
aa(lp7756
(I94
I235
tp7757
a(I79
I868
tp7758
a(I171
I295
tp7759
a(I39
I842
tp7760
a(I12
I178
tp7761
a(I28
I161
tp7762
a(I6
I992
tp7763
a(I6
I998
tp7764
a(I5
I196
tp7765
a(I165
I278
tp7766
aa(lp7767
(I55
I388
tp7768
a(I97
I479
tp7769
a(I156
I469
tp7770
a(I199
I628
tp7771
a(I45
I246
tp7772
a(I287
I958
tp7773
a(I108
I893
tp7774
a(I161
I973
tp7775
a(I24
I553
tp7776
a(I133
I720
tp7777
aa(lp7778
(I133
I350
tp7779
a(I26
I217
tp7780
a(I18
I700
tp7781
a(I75
I237
tp7782
a(I135
I982
tp7783
a(I100
I283
tp7784
a(I186
I721
tp7785
a(I75
I923
tp7786
a(I39
I563
tp7787
a(I42
I171
tp7788
aa(lp7789
(I6
I220
tp7790
a(I10
I525
tp7791
a(I144
I348
tp7792
a(I42
I320
tp7793
a(I160
I367
tp7794
a(I112
I607
tp7795
a(I332
I928
tp7796
a(I33
I336
tp7797
a(I114
I465
tp7798
a(I60
I795
tp7799
aa(lp7800
(I154
I924
tp7801
a(I251
I955
tp7802
a(I146
I726
tp7803
a(I109
I462
tp7804
a(I83
I737
tp7805
a(I111
I388
tp7806
a(I15
I478
tp7807
a(I110
I343
tp7808
a(I209
I896
tp7809
a(I63
I449
tp7810
aa(lp7811
(I122
I368
tp7812
a(I32
I368
tp7813
a(I7
I321
tp7814
a(I74
I914
tp7815
a(I106
I539
tp7816
a(I66
I430
tp7817
a(I101
I551
tp7818
a(I345
I464
tp7819
a(I108
I673
tp7820
a(I13
I471
tp7821
aa(lp7822
(I94
I811
tp7823
a(I302
I758
tp7824
a(I17
I599
tp7825
a(I10
I461
tp7826
a(I18
I820
tp7827
a(I98
I451
tp7828
a(I69
I361
tp7829
a(I177
I536
tp7830
a(I50
I152
tp7831
a(I279
I837
tp7832
aa(lp7833
(I5
I848
tp7834
a(I48
I492
tp7835
a(I129
I354
tp7836
a(I8
I908
tp7837
a(I139
I657
tp7838
a(I191
I369
tp7839
a(I167
I918
tp7840
a(I7
I637
tp7841
a(I261
I639
tp7842
a(I113
I617
tp7843
aa(lp7844
(I30
I163
tp7845
a(I280
I671
tp7846
a(I22
I246
tp7847
a(I20
I339
tp7848
a(I34
I967
tp7849
a(I108
I578
tp7850
a(I208
I412
tp7851
a(I57
I796
tp7852
a(I2
I282
tp7853
a(I84
I195
tp7854
aa(lp7855
(I37
I111
tp7856
a(I472
I688
tp7857
a(I10
I168
tp7858
a(I16
I687
tp7859
a(I78
I437
tp7860
a(I62
I792
tp7861
a(I13
I156
tp7862
a(I22
I648
tp7863
a(I66
I280
tp7864
a(I152
I548
tp7865
aa(lp7866
(I20
I635
tp7867
a(I4
I376
tp7868
a(I144
I425
tp7869
a(I184
I429
tp7870
a(I12
I696
tp7871
a(I70
I683
tp7872
a(I89
I682
tp7873
a(I447
I938
tp7874
a(I43
I389
tp7875
a(I57
I166
tp7876
aa(lp7877
(I289
I970
tp7878
a(I296
I960
tp7879
a(I119
I633
tp7880
a(I57
I333
tp7881
a(I6
I807
tp7882
a(I176
I531
tp7883
a(I20
I842
tp7884
a(I13
I195
tp7885
a(I46
I152
tp7886
a(I260
I890
tp7887
aa(lp7888
(I26
I248
tp7889
a(I22
I107
tp7890
a(I17
I966
tp7891
a(I97
I486
tp7892
a(I400
I719
tp7893
a(I129
I777
tp7894
a(I103
I664
tp7895
a(I41
I899
tp7896
a(I139
I662
tp7897
a(I55
I170
tp7898
aa(lp7899
(I5
I382
tp7900
a(I61
I578
tp7901
a(I1
I205
tp7902
a(I62
I861
tp7903
a(I523
I891
tp7904
a(I274
I824
tp7905
a(I41
I233
tp7906
a(I141
I577
tp7907
a(I222
I493
tp7908
a(I2
I169
tp7909
aa(lp7910
(I27
I149
tp7911
a(I6
I866
tp7912
a(I1
I776
tp7913
a(I60
I121
tp7914
a(I484
I960
tp7915
a(I34
I169
tp7916
a(I1
I108
tp7917
a(I83
I607
tp7918
a(I89
I848
tp7919
a(I89
I260
tp7920
aa(lp7921
(I422
I562
tp7922
a(I26
I281
tp7923
a(I80
I533
tp7924
a(I6
I584
tp7925
a(I9
I224
tp7926
a(I79
I368
tp7927
a(I69
I800
tp7928
a(I130
I707
tp7929
a(I237
I977
tp7930
a(I77
I352
tp7931
aa(lp7932
(I103
I512
tp7933
a(I244
I549
tp7934
a(I54
I335
tp7935
a(I184
I603
tp7936
a(I32
I517
tp7937
a(I421
I944
tp7938
a(I42
I311
tp7939
a(I27
I962
tp7940
a(I113
I566
tp7941
a(I6
I599
tp7942
aa(lp7943
(I27
I317
tp7944
a(I82
I830
tp7945
a(I128
I490
tp7946
a(I43
I759
tp7947
a(I92
I981
tp7948
a(I78
I784
tp7949
a(I21
I133
tp7950
a(I25
I107
tp7951
a(I222
I294
tp7952
a(I122
I860
tp7953
aa(lp7954
(I20
I130
tp7955
a(I26
I418
tp7956
a(I14
I629
tp7957
a(I186
I854
tp7958
a(I22
I358
tp7959
a(I24
I471
tp7960
a(I93
I404
tp7961
a(I540
I723
tp7962
a(I119
I323
tp7963
a(I52
I690
tp7964
aa(lp7965
(I170
I947
tp7966
a(I8
I736
tp7967
a(I174
I958
tp7968
a(I6
I963
tp7969
a(I111
I783
tp7970
a(I135
I237
tp7971
a(I80
I365
tp7972
a(I36
I544
tp7973
a(I208
I767
tp7974
a(I69
I202
tp7975
aa(lp7976
(I55
I721
tp7977
a(I2
I296
tp7978
a(I54
I607
tp7979
a(I11
I189
tp7980
a(I127
I343
tp7981
a(I62
I210
tp7982
a(I58
I422
tp7983
a(I80
I351
tp7984
a(I314
I464
tp7985
a(I40
I761
tp7986
aa(lp7987
(I163
I497
tp7988
a(I11
I254
tp7989
a(I204
I689
tp7990
a(I63
I494
tp7991
a(I56
I177
tp7992
a(I174
I907
tp7993
a(I48
I940
tp7994
a(I349
I714
tp7995
a(I20
I265
tp7996
a(I65
I907
tp7997
aa(lp7998
(I331
I995
tp7999
a(I259
I485
tp8000
a(I141
I926
tp8001
a(I71
I468
tp8002
a(I2
I192
tp8003
a(I59
I600
tp8004
a(I67
I439
tp8005
a(I190
I543
tp8006
a(I138
I751
tp8007
a(I5
I193
tp8008
aa(lp8009
(I37
I445
tp8010
a(I51
I215
tp8011
a(I76
I324
tp8012
a(I45
I751
tp8013
a(I488
I950
tp8014
a(I42
I118
tp8015
a(I193
I604
tp8016
a(I24
I962
tp8017
a(I17
I179
tp8018
a(I38
I593
tp8019
aa(lp8020
(I178
I592
tp8021
a(I98
I825
tp8022
a(I63
I497
tp8023
a(I219
I364
tp8024
a(I73
I662
tp8025
a(I13
I164
tp8026
a(I140
I701
tp8027
a(I75
I336
tp8028
a(I143
I964
tp8029
a(I55
I669
tp8030
aa(lp8031
(I84
I865
tp8032
a(I199
I982
tp8033
a(I198
I652
tp8034
a(I200
I293
tp8035
a(I82
I681
tp8036
a(I11
I180
tp8037
a(I4
I365
tp8038
a(I178
I919
tp8039
a(I11
I986
tp8040
a(I116
I382
tp8041
aa(lp8042
(I295
I696
tp8043
a(I37
I591
tp8044
a(I4
I170
tp8045
a(I10
I244
tp8046
a(I1
I735
tp8047
a(I22
I362
tp8048
a(I100
I558
tp8049
a(I370
I601
tp8050
a(I105
I524
tp8051
a(I252
I665
tp8052
aa(lp8053
(I166
I858
tp8054
a(I67
I333
tp8055
a(I22
I285
tp8056
a(I357
I849
tp8057
a(I22
I117
tp8058
a(I403
I771
tp8059
a(I2
I187
tp8060
a(I17
I901
tp8061
a(I238
I703
tp8062
a(I7
I530
tp8063
aa(lp8064
(I93
I761
tp8065
a(I40
I389
tp8066
a(I193
I604
tp8067
a(I23
I956
tp8068
a(I8
I187
tp8069
a(I226
I904
tp8070
a(I109
I596
tp8071
a(I138
I745
tp8072
a(I556
I769
tp8073
a(I32
I921
tp8074
aa(lp8075
(I73
I494
tp8076
a(I50
I199
tp8077
a(I691
I999
tp8078
a(I1
I142
tp8079
a(I43
I445
tp8080
a(I163
I653
tp8081
a(I401
I848
tp8082
a(I4
I837
tp8083
a(I35
I591
tp8084
a(I6
I556
tp8085
aa(lp8086
(I24
I316
tp8087
a(I73
I667
tp8088
a(I131
I613
tp8089
a(I60
I285
tp8090
a(I124
I592
tp8091
a(I35
I706
tp8092
a(I156
I247
tp8093
a(I244
I977
tp8094
a(I124
I673
tp8095
a(I46
I865
tp8096
aa(lp8097
(I61
I679
tp8098
a(I5
I447
tp8099
a(I19
I957
tp8100
a(I67
I305
tp8101
a(I30
I175
tp8102
a(I52
I536
tp8103
a(I300
I469
tp8104
a(I203
I473
tp8105
a(I89
I616
tp8106
a(I114
I697
tp8107
aa(lp8108
(I60
I503
tp8109
a(I103
I574
tp8110
a(I110
I943
tp8111
a(I411
I749
tp8112
a(I241
I892
tp8113
a(I2
I338
tp8114
a(I317
I922
tp8115
a(I128
I680
tp8116
a(I66
I349
tp8117
a(I11
I371
tp8118
aa(lp8119
(I20
I400
tp8120
a(I34
I158
tp8121
a(I79
I324
tp8122
a(I66
I346
tp8123
a(I83
I362
tp8124
a(I83
I495
tp8125
a(I385
I915
tp8126
a(I91
I501
tp8127
a(I18
I140
tp8128
a(I71
I451
tp8129
aa(lp8130
(I183
I556
tp8131
a(I21
I364
tp8132
a(I65
I171
tp8133
a(I221
I776
tp8134
a(I74
I424
tp8135
a(I295
I918
tp8136
a(I11
I670
tp8137
a(I52
I504
tp8138
a(I103
I342
tp8139
a(I5
I287
tp8140
aa(lp8141
(I107
I203
tp8142
a(I190
I433
tp8143
a(I205
I516
tp8144
a(I110
I918
tp8145
a(I69
I557
tp8146
a(I74
I912
tp8147
a(I1
I163
tp8148
a(I28
I234
tp8149
a(I68
I657
tp8150
a(I30
I435
tp8151
aa(lp8152
(I87
I699
tp8153
a(I137
I745
tp8154
a(I11
I200
tp8155
a(I290
I768
tp8156
a(I58
I474
tp8157
a(I245
I590
tp8158
a(I189
I794
tp8159
a(I9
I168
tp8160
a(I150
I723
tp8161
a(I129
I620
tp8162
aa(lp8163
(I560
I973
tp8164
a(I13
I204
tp8165
a(I41
I833
tp8166
a(I68
I634
tp8167
a(I100
I906
tp8168
a(I54
I412
tp8169
a(I93
I868
tp8170
a(I314
I516
tp8171
a(I16
I238
tp8172
a(I62
I366
tp8173
aa(lp8174
(I161
I270
tp8175
a(I10
I128
tp8176
a(I4
I116
tp8177
a(I420
I732
tp8178
a(I26
I826
tp8179
a(I50
I729
tp8180
a(I71
I205
tp8181
a(I11
I286
tp8182
a(I43
I710
tp8183
a(I51
I353
tp8184
aa(lp8185
(I97
I745
tp8186
a(I181
I462
tp8187
a(I194
I875
tp8188
a(I6
I998
tp8189
a(I67
I466
tp8190
a(I71
I268
tp8191
a(I62
I515
tp8192
a(I24
I132
tp8193
a(I80
I974
tp8194
a(I256
I579
tp8195
aa(lp8196
(I14
I144
tp8197
a(I42
I258
tp8198
a(I176
I828
tp8199
a(I15
I224
tp8200
a(I244
I745
tp8201
a(I22
I689
tp8202
a(I599
I718
tp8203
a(I105
I674
tp8204
a(I5
I816
tp8205
a(I66
I711
tp8206
aa(lp8207
(I64
I700
tp8208
a(I44
I785
tp8209
a(I175
I582
tp8210
a(I93
I642
tp8211
a(I130
I564
tp8212
a(I168
I998
tp8213
a(I38
I392
tp8214
a(I137
I842
tp8215
a(I91
I956
tp8216
a(I608
I939
tp8217
aa(lp8218
(I76
I243
tp8219
a(I60
I291
tp8220
a(I27
I106
tp8221
a(I120
I913
tp8222
a(I3
I855
tp8223
a(I19
I420
tp8224
a(I186
I309
tp8225
a(I30
I270
tp8226
a(I121
I614
tp8227
a(I55
I447
tp8228
aa(lp8229
(I7
I588
tp8230
a(I77
I345
tp8231
a(I56
I771
tp8232
a(I206
I671
tp8233
a(I88
I335
tp8234
a(I146
I789
tp8235
a(I351
I981
tp8236
a(I71
I233
tp8237
a(I62
I652
tp8238
a(I112
I652
tp8239
aa(lp8240
(I1
I120
tp8241
a(I506
I747
tp8242
a(I127
I486
tp8243
a(I19
I324
tp8244
a(I167
I913
tp8245
a(I81
I720
tp8246
a(I188
I807
tp8247
a(I246
I915
tp8248
a(I23
I358
tp8249
a(I22
I178
tp8250
aa(lp8251
(I17
I115
tp8252
a(I24
I436
tp8253
a(I11
I102
tp8254
a(I41
I894
tp8255
a(I395
I819
tp8256
a(I1
I285
tp8257
a(I109
I297
tp8258
a(I23
I320
tp8259
a(I162
I390
tp8260
a(I188
I669
tp8261
aa(lp8262
(I8
I279
tp8263
a(I95
I261
tp8264
a(I120
I261
tp8265
a(I244
I796
tp8266
a(I54
I719
tp8267
a(I116
I382
tp8268
a(I29
I485
tp8269
a(I19
I795
tp8270
a(I52
I626
tp8271
a(I201
I716
tp8272
aa(lp8273
(I35
I446
tp8274
a(I5
I160
tp8275
a(I127
I364
tp8276
a(I177
I696
tp8277
a(I16
I258
tp8278
a(I50
I931
tp8279
a(I14
I282
tp8280
a(I78
I178
tp8281
a(I564
I943
tp8282
a(I17
I237
tp8283
aa(lp8284
(I34
I209
tp8285
a(I13
I112
tp8286
a(I14
I128
tp8287
a(I86
I258
tp8288
a(I65
I636
tp8289
a(I67
I741
tp8290
a(I32
I663
tp8291
a(I199
I577
tp8292
a(I389
I968
tp8293
a(I114
I425
tp8294
aa(lp8295
(I290
I720
tp8296
a(I15
I191
tp8297
a(I72
I251
tp8298
a(I22
I314
tp8299
a(I109
I742
tp8300
a(I141
I743
tp8301
a(I24
I964
tp8302
a(I102
I664
tp8303
a(I257
I885
tp8304
a(I232
I678
tp8305
aa(lp8306
(I541
I879
tp8307
a(I98
I640
tp8308
a(I40
I870
tp8309
a(I111
I511
tp8310
a(I248
I600
tp8311
a(I82
I589
tp8312
a(I25
I111
tp8313
a(I37
I514
tp8314
a(I56
I838
tp8315
a(I6
I139
tp8316
aa(lp8317
(I8
I906
tp8318
a(I113
I493
tp8319
a(I9
I795
tp8320
a(I278
I704
tp8321
a(I13
I113
tp8322
a(I343
I726
tp8323
a(I117
I513
tp8324
a(I65
I816
tp8325
a(I260
I920
tp8326
a(I150
I920
tp8327
aa(lp8328
(I24
I193
tp8329
a(I36
I869
tp8330
a(I196
I322
tp8331
a(I98
I555
tp8332
a(I255
I860
tp8333
a(I43
I148
tp8334
a(I2
I365
tp8335
a(I149
I607
tp8336
a(I15
I490
tp8337
a(I113
I682
tp8338
aa(lp8339
(I91
I688
tp8340
a(I32
I838
tp8341
a(I73
I430
tp8342
a(I31
I641
tp8343
a(I11
I387
tp8344
a(I81
I360
tp8345
a(I155
I213
tp8346
a(I2
I187
tp8347
a(I18
I961
tp8348
a(I72
I123
tp8349
aa(lp8350
(I21
I209
tp8351
a(I8
I167
tp8352
a(I84
I402
tp8353
a(I201
I291
tp8354
a(I69
I806
tp8355
a(I113
I770
tp8356
a(I131
I795
tp8357
a(I189
I834
tp8358
a(I140
I696
tp8359
a(I91
I793
tp8360
aa(lp8361
(I91
I569
tp8362
a(I94
I251
tp8363
a(I280
I888
tp8364
a(I117
I979
tp8365
a(I174
I899
tp8366
a(I128
I716
tp8367
a(I104
I958
tp8368
a(I141
I383
tp8369
a(I73
I803
tp8370
a(I37
I439
tp8371
aa(lp8372
(I65
I199
tp8373
a(I1
I877
tp8374
a(I137
I955
tp8375
a(I14
I155
tp8376
a(I96
I926
tp8377
a(I275
I350
tp8378
a(I19
I717
tp8379
a(I31
I510
tp8380
a(I98
I881
tp8381
a(I310
I914
tp8382
aa(lp8383
(I1
I139
tp8384
a(I28
I186
tp8385
a(I139
I466
tp8386
a(I165
I337
tp8387
a(I171
I517
tp8388
a(I1
I118
tp8389
a(I95
I951
tp8390
a(I225
I565
tp8391
a(I30
I177
tp8392
a(I20
I511
tp8393
aa(lp8394
(I77
I161
tp8395
a(I2
I220
tp8396
a(I97
I479
tp8397
a(I2
I159
tp8398
a(I68
I833
tp8399
a(I3
I214
tp8400
a(I39
I378
tp8401
a(I428
I627
tp8402
a(I41
I965
tp8403
a(I322
I906
tp8404
aa(lp8405
(I193
I496
tp8406
a(I253
I339
tp8407
a(I145
I936
tp8408
a(I83
I464
tp8409
a(I98
I849
tp8410
a(I4
I797
tp8411
a(I21
I991
tp8412
a(I46
I468
tp8413
a(I41
I569
tp8414
a(I173
I825
tp8415
aa(lp8416
(I15
I117
tp8417
a(I21
I420
tp8418
a(I15
I764
tp8419
a(I18
I165
tp8420
a(I95
I779
tp8421
a(I458
I817
tp8422
a(I130
I426
tp8423
a(I226
I684
tp8424
a(I22
I212
tp8425
a(I72
I287
tp8426
aa(lp8427
(I34
I611
tp8428
a(I29
I278
tp8429
a(I118
I458
tp8430
a(I35
I367
tp8431
a(I28
I759
tp8432
a(I315
I588
tp8433
a(I482
I638
tp8434
a(I4
I431
tp8435
a(I7
I612
tp8436
a(I128
I975
tp8437
aa(lp8438
(I212
I596
tp8439
a(I285
I952
tp8440
a(I119
I406
tp8441
a(I168
I888
tp8442
a(I27
I178
tp8443
a(I90
I362
tp8444
a(I166
I569
tp8445
a(I7
I259
tp8446
a(I65
I912
tp8447
a(I34
I555
tp8448
aa(lp8449
(I297
I811
tp8450
a(I25
I317
tp8451
a(I134
I548
tp8452
a(I3
I640
tp8453
a(I70
I306
tp8454
a(I8
I142
tp8455
a(I148
I496
tp8456
a(I98
I249
tp8457
a(I119
I639
tp8458
a(I115
I901
tp8459
aa(lp8460
(I57
I513
tp8461
a(I12
I901
tp8462
a(I40
I546
tp8463
a(I79
I569
tp8464
a(I29
I311
tp8465
a(I16
I148
tp8466
a(I829
I920
tp8467
a(I137
I362
tp8468
a(I38
I509
tp8469
a(I49
I515
tp8470
aa(lp8471
(I308
I815
tp8472
a(I1
I156
tp8473
a(I32
I297
tp8474
a(I9
I363
tp8475
a(I242
I900
tp8476
a(I51
I503
tp8477
a(I35
I821
tp8478
a(I84
I183
tp8479
a(I102
I827
tp8480
a(I318
I658
tp8481
aa(lp8482
(I23
I159
tp8483
a(I1
I484
tp8484
a(I68
I283
tp8485
a(I296
I702
tp8486
a(I44
I477
tp8487
a(I221
I609
tp8488
a(I143
I933
tp8489
a(I168
I999
tp8490
a(I1
I556
tp8491
a(I292
I729
tp8492
aa(lp8493
(I40
I223
tp8494
a(I220
I800
tp8495
a(I100
I340
tp8496
a(I7
I355
tp8497
a(I369
I815
tp8498
a(I83
I846
tp8499
a(I45
I249
tp8500
a(I191
I907
tp8501
a(I39
I191
tp8502
a(I28
I372
tp8503
aa(lp8504
(I474
I928
tp8505
a(I24
I477
tp8506
a(I343
I838
tp8507
a(I160
I763
tp8508
a(I23
I330
tp8509
a(I27
I542
tp8510
a(I408
I987
tp8511
a(I42
I286
tp8512
a(I46
I844
tp8513
a(I60
I771
tp8514
aa(lp8515
(I9
I371
tp8516
a(I539
I987
tp8517
a(I37
I432
tp8518
a(I53
I441
tp8519
a(I35
I274
tp8520
a(I159
I472
tp8521
a(I103
I613
tp8522
a(I2
I230
tp8523
a(I53
I907
tp8524
a(I117
I229
tp8525
aa(lp8526
(I29
I351
tp8527
a(I160
I973
tp8528
a(I8
I153
tp8529
a(I7
I257
tp8530
a(I55
I373
tp8531
a(I240
I686
tp8532
a(I58
I701
tp8533
a(I105
I440
tp8534
a(I121
I182
tp8535
a(I130
I728
tp8536
aa(lp8537
(I100
I819
tp8538
a(I162
I743
tp8539
a(I364
I446
tp8540
a(I14
I296
tp8541
a(I17
I474
tp8542
a(I198
I855
tp8543
a(I64
I651
tp8544
a(I286
I780
tp8545
a(I5
I121
tp8546
a(I4
I470
tp8547
aa(lp8548
(I7
I499
tp8549
a(I244
I774
tp8550
a(I4
I818
tp8551
a(I21
I473
tp8552
a(I46
I431
tp8553
a(I137
I329
tp8554
a(I13
I402
tp8555
a(I95
I381
tp8556
a(I4
I172
tp8557
a(I670
I857
tp8558
aa(lp8559
(I376
I779
tp8560
a(I292
I820
tp8561
a(I108
I380
tp8562
a(I15
I419
tp8563
a(I144
I931
tp8564
a(I27
I221
tp8565
a(I36
I796
tp8566
a(I37
I368
tp8567
a(I14
I154
tp8568
a(I141
I443
tp8569
aa(lp8570
(I419
I841
tp8571
a(I122
I279
tp8572
a(I33
I649
tp8573
a(I26
I326
tp8574
a(I111
I447
tp8575
a(I37
I888
tp8576
a(I275
I988
tp8577
a(I84
I637
tp8578
a(I166
I895
tp8579
a(I31
I896
tp8580
aa(lp8581
(I39
I583
tp8582
a(I223
I714
tp8583
a(I16
I124
tp8584
a(I15
I715
tp8585
a(I143
I490
tp8586
a(I122
I404
tp8587
a(I4
I156
tp8588
a(I56
I325
tp8589
a(I86
I336
tp8590
a(I295
I722
tp8591
aa(lp8592
(I27
I591
tp8593
a(I92
I675
tp8594
a(I17
I317
tp8595
a(I86
I630
tp8596
a(I46
I183
tp8597
a(I50
I436
tp8598
a(I553
I800
tp8599
a(I269
I970
tp8600
a(I38
I369
tp8601
a(I78
I435
tp8602
aa(lp8603
(I485
I672
tp8604
a(I2
I698
tp8605
a(I18
I401
tp8606
a(I260
I628
tp8607
a(I260
I921
tp8608
a(I3
I967
tp8609
a(I95
I351
tp8610
a(I91
I746
tp8611
a(I37
I493
tp8612
a(I34
I651
tp8613
aa(lp8614
(I218
I813
tp8615
a(I29
I840
tp8616
a(I317
I919
tp8617
a(I61
I919
tp8618
a(I135
I601
tp8619
a(I63
I618
tp8620
a(I146
I217
tp8621
a(I21
I767
tp8622
a(I86
I479
tp8623
a(I74
I978
tp8624
aa(lp8625
(I10
I858
tp8626
a(I55
I809
tp8627
a(I138
I564
tp8628
a(I64
I333
tp8629
a(I73
I129
tp8630
a(I112
I314
tp8631
a(I42
I441
tp8632
a(I48
I212
tp8633
a(I120
I906
tp8634
a(I53
I570
tp8635
aa(lp8636
(I35
I179
tp8637
a(I118
I746
tp8638
a(I6
I289
tp8639
a(I222
I883
tp8640
a(I170
I585
tp8641
a(I104
I501
tp8642
a(I37
I237
tp8643
a(I80
I524
tp8644
a(I50
I522
tp8645
a(I157
I343
tp8646
aa(lp8647
(I269
I766
tp8648
a(I3
I164
tp8649
a(I179
I919
tp8650
a(I19
I624
tp8651
a(I45
I230
tp8652
a(I188
I427
tp8653
a(I66
I555
tp8654
a(I47
I672
tp8655
a(I115
I490
tp8656
a(I291
I875
tp8657
aa(lp8658
(I67
I194
tp8659
a(I23
I765
tp8660
a(I26
I490
tp8661
a(I32
I274
tp8662
a(I109
I239
tp8663
a(I25
I951
tp8664
a(I36
I590
tp8665
a(I205
I485
tp8666
a(I36
I475
tp8667
a(I167
I423
tp8668
aa(lp8669
(I656
I699
tp8670
a(I1
I306
tp8671
a(I12
I245
tp8672
a(I32
I203
tp8673
a(I96
I680
tp8674
a(I59
I649
tp8675
a(I14
I561
tp8676
a(I120
I736
tp8677
a(I93
I539
tp8678
a(I99
I403
tp8679
aa(lp8680
(I395
I941
tp8681
a(I42
I642
tp8682
a(I12
I614
tp8683
a(I175
I707
tp8684
a(I161
I946
tp8685
a(I272
I698
tp8686
a(I99
I591
tp8687
a(I1
I134
tp8688
a(I109
I451
tp8689
a(I35
I136
tp8690
aa(lp8691
(I16
I330
tp8692
a(I59
I258
tp8693
a(I546
I942
tp8694
a(I398
I873
tp8695
a(I139
I461
tp8696
a(I111
I963
tp8697
a(I10
I827
tp8698
a(I21
I358
tp8699
a(I26
I978
tp8700
a(I18
I116
tp8701
aa(lp8702
(I52
I704
tp8703
a(I23
I158
tp8704
a(I174
I406
tp8705
a(I35
I331
tp8706
a(I1
I120
tp8707
a(I641
I911
tp8708
a(I10
I595
tp8709
a(I33
I183
tp8710
a(I170
I896
tp8711
a(I103
I855
tp8712
aa(lp8713
(I95
I400
tp8714
a(I73
I416
tp8715
a(I17
I319
tp8716
a(I44
I990
tp8717
a(I158
I615
tp8718
a(I54
I320
tp8719
a(I42
I935
tp8720
a(I490
I495
tp8721
a(I2
I154
tp8722
a(I4
I941
tp8723
aa(lp8724
(I23
I385
tp8725
a(I633
I970
tp8726
a(I14
I533
tp8727
a(I88
I552
tp8728
a(I80
I552
tp8729
a(I52
I488
tp8730
a(I107
I544
tp8731
a(I97
I921
tp8732
a(I320
I669
tp8733
a(I31
I509
tp8734
aa(lp8735
(I61
I518
tp8736
a(I29
I172
tp8737
a(I282
I939
tp8738
a(I428
I843
tp8739
a(I34
I664
tp8740
a(I60
I300
tp8741
a(I15
I164
tp8742
a(I205
I903
tp8743
a(I136
I761
tp8744
a(I51
I337
tp8745
aa(lp8746
(I145
I704
tp8747
a(I3
I295
tp8748
a(I88
I362
tp8749
a(I83
I835
tp8750
a(I101
I620
tp8751
a(I22
I666
tp8752
a(I107
I445
tp8753
a(I168
I808
tp8754
a(I242
I345
tp8755
a(I37
I439
tp8756
aa(lp8757
(I97
I573
tp8758
a(I34
I714
tp8759
a(I87
I624
tp8760
a(I68
I276
tp8761
a(I44
I236
tp8762
a(I60
I280
tp8763
a(I453
I934
tp8764
a(I71
I381
tp8765
a(I71
I244
tp8766
a(I5
I276
tp8767
aa(lp8768
(I72
I953
tp8769
a(I64
I434
tp8770
a(I4
I711
tp8771
a(I73
I263
tp8772
a(I180
I819
tp8773
a(I149
I795
tp8774
a(I35
I137
tp8775
a(I49
I830
tp8776
a(I357
I664
tp8777
a(I114
I513
tp8778
aa(lp8779
(I51
I178
tp8780
a(I80
I548
tp8781
a(I36
I496
tp8782
a(I2
I341
tp8783
a(I64
I124
tp8784
a(I96
I209
tp8785
a(I48
I993
tp8786
a(I56
I469
tp8787
a(I77
I340
tp8788
a(I91
I945
tp8789
aa(lp8790
(I43
I841
tp8791
a(I35
I503
tp8792
a(I92
I424
tp8793
a(I73
I282
tp8794
a(I304
I638
tp8795
a(I261
I448
tp8796
a(I25
I505
tp8797
a(I72
I946
tp8798
a(I40
I192
tp8799
a(I1
I121
tp8800
aa(lp8801
(I411
I765
tp8802
a(I239
I873
tp8803
a(I21
I437
tp8804
a(I139
I728
tp8805
a(I50
I355
tp8806
a(I16
I705
tp8807
a(I231
I697
tp8808
a(I21
I167
tp8809
a(I294
I992
tp8810
a(I18
I851
tp8811
aa(lp8812
(I59
I720
tp8813
a(I108
I311
tp8814
a(I1
I202
tp8815
a(I102
I391
tp8816
a(I141
I170
tp8817
a(I20
I232
tp8818
a(I89
I398
tp8819
a(I97
I764
tp8820
a(I8
I667
tp8821
a(I4
I251
tp8822
aa(lp8823
(I198
I495
tp8824
a(I16
I127
tp8825
a(I5
I367
tp8826
a(I20
I174
tp8827
a(I141
I393
tp8828
a(I96
I760
tp8829
a(I104
I309
tp8830
a(I53
I297
tp8831
a(I126
I861
tp8832
a(I106
I590
tp8833
aa(lp8834
(I94
I909
tp8835
a(I30
I482
tp8836
a(I38
I152
tp8837
a(I18
I233
tp8838
a(I766
I907
tp8839
a(I33
I421
tp8840
a(I10
I158
tp8841
a(I368
I978
tp8842
a(I51
I458
tp8843
a(I3
I212
tp8844
aa(lp8845
(I78
I367
tp8846
a(I290
I716
tp8847
a(I13
I172
tp8848
a(I29
I669
tp8849
a(I79
I827
tp8850
a(I101
I425
tp8851
a(I240
I624
tp8852
a(I339
I868
tp8853
a(I95
I756
tp8854
a(I11
I596
tp8855
aa(lp8856
(I115
I312
tp8857
a(I140
I780
tp8858
a(I385
I673
tp8859
a(I2
I838
tp8860
a(I177
I893
tp8861
a(I119
I833
tp8862
a(I10
I799
tp8863
a(I76
I261
tp8864
a(I3
I597
tp8865
a(I188
I852
tp8866
aa(lp8867
(I201
I581
tp8868
a(I293
I969
tp8869
a(I64
I714
tp8870
a(I252
I643
tp8871
a(I5
I185
tp8872
a(I152
I857
tp8873
a(I260
I725
tp8874
a(I14
I242
tp8875
a(I45
I305
tp8876
a(I46
I495
tp8877
aa(lp8878
(I175
I510
tp8879
a(I119
I605
tp8880
a(I8
I120
tp8881
a(I220
I991
tp8882
a(I315
I671
tp8883
a(I15
I160
tp8884
a(I226
I701
tp8885
a(I48
I794
tp8886
a(I7
I567
tp8887
a(I198
I992
tp8888
aa(lp8889
(I232
I879
tp8890
a(I4
I799
tp8891
a(I514
I960
tp8892
a(I14
I475
tp8893
a(I36
I124
tp8894
a(I7
I139
tp8895
a(I5
I354
tp8896
a(I14
I143
tp8897
a(I166
I993
tp8898
a(I166
I313
tp8899
aa(lp8900
(I16
I307
tp8901
a(I862
I891
tp8902
a(I13
I159
tp8903
a(I27
I174
tp8904
a(I18
I454
tp8905
a(I19
I156
tp8906
a(I165
I875
tp8907
a(I88
I399
tp8908
a(I87
I687
tp8909
a(I25
I757
tp8910
aa(lp8911
(I713
I791
tp8912
a(I275
I624
tp8913
a(I29
I898
tp8914
a(I19
I236
tp8915
a(I28
I125
tp8916
a(I28
I542
tp8917
a(I16
I858
tp8918
a(I2
I337
tp8919
a(I27
I201
tp8920
a(I72
I778
tp8921
aa(lp8922
(I4
I193
tp8923
a(I50
I571
tp8924
a(I20
I350
tp8925
a(I119
I678
tp8926
a(I731
I881
tp8927
a(I36
I146
tp8928
a(I5
I171
tp8929
a(I258
I918
tp8930
a(I169
I789
tp8931
a(I31
I682
tp8932
aa(lp8933
(I103
I896
tp8934
a(I206
I903
tp8935
a(I590
I805
tp8936
a(I60
I614
tp8937
a(I35
I783
tp8938
a(I6
I733
tp8939
a(I247
I839
tp8940
a(I144
I737
tp8941
a(I17
I908
tp8942
a(I157
I606
tp8943
aa(lp8944
(I45
I500
tp8945
a(I216
I946
tp8946
a(I5
I485
tp8947
a(I3
I684
tp8948
a(I19
I346
tp8949
a(I193
I485
tp8950
a(I639
I888
tp8951
a(I137
I507
tp8952
a(I6
I135
tp8953
a(I93
I550
tp8954
aa(lp8955
(I200
I770
tp8956
a(I120
I284
tp8957
a(I27
I578
tp8958
a(I155
I906
tp8959
a(I9
I983
tp8960
a(I224
I512
tp8961
a(I101
I509
tp8962
a(I22
I111
tp8963
a(I33
I143
tp8964
a(I6
I491
tp8965
aa(lp8966
(I180
I398
tp8967
a(I85
I347
tp8968
a(I32
I331
tp8969
a(I178
I890
tp8970
a(I8
I362
tp8971
a(I82
I282
tp8972
a(I4
I456
tp8973
a(I330
I653
tp8974
a(I73
I598
tp8975
a(I25
I564
tp8976
aa(lp8977
(I5
I253
tp8978
a(I84
I962
tp8979
a(I89
I179
tp8980
a(I191
I720
tp8981
a(I63
I465
tp8982
a(I84
I479
tp8983
a(I167
I382
tp8984
a(I2
I103
tp8985
a(I9
I815
tp8986
a(I123
I367
tp8987
aa(lp8988
(I282
I824
tp8989
a(I12
I250
tp8990
a(I23
I644
tp8991
a(I84
I702
tp8992
a(I263
I917
tp8993
a(I27
I773
tp8994
a(I135
I466
tp8995
a(I23
I409
tp8996
a(I80
I360
tp8997
a(I504
I910
tp8998
aa(lp8999
(I18
I445
tp9000
a(I28
I399
tp9001
a(I50
I367
tp9002
a(I62
I928
tp9003
a(I214
I298
tp9004
a(I209
I391
tp9005
a(I21
I185
tp9006
a(I100
I952
tp9007
a(I6
I480
tp9008
a(I91
I480
tp9009
aa(lp9010
(I72
I257
tp9011
a(I6
I283
tp9012
a(I19
I400
tp9013
a(I54
I330
tp9014
a(I62
I165
tp9015
a(I19
I800
tp9016
a(I7
I654
tp9017
a(I1
I473
tp9018
a(I172
I564
tp9019
a(I630
I836
tp9020
aa(lp9021
(I80
I445
tp9022
a(I31
I580
tp9023
a(I172
I564
tp9024
a(I141
I461
tp9025
a(I21
I656
tp9026
a(I8
I809
tp9027
a(I212
I717
tp9028
a(I2
I598
tp9029
a(I219
I560
tp9030
a(I395
I953
tp9031
aa(lp9032
(I377
I835
tp9033
a(I109
I942
tp9034
a(I186
I486
tp9035
a(I71
I738
tp9036
a(I33
I122
tp9037
a(I26
I533
tp9038
a(I126
I808
tp9039
a(I134
I756
tp9040
a(I75
I880
tp9041
a(I151
I748
tp9042
aa(lp9043
(I106
I634
tp9044
a(I92
I108
tp9045
a(I4
I458
tp9046
a(I25
I394
tp9047
a(I215
I616
tp9048
a(I51
I411
tp9049
a(I122
I970
tp9050
a(I72
I791
tp9051
a(I14
I243
tp9052
a(I144
I989
tp9053
aa(lp9054
(I216
I478
tp9055
a(I11
I818
tp9056
a(I389
I829
tp9057
a(I101
I922
tp9058
a(I27
I353
tp9059
a(I153
I517
tp9060
a(I298
I685
tp9061
a(I22
I519
tp9062
a(I75
I962
tp9063
a(I17
I777
tp9064
aa(lp9065
(I582
I986
tp9066
a(I64
I538
tp9067
a(I2
I598
tp9068
a(I1
I133
tp9069
a(I401
I692
tp9070
a(I6
I433
tp9071
a(I75
I641
tp9072
a(I323
I891
tp9073
a(I29
I516
tp9074
a(I103
I756
tp9075
aa(lp9076
(I24
I594
tp9077
a(I383
I930
tp9078
a(I7
I439
tp9079
a(I21
I634
tp9080
a(I14
I870
tp9081
a(I28
I252
tp9082
a(I376
I888
tp9083
a(I20
I165
tp9084
a(I330
I849
tp9085
a(I292
I683
tp9086
aa(lp9087
(I171
I483
tp9088
a(I11
I654
tp9089
a(I238
I541
tp9090
a(I29
I202
tp9091
a(I178
I529
tp9092
a(I9
I122
tp9093
a(I112
I888
tp9094
a(I9
I572
tp9095
a(I70
I525
tp9096
a(I134
I383
tp9097
aa(lp9098
(I755
I812
tp9099
a(I90
I781
tp9100
a(I19
I101
tp9101
a(I133
I696
tp9102
a(I7
I237
tp9103
a(I104
I436
tp9104
a(I13
I265
tp9105
a(I66
I438
tp9106
a(I33
I636
tp9107
a(I36
I940
tp9108
aa(lp9109
(I260
I267
tp9110
a(I20
I588
tp9111
a(I248
I965
tp9112
a(I18
I544
tp9113
a(I13
I162
tp9114
a(I109
I894
tp9115
a(I166
I587
tp9116
a(I58
I552
tp9117
a(I18
I733
tp9118
a(I64
I874
tp9119
aa(lp9120
(I42
I539
tp9121
a(I137
I395
tp9122
a(I151
I350
tp9123
a(I83
I759
tp9124
a(I350
I890
tp9125
a(I17
I403
tp9126
a(I65
I696
tp9127
a(I122
I982
tp9128
a(I8
I153
tp9129
a(I76
I243
tp9130
aa(lp9131
(I7
I146
tp9132
a(I394
I927
tp9133
a(I14
I548
tp9134
a(I45
I829
tp9135
a(I214
I516
tp9136
a(I173
I561
tp9137
a(I86
I437
tp9138
a(I70
I798
tp9139
a(I94
I345
tp9140
a(I139
I879
tp9141
aa(lp9142
(I55
I525
tp9143
a(I233
I684
tp9144
a(I3
I235
tp9145
a(I82
I263
tp9146
a(I22
I519
tp9147
a(I75
I129
tp9148
a(I71
I347
tp9149
a(I1
I271
tp9150
a(I137
I523
tp9151
a(I36
I294
tp9152
aa(lp9153
(I77
I806
tp9154
a(I14
I494
tp9155
a(I495
I556
tp9156
a(I38
I591
tp9157
a(I19
I370
tp9158
a(I34
I601
tp9159
a(I299
I869
tp9160
a(I4
I918
tp9161
a(I32
I261
tp9162
a(I246
I732
tp9163
aa(lp9164
(I2
I133
tp9165
a(I241
I843
tp9166
a(I24
I417
tp9167
a(I289
I926
tp9168
a(I74
I918
tp9169
a(I405
I800
tp9170
a(I195
I824
tp9171
a(I24
I563
tp9172
a(I178
I500
tp9173
a(I30
I304
tp9174
aa(lp9175
(I10
I390
tp9176
a(I377
I858
tp9177
a(I99
I763
tp9178
a(I200
I566
tp9179
a(I93
I473
tp9180
a(I127
I988
tp9181
a(I32
I183
tp9182
a(I68
I913
tp9183
a(I246
I889
tp9184
a(I169
I895
tp9185
aa(lp9186
(I40
I413
tp9187
a(I32
I122
tp9188
a(I129
I839
tp9189
a(I377
I905
tp9190
a(I25
I154
tp9191
a(I68
I309
tp9192
a(I169
I823
tp9193
a(I226
I797
tp9194
a(I42
I302
tp9195
a(I11
I215
tp9196
aa(lp9197
(I125
I831
tp9198
a(I177
I178
tp9199
a(I50
I276
tp9200
a(I65
I822
tp9201
a(I1
I582
tp9202
a(I20
I334
tp9203
a(I157
I446
tp9204
a(I2
I341
tp9205
a(I85
I503
tp9206
a(I1
I554
tp9207
aa(lp9208
(I38
I594
tp9209
a(I40
I529
tp9210
a(I111
I938
tp9211
a(I434
I468
tp9212
a(I14
I141
tp9213
a(I97
I442
tp9214
a(I24
I634
tp9215
a(I21
I223
tp9216
a(I215
I990
tp9217
a(I80
I604
tp9218
aa(lp9219
(I44
I333
tp9220
a(I49
I307
tp9221
a(I175
I276
tp9222
a(I10
I270
tp9223
a(I135
I765
tp9224
a(I21
I610
tp9225
a(I31
I445
tp9226
a(I181
I391
tp9227
a(I18
I279
tp9228
a(I97
I449
tp9229
aa(lp9230
(I42
I925
tp9231
a(I109
I468
tp9232
a(I23
I415
tp9233
a(I438
I861
tp9234
a(I142
I570
tp9235
a(I122
I372
tp9236
a(I76
I932
tp9237
a(I107
I521
tp9238
a(I44
I182
tp9239
a(I39
I921
tp9240
aa(lp9241
(I215
I684
tp9242
a(I5
I159
tp9243
a(I18
I992
tp9244
a(I15
I144
tp9245
a(I80
I550
tp9246
a(I64
I993
tp9247
a(I281
I562
tp9248
a(I59
I418
tp9249
a(I486
I849
tp9250
a(I93
I940
tp9251
aa(lp9252
(I120
I562
tp9253
a(I104
I742
tp9254
a(I42
I306
tp9255
a(I513
I852
tp9256
a(I172
I542
tp9257
a(I36
I841
tp9258
a(I45
I655
tp9259
a(I22
I500
tp9260
a(I62
I192
tp9261
a(I52
I517
tp9262
aa(lp9263
(I16
I283
tp9264
a(I39
I353
tp9265
a(I107
I588
tp9266
a(I11
I104
tp9267
a(I52
I384
tp9268
a(I207
I695
tp9269
a(I119
I531
tp9270
a(I146
I328
tp9271
a(I185
I466
tp9272
a(I17
I650
tp9273
aa(lp9274
(I123
I540
tp9275
a(I162
I284
tp9276
a(I20
I826
tp9277
a(I140
I661
tp9278
a(I42
I127
tp9279
a(I25
I827
tp9280
a(I145
I520
tp9281
a(I24
I442
tp9282
a(I74
I320
tp9283
a(I25
I798
tp9284
aa(lp9285
(I32
I114
tp9286
a(I372
I885
tp9287
a(I57
I758
tp9288
a(I120
I356
tp9289
a(I42
I440
tp9290
a(I157
I515
tp9291
a(I61
I179
tp9292
a(I51
I907
tp9293
a(I34
I835
tp9294
a(I31
I772
tp9295
aa(lp9296
(I18
I882
tp9297
a(I43
I543
tp9298
a(I37
I128
tp9299
a(I149
I288
tp9300
a(I154
I726
tp9301
a(I169
I648
tp9302
a(I98
I719
tp9303
a(I104
I372
tp9304
a(I4
I207
tp9305
a(I70
I404
tp9306
aa(lp9307
(I28
I236
tp9308
a(I37
I330
tp9309
a(I73
I844
tp9310
a(I84
I513
tp9311
a(I219
I502
tp9312
a(I213
I614
tp9313
a(I1
I279
tp9314
a(I261
I808
tp9315
a(I101
I759
tp9316
a(I224
I844
tp9317
aa(lp9318
(I133
I615
tp9319
a(I171
I925
tp9320
a(I92
I414
tp9321
a(I16
I885
tp9322
a(I95
I911
tp9323
a(I294
I575
tp9324
a(I135
I656
tp9325
a(I344
I778
tp9326
a(I2
I559
tp9327
a(I41
I478
tp9328
aa(lp9329
(I10
I939
tp9330
a(I3
I243
tp9331
a(I35
I734
tp9332
a(I23
I805
tp9333
a(I67
I407
tp9334
a(I40
I803
tp9335
a(I104
I260
tp9336
a(I111
I418
tp9337
a(I635
I862
tp9338
a(I107
I397
tp9339
aa(lp9340
(I473
I951
tp9341
a(I102
I576
tp9342
a(I98
I876
tp9343
a(I149
I516
tp9344
a(I100
I272
tp9345
a(I4
I197
tp9346
a(I122
I995
tp9347
a(I19
I160
tp9348
a(I60
I958
tp9349
a(I215
I973
tp9350
aa(lp9351
(I18
I202
tp9352
a(I36
I114
tp9353
a(I86
I761
tp9354
a(I27
I890
tp9355
a(I18
I851
tp9356
a(I13
I446
tp9357
a(I102
I483
tp9358
a(I208
I729
tp9359
a(I5
I965
tp9360
a(I570
I643
tp9361
aa(lp9362
(I105
I278
tp9363
a(I14
I753
tp9364
a(I352
I971
tp9365
a(I6
I196
tp9366
a(I34
I453
tp9367
a(I26
I336
tp9368
a(I16
I257
tp9369
a(I77
I424
tp9370
a(I708
I906
tp9371
a(I17
I905
tp9372
aa(lp9373
(I35
I706
tp9374
a(I32
I260
tp9375
a(I12
I217
tp9376
a(I144
I737
tp9377
a(I45
I269
tp9378
a(I86
I764
tp9379
a(I43
I323
tp9380
a(I271
I508
tp9381
a(I11
I497
tp9382
a(I121
I204
tp9383
aa(lp9384
(I11
I148
tp9385
a(I144
I628
tp9386
a(I8
I200
tp9387
a(I107
I445
tp9388
a(I228
I920
tp9389
a(I11
I212
tp9390
a(I390
I925
tp9391
a(I185
I983
tp9392
a(I85
I399
tp9393
a(I136
I491
tp9394
aa(lp9395
(I12
I336
tp9396
a(I24
I395
tp9397
a(I644
I810
tp9398
a(I222
I852
tp9399
a(I86
I874
tp9400
a(I17
I277
tp9401
a(I212
I990
tp9402
a(I147
I633
tp9403
a(I26
I119
tp9404
a(I12
I982
tp9405
aa(lp9406
(I7
I452
tp9407
a(I8
I551
tp9408
a(I1
I264
tp9409
a(I107
I545
tp9410
a(I2
I106
tp9411
a(I272
I325
tp9412
a(I103
I297
tp9413
a(I318
I807
tp9414
a(I14
I107
tp9415
a(I32
I938
tp9416
aa(lp9417
(I259
I929
tp9418
a(I136
I992
tp9419
a(I29
I461
tp9420
a(I77
I598
tp9421
a(I56
I963
tp9422
a(I66
I211
tp9423
a(I318
I967
tp9424
a(I34
I381
tp9425
a(I1
I390
tp9426
a(I411
I692
tp9427
aa(lp9428
(I219
I503
tp9429
a(I54
I541
tp9430
a(I1
I202
tp9431
a(I24
I689
tp9432
a(I23
I813
tp9433
a(I4
I237
tp9434
a(I47
I319
tp9435
a(I69
I844
tp9436
a(I389
I390
tp9437
a(I130
I914
tp9438
aa(lp9439
(I50
I159
tp9440
a(I110
I597
tp9441
a(I81
I307
tp9442
a(I46
I610
tp9443
a(I40
I574
tp9444
a(I6
I429
tp9445
a(I262
I829
tp9446
a(I81
I715
tp9447
a(I176
I394
tp9448
a(I160
I827
tp9449
aa(lp9450
(I34
I399
tp9451
a(I343
I949
tp9452
a(I35
I130
tp9453
a(I74
I772
tp9454
a(I16
I233
tp9455
a(I63
I392
tp9456
a(I310
I893
tp9457
a(I155
I610
tp9458
a(I43
I135
tp9459
a(I17
I607
tp9460
aa(lp9461
(I134
I354
tp9462
a(I66
I331
tp9463
a(I38
I585
tp9464
a(I3
I355
tp9465
a(I121
I198
tp9466
a(I150
I644
tp9467
a(I40
I794
tp9468
a(I95
I678
tp9469
a(I36
I284
tp9470
a(I116
I653
tp9471
aa(lp9472
(I52
I214
tp9473
a(I268
I565
tp9474
a(I165
I854
tp9475
a(I40
I564
tp9476
a(I4
I795
tp9477
a(I11
I188
tp9478
a(I87
I669
tp9479
a(I65
I351
tp9480
a(I234
I662
tp9481
a(I122
I442
tp9482
aa(lp9483
(I37
I703
tp9484
a(I57
I354
tp9485
a(I321
I948
tp9486
a(I8
I517
tp9487
a(I308
I806
tp9488
a(I46
I247
tp9489
a(I14
I212
tp9490
a(I109
I273
tp9491
a(I73
I296
tp9492
a(I59
I431
tp9493
aa(lp9494
(I180
I799
tp9495
a(I71
I896
tp9496
a(I15
I164
tp9497
a(I102
I654
tp9498
a(I240
I408
tp9499
a(I12
I422
tp9500
a(I60
I615
tp9501
a(I40
I461
tp9502
a(I146
I349
tp9503
a(I106
I497
tp9504
aa(lp9505
(I76
I867
tp9506
a(I1
I483
tp9507
a(I56
I819
tp9508
a(I38
I362
tp9509
a(I105
I427
tp9510
a(I72
I990
tp9511
a(I165
I382
tp9512
a(I127
I442
tp9513
a(I105
I341
tp9514
a(I117
I306
tp9515
aa(lp9516
(I8
I758
tp9517
a(I37
I234
tp9518
a(I27
I160
tp9519
a(I49
I323
tp9520
a(I104
I719
tp9521
a(I129
I656
tp9522
a(I34
I874
tp9523
a(I232
I845
tp9524
a(I71
I182
tp9525
a(I445
I988
tp9526
aa(lp9527
(I64
I762
tp9528
a(I1
I216
tp9529
a(I77
I933
tp9530
a(I231
I689
tp9531
a(I27
I158
tp9532
a(I14
I542
tp9533
a(I52
I463
tp9534
a(I49
I124
tp9535
a(I391
I770
tp9536
a(I103
I384
tp9537
aa(lp9538
(I79
I349
tp9539
a(I483
I764
tp9540
a(I209
I758
tp9541
a(I38
I553
tp9542
a(I3
I247
tp9543
a(I46
I995
tp9544
a(I119
I806
tp9545
a(I22
I584
tp9546
a(I115
I348
tp9547
a(I169
I785
tp9548
aa(lp9549
(I84
I335
tp9550
a(I27
I901
tp9551
a(I111
I682
tp9552
a(I142
I544
tp9553
a(I13
I182
tp9554
a(I273
I491
tp9555
a(I56
I355
tp9556
a(I259
I990
tp9557
a(I114
I880
tp9558
a(I21
I202
tp9559
aa(lp9560
(I197
I813
tp9561
a(I143
I414
tp9562
a(I220
I939
tp9563
a(I89
I803
tp9564
a(I218
I549
tp9565
a(I107
I366
tp9566
a(I35
I373
tp9567
a(I79
I765
tp9568
a(I96
I876
tp9569
a(I24
I375
tp9570
aa(lp9571
(I162
I849
tp9572
a(I158
I680
tp9573
a(I17
I329
tp9574
a(I131
I255
tp9575
a(I32
I855
tp9576
a(I138
I627
tp9577
a(I23
I487
tp9578
a(I88
I525
tp9579
a(I166
I358
tp9580
a(I21
I331
tp9581
aa(lp9582
(I93
I370
tp9583
a(I36
I173
tp9584
a(I94
I711
tp9585
a(I112
I255
tp9586
a(I134
I553
tp9587
a(I45
I489
tp9588
a(I4
I156
tp9589
a(I38
I707
tp9590
a(I53
I447
tp9591
a(I416
I983
tp9592
aa(lp9593
(I137
I802
tp9594
a(I61
I811
tp9595
a(I240
I763
tp9596
a(I31
I121
tp9597
a(I35
I201
tp9598
a(I76
I301
tp9599
a(I297
I605
tp9600
a(I142
I651
tp9601
a(I6
I982
tp9602
a(I4
I147
tp9603
aa(lp9604
(I556
I734
tp9605
a(I23
I785
tp9606
a(I333
I794
tp9607
a(I67
I651
tp9608
a(I214
I814
tp9609
a(I33
I755
tp9610
a(I9
I292
tp9611
a(I19
I378
tp9612
a(I70
I281
tp9613
a(I36
I861
tp9614
aa(lp9615
(I127
I315
tp9616
a(I36
I241
tp9617
a(I144
I798
tp9618
a(I213
I919
tp9619
a(I84
I949
tp9620
a(I38
I324
tp9621
a(I13
I417
tp9622
a(I158
I552
tp9623
a(I434
I891
tp9624
a(I11
I749
tp9625
aa(lp9626
(I199
I466
tp9627
a(I13
I256
tp9628
a(I20
I865
tp9629
a(I132
I466
tp9630
a(I20
I722
tp9631
a(I26
I403
tp9632
a(I163
I549
tp9633
a(I36
I161
tp9634
a(I350
I951
tp9635
a(I37
I168
tp9636
aa(lp9637
(I531
I553
tp9638
a(I70
I710
tp9639
a(I21
I299
tp9640
a(I274
I969
tp9641
a(I14
I336
tp9642
a(I8
I180
tp9643
a(I6
I495
tp9644
a(I35
I813
tp9645
a(I206
I890
tp9646
a(I127
I628
tp9647
aa(lp9648
(I17
I606
tp9649
a(I77
I228
tp9650
a(I307
I894
tp9651
a(I18
I213
tp9652
a(I2
I285
tp9653
a(I10
I297
tp9654
a(I110
I177
tp9655
a(I9
I969
tp9656
a(I452
I992
tp9657
a(I57
I852
tp9658
aa(lp9659
(I30
I555
tp9660
a(I102
I142
tp9661
a(I48
I105
tp9662
a(I100
I754
tp9663
a(I10
I166
tp9664
a(I199
I758
tp9665
a(I143
I728
tp9666
a(I13
I218
tp9667
a(I43
I994
tp9668
a(I4
I809
tp9669
aa(lp9670
(I3
I333
tp9671
a(I124
I646
tp9672
a(I357
I766
tp9673
a(I186
I713
tp9674
a(I8
I437
tp9675
a(I60
I318
tp9676
a(I112
I840
tp9677
a(I1
I338
tp9678
a(I159
I759
tp9679
a(I51
I100
tp9680
aa(lp9681
(I85
I371
tp9682
a(I16
I273
tp9683
a(I17
I776
tp9684
a(I58
I176
tp9685
a(I19
I154
tp9686
a(I2
I542
tp9687
a(I575
I794
tp9688
a(I2
I764
tp9689
a(I62
I866
tp9690
a(I129
I305
tp9691
aa(lp9692
(I23
I975
tp9693
a(I110
I217
tp9694
a(I10
I601
tp9695
a(I10
I122
tp9696
a(I35
I379
tp9697
a(I38
I616
tp9698
a(I264
I598
tp9699
a(I199
I682
tp9700
a(I280
I888
tp9701
a(I106
I676
tp9702
aa(lp9703
(I6
I798
tp9704
a(I215
I733
tp9705
a(I51
I269
tp9706
a(I68
I399
tp9707
a(I166
I580
tp9708
a(I202
I696
tp9709
a(I53
I995
tp9710
a(I294
I920
tp9711
a(I72
I255
tp9712
a(I72
I738
tp9713
aa(lp9714
(I3
I927
tp9715
a(I27
I127
tp9716
a(I51
I575
tp9717
a(I71
I269
tp9718
a(I165
I510
tp9719
a(I72
I393
tp9720
a(I59
I117
tp9721
a(I41
I918
tp9722
a(I9
I129
tp9723
a(I54
I187
tp9724
aa(lp9725
(I6
I343
tp9726
a(I119
I992
tp9727
a(I71
I612
tp9728
a(I330
I760
tp9729
a(I88
I398
tp9730
a(I32
I243
tp9731
a(I35
I110
tp9732
a(I43
I112
tp9733
a(I91
I865
tp9734
a(I27
I190
tp9735
aa(lp9736
(I13
I445
tp9737
a(I90
I278
tp9738
a(I1
I162
tp9739
a(I480
I901
tp9740
a(I113
I635
tp9741
a(I231
I795
tp9742
a(I52
I387
tp9743
a(I89
I575
tp9744
a(I10
I747
tp9745
a(I52
I160
tp9746
aa(lp9747
(I266
I768
tp9748
a(I101
I572
tp9749
a(I136
I730
tp9750
a(I12
I129
tp9751
a(I160
I693
tp9752
a(I78
I444
tp9753
a(I407
I840
tp9754
a(I6
I848
tp9755
a(I175
I878
tp9756
a(I30
I328
tp9757
aa(lp9758
(I90
I263
tp9759
a(I77
I608
tp9760
a(I8
I168
tp9761
a(I113
I617
tp9762
a(I4
I839
tp9763
a(I111
I568
tp9764
a(I21
I687
tp9765
a(I271
I857
tp9766
a(I301
I984
tp9767
a(I68
I157
tp9768
aa(lp9769
(I9
I331
tp9770
a(I306
I798
tp9771
a(I116
I673
tp9772
a(I23
I154
tp9773
a(I26
I493
tp9774
a(I100
I231
tp9775
a(I80
I660
tp9776
a(I133
I660
tp9777
a(I295
I770
tp9778
a(I17
I276
tp9779
aa(lp9780
(I77
I993
tp9781
a(I74
I357
tp9782
a(I847
I976
tp9783
a(I260
I663
tp9784
a(I17
I297
tp9785
a(I87
I410
tp9786
a(I44
I673
tp9787
a(I3
I430
tp9788
a(I14
I869
tp9789
a(I57
I649
tp9790
aa(lp9791
(I18
I225
tp9792
a(I22
I422
tp9793
a(I201
I534
tp9794
a(I302
I580
tp9795
a(I71
I426
tp9796
a(I17
I413
tp9797
a(I179
I655
tp9798
a(I125
I423
tp9799
a(I76
I915
tp9800
a(I28
I276
tp9801
aa(lp9802
(I53
I301
tp9803
a(I127
I462
tp9804
a(I59
I690
tp9805
a(I56
I211
tp9806
a(I24
I345
tp9807
a(I93
I674
tp9808
a(I204
I693
tp9809
a(I103
I540
tp9810
a(I1
I178
tp9811
a(I301
I619
tp9812
aa(lp9813
(I172
I358
tp9814
a(I318
I774
tp9815
a(I43
I199
tp9816
a(I110
I535
tp9817
a(I86
I904
tp9818
a(I3
I893
tp9819
a(I62
I161
tp9820
a(I64
I628
tp9821
a(I10
I175
tp9822
a(I13
I488
tp9823
aa(lp9824
(I100
I503
tp9825
a(I282
I623
tp9826
a(I54
I559
tp9827
a(I273
I588
tp9828
a(I158
I938
tp9829
a(I104
I806
tp9830
a(I37
I800
tp9831
a(I85
I574
tp9832
a(I60
I325
tp9833
a(I76
I750
tp9834
aa(lp9835
(I67
I916
tp9836
a(I18
I126
tp9837
a(I82
I617
tp9838
a(I315
I440
tp9839
a(I114
I502
tp9840
a(I122
I402
tp9841
a(I68
I707
tp9842
a(I86
I492
tp9843
a(I18
I713
tp9844
a(I47
I507
tp9845
aa(lp9846
(I12
I220
tp9847
a(I16
I598
tp9848
a(I31
I169
tp9849
a(I13
I592
tp9850
a(I1
I224
tp9851
a(I437
I729
tp9852
a(I148
I934
tp9853
a(I479
I706
tp9854
a(I13
I831
tp9855
a(I131
I542
tp9856
aa(lp9857
(I348
I580
tp9858
a(I39
I230
tp9859
a(I3
I118
tp9860
a(I130
I294
tp9861
a(I27
I793
tp9862
a(I16
I174
tp9863
a(I58
I565
tp9864
a(I1
I221
tp9865
a(I8
I151
tp9866
a(I177
I382
tp9867
aa(lp9868
(I6
I961
tp9869
a(I121
I925
tp9870
a(I589
I983
tp9871
a(I128
I507
tp9872
a(I107
I883
tp9873
a(I244
I550
tp9874
a(I26
I724
tp9875
a(I25
I1000
tp9876
a(I123
I518
tp9877
a(I60
I429
tp9878
aa(lp9879
(I126
I492
tp9880
a(I53
I196
tp9881
a(I39
I619
tp9882
a(I4
I979
tp9883
a(I301
I757
tp9884
a(I35
I288
tp9885
a(I104
I748
tp9886
a(I83
I658
tp9887
a(I117
I202
tp9888
a(I32
I989
tp9889
aa(lp9890
(I72
I820
tp9891
a(I76
I457
tp9892
a(I116
I958
tp9893
a(I24
I898
tp9894
a(I46
I797
tp9895
a(I36
I435
tp9896
a(I86
I957
tp9897
a(I263
I357
tp9898
a(I12
I213
tp9899
a(I226
I398
tp9900
aa(lp9901
(I123
I726
tp9902
a(I8
I588
tp9903
a(I62
I186
tp9904
a(I209
I508
tp9905
a(I36
I424
tp9906
a(I186
I861
tp9907
a(I160
I899
tp9908
a(I410
I811
tp9909
a(I13
I309
tp9910
a(I21
I550
tp9911
aa(lp9912
(I25
I844
tp9913
a(I19
I670
tp9914
a(I452
I894
tp9915
a(I18
I117
tp9916
a(I53
I492
tp9917
a(I83
I990
tp9918
a(I93
I440
tp9919
a(I229
I807
tp9920
a(I51
I766
tp9921
a(I414
I802
tp9922
aa(lp9923
(I74
I318
tp9924
a(I21
I219
tp9925
a(I70
I460
tp9926
a(I25
I150
tp9927
a(I32
I391
tp9928
a(I54
I863
tp9929
a(I180
I658
tp9930
a(I80
I367
tp9931
a(I229
I347
tp9932
a(I22
I601
tp9933
aa(lp9934
(I186
I903
tp9935
a(I62
I183
tp9936
a(I19
I326
tp9937
a(I125
I697
tp9938
a(I80
I467
tp9939
a(I11
I129
tp9940
a(I24
I576
tp9941
a(I83
I233
tp9942
a(I75
I914
tp9943
a(I97
I208
tp9944
aa(lp9945
(I31
I310
tp9946
a(I5
I239
tp9947
a(I244
I878
tp9948
a(I35
I120
tp9949
a(I65
I931
tp9950
a(I167
I399
tp9951
a(I11
I408
tp9952
a(I191
I616
tp9953
a(I95
I500
tp9954
a(I160
I585
tp9955
aa(lp9956
(I33
I228
tp9957
a(I194
I872
tp9958
a(I151
I839
tp9959
a(I18
I363
tp9960
a(I105
I372
tp9961
a(I66
I497
tp9962
a(I20
I267
tp9963
a(I36
I161
tp9964
a(I152
I485
tp9965
a(I347
I954
tp9966
aa(lp9967
(I41
I676
tp9968
a(I26
I120
tp9969
a(I341
I964
tp9970
a(I112
I696
tp9971
a(I21
I330
tp9972
a(I259
I847
tp9973
a(I1
I563
tp9974
a(I235
I729
tp9975
a(I77
I488
tp9976
a(I131
I381
tp9977
aa(lp9978
(I1
I536
tp9979
a(I127
I828
tp9980
a(I289
I544
tp9981
a(I7
I629
tp9982
a(I72
I915
tp9983
a(I26
I548
tp9984
a(I27
I112
tp9985
a(I547
I952
tp9986
a(I24
I208
tp9987
a(I132
I559
tp9988
aa(lp9989
(I2
I172
tp9990
a(I35
I185
tp9991
a(I196
I353
tp9992
a(I2
I838
tp9993
a(I178
I555
tp9994
a(I5
I720
tp9995
a(I35
I366
tp9996
a(I50
I188
tp9997
a(I299
I634
tp9998
a(I15
I229
tp9999
aa(lp10000
(I82
I492
tp10001
a(I32
I656
tp10002
a(I20
I266
tp10003
a(I43
I207
tp10004
a(I76
I631
tp10005
a(I39
I304
tp10006
a(I381
I847
tp10007
a(I90
I717
tp10008
a(I82
I138
tp10009
a(I38
I600
tp10010
aa(lp10011
(I50
I168
tp10012
a(I56
I213
tp10013
a(I194
I978
tp10014
a(I37
I955
tp10015
a(I55
I147
tp10016
a(I38
I378
tp10017
a(I343
I964
tp10018
a(I10
I155
tp10019
a(I6
I210
tp10020
a(I57
I222
tp10021
aa(lp10022
(I151
I549
tp10023
a(I80
I531
tp10024
a(I63
I411
tp10025
a(I5
I100
tp10026
a(I120
I396
tp10027
a(I381
I976
tp10028
a(I71
I657
tp10029
a(I242
I758
tp10030
a(I18
I552
tp10031
a(I106
I519
tp10032
aa(lp10033
(I45
I608
tp10034
a(I23
I258
tp10035
a(I80
I323
tp10036
a(I20
I187
tp10037
a(I49
I351
tp10038
a(I7
I164
tp10039
a(I222
I787
tp10040
a(I22
I142
tp10041
a(I88
I565
tp10042
a(I317
I458
tp10043
aa(lp10044
(I15
I493
tp10045
a(I199
I994
tp10046
a(I431
I806
tp10047
a(I67
I675
tp10048
a(I76
I189
tp10049
a(I55
I575
tp10050
a(I56
I391
tp10051
a(I15
I175
tp10052
a(I64
I924
tp10053
a(I294
I901
tp10054
aa(lp10055
(I80
I756
tp10056
a(I11
I631
tp10057
a(I195
I307
tp10058
a(I66
I339
tp10059
a(I169
I885
tp10060
a(I216
I910
tp10061
a(I98
I808
tp10062
a(I36
I729
tp10063
a(I113
I377
tp10064
a(I44
I318
tp10065
aa(lp10066
(I4
I241
tp10067
a(I11
I973
tp10068
a(I158
I994
tp10069
a(I94
I910
tp10070
a(I199
I330
tp10071
a(I137
I985
tp10072
a(I100
I527
tp10073
a(I26
I102
tp10074
a(I32
I509
tp10075
a(I85
I192
tp10076
aa(lp10077
(I151
I978
tp10078
a(I26
I581
tp10079
a(I236
I709
tp10080
a(I337
I935
tp10081
a(I313
I553
tp10082
a(I198
I952
tp10083
a(I48
I445
tp10084
a(I5
I295
tp10085
a(I49
I368
tp10086
a(I25
I394
tp10087
aa(lp10088
(I81
I404
tp10089
a(I139
I281
tp10090
a(I116
I799
tp10091
a(I15
I786
tp10092
a(I35
I233
tp10093
a(I613
I897
tp10094
a(I12
I163
tp10095
a(I32
I698
tp10096
a(I63
I451
tp10097
a(I17
I541
tp10098
aa(lp10099
(I64
I832
tp10100
a(I195
I841
tp10101
a(I299
I813
tp10102
a(I10
I779
tp10103
a(I202
I755
tp10104
a(I290
I868
tp10105
a(I55
I257
tp10106
a(I126
I697
tp10107
a(I99
I336
tp10108
a(I6
I462
tp10109
aa(lp10110
(I53
I433
tp10111
a(I517
I949
tp10112
a(I11
I469
tp10113
a(I5
I576
tp10114
a(I249
I868
tp10115
a(I43
I500
tp10116
a(I56
I415
tp10117
a(I18
I265
tp10118
a(I40
I497
tp10119
a(I210
I332
tp10120
aa(lp10121
(I40
I573
tp10122
a(I29
I834
tp10123
a(I345
I584
tp10124
a(I14
I166
tp10125
a(I49
I184
tp10126
a(I163
I921
tp10127
a(I87
I499
tp10128
a(I4
I348
tp10129
a(I53
I141
tp10130
a(I75
I386
tp10131
aa(lp10132
(I70
I795
tp10133
a(I61
I314
tp10134
a(I13
I904
tp10135
a(I208
I846
tp10136
a(I56
I121
tp10137
a(I92
I349
tp10138
a(I49
I182
tp10139
a(I61
I231
tp10140
a(I43
I341
tp10141
a(I48
I819
tp10142
aa(lp10143
(I103
I583
tp10144
a(I346
I947
tp10145
a(I41
I449
tp10146
a(I84
I850
tp10147
a(I169
I999
tp10148
a(I45
I686
tp10149
a(I71
I134
tp10150
a(I117
I753
tp10151
a(I8
I773
tp10152
a(I202
I622
tp10153
aa(lp10154
(I70
I349
tp10155
a(I68
I324
tp10156
a(I9
I452
tp10157
a(I100
I354
tp10158
a(I87
I263
tp10159
a(I3
I147
tp10160
a(I13
I267
tp10161
a(I129
I417
tp10162
a(I94
I485
tp10163
a(I339
I926
tp10164
aa(lp10165
(I68
I191
tp10166
a(I53
I379
tp10167
a(I101
I426
tp10168
a(I32
I681
tp10169
a(I87
I128
tp10170
a(I239
I675
tp10171
a(I56
I883
tp10172
a(I57
I635
tp10173
a(I3
I236
tp10174
a(I1
I489
tp10175
aa(lp10176
(I30
I820
tp10177
a(I18
I117
tp10178
a(I88
I754
tp10179
a(I232
I562
tp10180
a(I66
I596
tp10181
a(I20
I739
tp10182
a(I40
I185
tp10183
a(I64
I495
tp10184
a(I71
I163
tp10185
a(I85
I244
tp10186
aa(lp10187
(I24
I998
tp10188
a(I159
I511
tp10189
a(I329
I718
tp10190
a(I25
I211
tp10191
a(I17
I515
tp10192
a(I29
I158
tp10193
a(I275
I660
tp10194
a(I218
I830
tp10195
a(I32
I635
tp10196
a(I71
I545
tp10197
aa(lp10198
(I119
I607
tp10199
a(I36
I734
tp10200
a(I84
I489
tp10201
a(I11
I120
tp10202
a(I422
I970
tp10203
a(I579
I923
tp10204
a(I218
I855
tp10205
a(I24
I792
tp10206
a(I8
I108
tp10207
a(I28
I549
tp10208
aa(lp10209
(I28
I231
tp10210
a(I20
I505
tp10211
a(I318
I484
tp10212
a(I7
I267
tp10213
a(I48
I928
tp10214
a(I41
I925
tp10215
a(I14
I764
tp10216
a(I139
I778
tp10217
a(I75
I124
tp10218
a(I160
I649
tp10219
aa(lp10220
(I25
I107
tp10221
a(I341
I544
tp10222
a(I7
I362
tp10223
a(I244
I697
tp10224
a(I10
I192
tp10225
a(I95
I964
tp10226
a(I46
I654
tp10227
a(I103
I272
tp10228
a(I65
I700
tp10229
a(I55
I801
tp10230
aa(lp10231
(I237
I464
tp10232
a(I208
I771
tp10233
a(I45
I810
tp10234
a(I773
I968
tp10235
a(I16
I473
tp10236
a(I84
I640
tp10237
a(I75
I844
tp10238
a(I19
I398
tp10239
a(I5
I692
tp10240
a(I46
I878
tp10241
aa(lp10242
(I37
I286
tp10243
a(I1
I257
tp10244
a(I92
I219
tp10245
a(I46
I732
tp10246
a(I371
I963
tp10247
a(I54
I362
tp10248
a(I17
I104
tp10249
a(I57
I122
tp10250
a(I12
I528
tp10251
a(I34
I197
tp10252
aa(lp10253
(I20
I512
tp10254
a(I241
I675
tp10255
a(I4
I138
tp10256
a(I74
I482
tp10257
a(I15
I846
tp10258
a(I217
I661
tp10259
a(I380
I605
tp10260
a(I94
I969
tp10261
a(I293
I939
tp10262
a(I3
I113
tp10263
aa(lp10264
(I142
I641
tp10265
a(I148
I430
tp10266
a(I1
I110
tp10267
a(I2
I320
tp10268
a(I212
I936
tp10269
a(I145
I288
tp10270
a(I141
I416
tp10271
a(I177
I859
tp10272
a(I17
I268
tp10273
a(I39
I585
tp10274
aa(lp10275
(I26
I431
tp10276
a(I38
I311
tp10277
a(I338
I949
tp10278
a(I10
I112
tp10279
a(I53
I236
tp10280
a(I24
I144
tp10281
a(I193
I947
tp10282
a(I47
I583
tp10283
a(I16
I638
tp10284
a(I256
I390
tp10285
aa(lp10286
(I34
I377
tp10287
a(I77
I895
tp10288
a(I79
I772
tp10289
a(I4
I519
tp10290
a(I97
I902
tp10291
a(I27
I327
tp10292
a(I68
I986
tp10293
a(I738
I761
tp10294
a(I121
I256
tp10295
a(I3
I809
tp10296
aa(lp10297
(I110
I905
tp10298
a(I4
I406
tp10299
a(I37
I195
tp10300
a(I83
I520
tp10301
a(I58
I368
tp10302
a(I9
I196
tp10303
a(I66
I497
tp10304
a(I169
I404
tp10305
a(I168
I303
tp10306
a(I123
I628
tp10307
aa(lp10308
(I20
I324
tp10309
a(I31
I680
tp10310
a(I164
I426
tp10311
a(I223
I774
tp10312
a(I40
I197
tp10313
a(I336
I781
tp10314
a(I16
I162
tp10315
a(I85
I729
tp10316
a(I2
I461
tp10317
a(I60
I170
tp10318
aa(lp10319
(I59
I163
tp10320
a(I5
I140
tp10321
a(I136
I351
tp10322
a(I152
I798
tp10323
a(I260
I928
tp10324
a(I5
I216
tp10325
a(I35
I729
tp10326
a(I331
I878
tp10327
a(I57
I888
tp10328
a(I54
I253
tp10329
aa(lp10330
(I418
I666
tp10331
a(I268
I832
tp10332
a(I33
I346
tp10333
a(I3
I147
tp10334
a(I12
I140
tp10335
a(I3
I518
tp10336
a(I346
I835
tp10337
a(I104
I279
tp10338
a(I1
I641
tp10339
a(I18
I510
tp10340
aa(lp10341
(I46
I403
tp10342
a(I67
I869
tp10343
a(I4
I173
tp10344
a(I377
I970
tp10345
a(I27
I362
tp10346
a(I36
I220
tp10347
a(I156
I965
tp10348
a(I43
I992
tp10349
a(I494
I944
tp10350
a(I90
I216
tp10351
aa(lp10352
(I57
I130
tp10353
a(I39
I902
tp10354
a(I142
I352
tp10355
a(I135
I798
tp10356
a(I186
I691
tp10357
a(I18
I756
tp10358
a(I50
I270
tp10359
a(I12
I152
tp10360
a(I96
I636
tp10361
a(I224
I982
tp10362
aa(lp10363
(I101
I251
tp10364
a(I26
I315
tp10365
a(I483
I821
tp10366
a(I66
I680
tp10367
a(I53
I554
tp10368
a(I51
I628
tp10369
a(I45
I330
tp10370
a(I54
I114
tp10371
a(I10
I442
tp10372
a(I1
I408
tp10373
aa(lp10374
(I165
I904
tp10375
a(I74
I935
tp10376
a(I153
I594
tp10377
a(I32
I325
tp10378
a(I57
I232
tp10379
a(I95
I830
tp10380
a(I35
I210
tp10381
a(I142
I460
tp10382
a(I7
I848
tp10383
a(I434
I827
tp10384
aa(lp10385
(I281
I643
tp10386
a(I194
I526
tp10387
a(I15
I559
tp10388
a(I95
I218
tp10389
a(I19
I655
tp10390
a(I59
I534
tp10391
a(I184
I749
tp10392
a(I40
I253
tp10393
a(I139
I875
tp10394
a(I7
I429
tp10395
aa(lp10396
(I24
I146
tp10397
a(I7
I118
tp10398
a(I457
I893
tp10399
a(I197
I702
tp10400
a(I101
I267
tp10401
a(I61
I792
tp10402
a(I17
I743
tp10403
a(I53
I404
tp10404
a(I175
I678
tp10405
a(I72
I769
tp10406
aa(lp10407
(I107
I277
tp10408
a(I9
I247
tp10409
a(I135
I800
tp10410
a(I25
I223
tp10411
a(I364
I619
tp10412
a(I35
I561
tp10413
a(I29
I358
tp10414
a(I65
I416
tp10415
a(I26
I210
tp10416
a(I52
I194
tp10417
aa(lp10418
(I11
I108
tp10419
a(I102
I985
tp10420
a(I13
I356
tp10421
a(I2
I862
tp10422
a(I33
I991
tp10423
a(I129
I320
tp10424
a(I42
I455
tp10425
a(I547
I615
tp10426
a(I132
I682
tp10427
a(I70
I541
tp10428
aa(lp10429
(I13
I111
tp10430
a(I9
I291
tp10431
a(I18
I264
tp10432
a(I40
I524
tp10433
a(I17
I164
tp10434
a(I233
I516
tp10435
a(I67
I506
tp10436
a(I75
I771
tp10437
a(I186
I510
tp10438
a(I262
I481
tp10439
aa(lp10440
(I14
I612
tp10441
a(I190
I923
tp10442
a(I23
I392
tp10443
a(I147
I787
tp10444
a(I66
I249
tp10445
a(I150
I388
tp10446
a(I346
I919
tp10447
a(I4
I367
tp10448
a(I4
I195
tp10449
a(I265
I586
tp10450
aa(lp10451
(I273
I569
tp10452
a(I32
I842
tp10453
a(I52
I448
tp10454
a(I106
I939
tp10455
a(I9
I586
tp10456
a(I61
I162
tp10457
a(I52
I326
tp10458
a(I480
I852
tp10459
a(I7
I148
tp10460
a(I47
I591
tp10461
aa(lp10462
(I254
I857
tp10463
a(I400
I446
tp10464
a(I55
I815
tp10465
a(I4
I172
tp10466
a(I8
I731
tp10467
a(I72
I982
tp10468
a(I47
I435
tp10469
a(I83
I930
tp10470
a(I27
I652
tp10471
a(I75
I196
tp10472
aa(lp10473
(I30
I218
tp10474
a(I22
I714
tp10475
a(I241
I576
tp10476
a(I11
I162
tp10477
a(I25
I223
tp10478
a(I50
I588
tp10479
a(I57
I106
tp10480
a(I220
I423
tp10481
a(I7
I385
tp10482
a(I22
I448
tp10483
aa(lp10484
(I20
I389
tp10485
a(I58
I510
tp10486
a(I181
I686
tp10487
a(I331
I489
tp10488
a(I24
I114
tp10489
a(I1
I176
tp10490
a(I87
I676
tp10491
a(I110
I991
tp10492
a(I70
I277
tp10493
a(I41
I231
tp10494
aa(lp10495
(I84
I401
tp10496
a(I1
I102
tp10497
a(I79
I575
tp10498
a(I27
I378
tp10499
a(I480
I906
tp10500
a(I203
I948
tp10501
a(I127
I331
tp10502
a(I48
I741
tp10503
a(I135
I954
tp10504
a(I96
I439
tp10505
aa(lp10506
(I61
I250
tp10507
a(I10
I156
tp10508
a(I112
I240
tp10509
a(I25
I195
tp10510
a(I100
I593
tp10511
a(I8
I614
tp10512
a(I42
I390
tp10513
a(I59
I569
tp10514
a(I577
I972
tp10515
a(I62
I654
tp10516
aa(lp10517
(I29
I736
tp10518
a(I179
I813
tp10519
a(I192
I930
tp10520
a(I1
I197
tp10521
a(I39
I101
tp10522
a(I58
I416
tp10523
a(I36
I550
tp10524
a(I393
I798
tp10525
a(I305
I886
tp10526
a(I24
I275
tp10527
aa(lp10528
(I39
I912
tp10529
a(I100
I177
tp10530
a(I77
I371
tp10531
a(I14
I877
tp10532
a(I4
I101
tp10533
a(I1
I450
tp10534
a(I59
I517
tp10535
a(I685
I943
tp10536
a(I52
I245
tp10537
a(I59
I958
tp10538
aa(lp10539
(I102
I323
tp10540
a(I5
I153
tp10541
a(I25
I630
tp10542
a(I94
I773
tp10543
a(I92
I365
tp10544
a(I99
I294
tp10545
a(I94
I183
tp10546
a(I134
I473
tp10547
a(I24
I661
tp10548
a(I42
I721
tp10549
aa(lp10550
(I69
I604
tp10551
a(I230
I954
tp10552
a(I434
I964
tp10553
a(I69
I804
tp10554
a(I20
I215
tp10555
a(I8
I359
tp10556
a(I264
I746
tp10557
a(I26
I185
tp10558
a(I124
I465
tp10559
a(I216
I997
tp10560
aa(lp10561
(I222
I929
tp10562
a(I27
I835
tp10563
a(I97
I203
tp10564
a(I19
I455
tp10565
a(I245
I872
tp10566
a(I118
I373
tp10567
a(I123
I763
tp10568
a(I184
I955
tp10569
a(I44
I210
tp10570
a(I6
I175
tp10571
aa(lp10572
(I85
I308
tp10573
a(I73
I147
tp10574
a(I3
I219
tp10575
a(I33
I181
tp10576
a(I40
I687
tp10577
a(I70
I597
tp10578
a(I373
I587
tp10579
a(I6
I541
tp10580
a(I1
I931
tp10581
a(I74
I374
tp10582
aa(lp10583
(I4
I687
tp10584
a(I115
I251
tp10585
a(I142
I503
tp10586
a(I205
I941
tp10587
a(I66
I241
tp10588
a(I149
I364
tp10589
a(I16
I676
tp10590
a(I197
I799
tp10591
a(I17
I379
tp10592
a(I28
I981
tp10593
aa(lp10594
(I170
I841
tp10595
a(I1
I886
tp10596
a(I204
I378
tp10597
a(I461
I873
tp10598
a(I38
I818
tp10599
a(I394
I865
tp10600
a(I17
I634
tp10601
a(I79
I596
tp10602
a(I6
I468
tp10603
a(I46
I946
tp10604
aa(lp10605
(I77
I683
tp10606
a(I14
I143
tp10607
a(I41
I169
tp10608
a(I27
I540
tp10609
a(I197
I395
tp10610
a(I450
I833
tp10611
a(I22
I420
tp10612
a(I169
I720
tp10613
a(I124
I868
tp10614
a(I4
I398
tp10615
aa(lp10616
(I23
I158
tp10617
a(I4
I740
tp10618
a(I9
I663
tp10619
a(I95
I136
tp10620
a(I36
I982
tp10621
a(I22
I117
tp10622
a(I42
I477
tp10623
a(I124
I420
tp10624
a(I79
I249
tp10625
a(I158
I830
tp10626
aa(lp10627
(I158
I648
tp10628
a(I77
I237
tp10629
a(I103
I380
tp10630
a(I45
I276
tp10631
a(I28
I171
tp10632
a(I14
I686
tp10633
a(I19
I272
tp10634
a(I8
I946
tp10635
a(I52
I239
tp10636
a(I271
I536
tp10637
aa(lp10638
(I18
I422
tp10639
a(I40
I576
tp10640
a(I155
I974
tp10641
a(I270
I895
tp10642
a(I49
I847
tp10643
a(I335
I800
tp10644
a(I1
I421
tp10645
a(I459
I919
tp10646
a(I128
I631
tp10647
a(I130
I541
tp10648
aa(lp10649
(I113
I729
tp10650
a(I87
I516
tp10651
a(I271
I735
tp10652
a(I64
I982
tp10653
a(I7
I201
tp10654
a(I68
I290
tp10655
a(I129
I292
tp10656
a(I7
I106
tp10657
a(I41
I389
tp10658
a(I59
I172
tp10659
aa(lp10660
(I391
I986
tp10661
a(I151
I579
tp10662
a(I73
I161
tp10663
a(I17
I557
tp10664
a(I60
I178
tp10665
a(I14
I505
tp10666
a(I37
I834
tp10667
a(I32
I391
tp10668
a(I39
I398
tp10669
a(I186
I720
tp10670
aa(lp10671
(I115
I882
tp10672
a(I214
I651
tp10673
a(I24
I764
tp10674
a(I372
I857
tp10675
a(I5
I574
tp10676
a(I2
I197
tp10677
a(I2
I265
tp10678
a(I539
I888
tp10679
a(I100
I458
tp10680
a(I121
I575
tp10681
aa(lp10682
(I10
I952
tp10683
a(I81
I531
tp10684
a(I85
I273
tp10685
a(I609
I840
tp10686
a(I55
I671
tp10687
a(I38
I773
tp10688
a(I15
I255
tp10689
a(I19
I213
tp10690
a(I151
I473
tp10691
a(I167
I851
tp10692
aa(lp10693
(I38
I153
tp10694
a(I105
I951
tp10695
a(I59
I652
tp10696
a(I75
I363
tp10697
a(I104
I461
tp10698
a(I78
I207
tp10699
a(I54
I604
tp10700
a(I38
I141
tp10701
a(I98
I729
tp10702
a(I123
I525
tp10703
aa(lp10704
(I241
I899
tp10705
a(I96
I584
tp10706
a(I21
I182
tp10707
a(I129
I636
tp10708
a(I16
I612
tp10709
a(I216
I675
tp10710
a(I299
I534
tp10711
a(I67
I950
tp10712
a(I42
I600
tp10713
a(I139
I711
tp10714
aa(lp10715
(I42
I155
tp10716
a(I160
I809
tp10717
a(I20
I649
tp10718
a(I1
I247
tp10719
a(I94
I434
tp10720
a(I32
I736
tp10721
a(I118
I861
tp10722
a(I29
I172
tp10723
a(I353
I806
tp10724
a(I294
I610
tp10725
aa(lp10726
(I1
I230
tp10727
a(I1
I114
tp10728
a(I269
I312
tp10729
a(I5
I658
tp10730
a(I17
I293
tp10731
a(I172
I557
tp10732
a(I61
I618
tp10733
a(I191
I455
tp10734
a(I92
I468
tp10735
a(I17
I811
tp10736
aa(lp10737
(I231
I600
tp10738
a(I13
I188
tp10739
a(I45
I738
tp10740
a(I9
I347
tp10741
a(I16
I676
tp10742
a(I57
I173
tp10743
a(I176
I805
tp10744
a(I418
I524
tp10745
a(I13
I310
tp10746
a(I23
I676
tp10747
aa(lp10748
(I263
I601
tp10749
a(I20
I336
tp10750
a(I158
I894
tp10751
a(I19
I254
tp10752
a(I113
I906
tp10753
a(I51
I908
tp10754
a(I414
I982
tp10755
a(I53
I536
tp10756
a(I260
I521
tp10757
a(I41
I985
tp10758
aa(lp10759
(I10
I168
tp10760
a(I108
I421
tp10761
a(I60
I335
tp10762
a(I79
I623
tp10763
a(I1
I880
tp10764
a(I14
I412
tp10765
a(I23
I119
tp10766
a(I106
I430
tp10767
a(I350
I606
tp10768
a(I248
I803
tp10769
aa(lp10770
(I1
I113
tp10771
a(I141
I560
tp10772
a(I194
I942
tp10773
a(I313
I898
tp10774
a(I70
I944
tp10775
a(I328
I821
tp10776
a(I23
I159
tp10777
a(I336
I776
tp10778
a(I20
I246
tp10779
a(I26
I720
tp10780
aa(lp10781
(I69
I383
tp10782
a(I58
I135
tp10783
a(I82
I824
tp10784
a(I210
I542
tp10785
a(I29
I254
tp10786
a(I59
I368
tp10787
a(I111
I247
tp10788
a(I42
I716
tp10789
a(I17
I413
tp10790
a(I28
I451
tp10791
aa(lp10792
(I41
I404
tp10793
a(I9
I355
tp10794
a(I4
I177
tp10795
a(I70
I209
tp10796
a(I357
I622
tp10797
a(I48
I209
tp10798
a(I33
I669
tp10799
a(I215
I569
tp10800
a(I17
I118
tp10801
a(I94
I821
tp10802
aa(lp10803
(I6
I121
tp10804
a(I15
I668
tp10805
a(I213
I513
tp10806
a(I376
I909
tp10807
a(I128
I447
tp10808
a(I137
I826
tp10809
a(I220
I717
tp10810
a(I19
I350
tp10811
a(I59
I663
tp10812
a(I121
I640
tp10813
aa(lp10814
(I26
I325
tp10815
a(I46
I295
tp10816
a(I42
I931
tp10817
a(I7
I288
tp10818
a(I553
I781
tp10819
a(I2
I270
tp10820
a(I145
I330
tp10821
a(I75
I752
tp10822
a(I196
I589
tp10823
a(I66
I684
tp10824
aa(lp10825
(I105
I355
tp10826
a(I36
I478
tp10827
a(I58
I439
tp10828
a(I67
I361
tp10829
a(I168
I643
tp10830
a(I17
I390
tp10831
a(I604
I988
tp10832
a(I48
I635
tp10833
a(I195
I730
tp10834
a(I42
I989
tp10835
aa(lp10836
(I20
I315
tp10837
a(I1
I157
tp10838
a(I33
I550
tp10839
a(I571
I846
tp10840
a(I40
I697
tp10841
a(I371
I885
tp10842
a(I48
I944
tp10843
a(I28
I133
tp10844
a(I72
I284
tp10845
a(I82
I407
tp10846
aa(lp10847
(I145
I922
tp10848
a(I55
I522
tp10849
a(I140
I864
tp10850
a(I13
I858
tp10851
a(I70
I366
tp10852
a(I274
I723
tp10853
a(I30
I536
tp10854
a(I283
I779
tp10855
a(I120
I267
tp10856
a(I48
I432
tp10857
aa(lp10858
(I8
I435
tp10859
a(I133
I409
tp10860
a(I80
I722
tp10861
a(I304
I761
tp10862
a(I359
I859
tp10863
a(I9
I549
tp10864
a(I41
I364
tp10865
a(I1
I116
tp10866
a(I98
I508
tp10867
a(I156
I406
tp10868
aa(lp10869
(I13
I118
tp10870
a(I8
I101
tp10871
a(I57
I812
tp10872
a(I9
I155
tp10873
a(I57
I653
tp10874
a(I60
I161
tp10875
a(I105
I446
tp10876
a(I469
I937
tp10877
a(I53
I722
tp10878
a(I54
I139
tp10879
aa(lp10880
(I45
I276
tp10881
a(I55
I870
tp10882
a(I318
I876
tp10883
a(I40
I156
tp10884
a(I109
I467
tp10885
a(I3
I199
tp10886
a(I24
I143
tp10887
a(I95
I387
tp10888
a(I45
I658
tp10889
a(I196
I487
tp10890
aa(lp10891
(I113
I424
tp10892
a(I219
I505
tp10893
a(I507
I882
tp10894
a(I6
I123
tp10895
a(I34
I434
tp10896
a(I41
I328
tp10897
a(I90
I623
tp10898
a(I10
I949
tp10899
a(I75
I362
tp10900
a(I39
I411
tp10901
aa(lp10902
(I70
I769
tp10903
a(I180
I690
tp10904
a(I143
I543
tp10905
a(I43
I416
tp10906
a(I5
I126
tp10907
a(I13
I216
tp10908
a(I606
I726
tp10909
a(I45
I270
tp10910
a(I25
I169
tp10911
a(I18
I985
tp10912
aa(lp10913
(I46
I432
tp10914
a(I268
I645
tp10915
a(I361
I736
tp10916
a(I33
I813
tp10917
a(I128
I731
tp10918
a(I30
I177
tp10919
a(I99
I957
tp10920
a(I120
I707
tp10921
a(I188
I642
tp10922
a(I12
I446
tp10923
aa(lp10924
(I70
I621
tp10925
a(I270
I832
tp10926
a(I125
I672
tp10927
a(I44
I414
tp10928
a(I25
I763
tp10929
a(I17
I529
tp10930
a(I251
I670
tp10931
a(I658
I963
tp10932
a(I18
I338
tp10933
a(I51
I591
tp10934
aa(lp10935
(I26
I134
tp10936
a(I382
I557
tp10937
a(I24
I242
tp10938
a(I198
I561
tp10939
a(I42
I322
tp10940
a(I143
I980
tp10941
a(I26
I964
tp10942
a(I24
I670
tp10943
a(I70
I265
tp10944
a(I41
I845
tp10945
aa(lp10946
(I57
I918
tp10947
a(I566
I897
tp10948
a(I44
I421
tp10949
a(I15
I112
tp10950
a(I65
I358
tp10951
a(I2
I134
tp10952
a(I21
I422
tp10953
a(I204
I802
tp10954
a(I223
I874
tp10955
a(I110
I371
tp10956
aa(lp10957
(I77
I930
tp10958
a(I103
I720
tp10959
a(I21
I935
tp10960
a(I333
I737
tp10961
a(I99
I685
tp10962
a(I87
I711
tp10963
a(I69
I437
tp10964
a(I25
I300
tp10965
a(I349
I664
tp10966
a(I222
I867
tp10967
aa(lp10968
(I5
I219
tp10969
a(I3
I190
tp10970
a(I73
I528
tp10971
a(I56
I184
tp10972
a(I228
I843
tp10973
a(I613
I777
tp10974
a(I12
I812
tp10975
a(I32
I505
tp10976
a(I151
I956
tp10977
a(I204
I980
tp10978
aa(lp10979
(I60
I209
tp10980
a(I18
I684
tp10981
a(I1
I569
tp10982
a(I144
I473
tp10983
a(I79
I315
tp10984
a(I25
I412
tp10985
a(I162
I881
tp10986
a(I127
I578
tp10987
a(I30
I392
tp10988
a(I68
I117
tp10989
aa(lp10990
(I28
I244
tp10991
a(I62
I666
tp10992
a(I36
I290
tp10993
a(I20
I425
tp10994
a(I34
I218
tp10995
a(I192
I405
tp10996
a(I31
I121
tp10997
a(I143
I822
tp10998
a(I62
I985
tp10999
a(I80
I165
tp11000
aa.